
kernel.elf:     file format elf32-littlearm


Disassembly of section .init:

00008000 <_start>:
    8000:	e1a0c00f 	mov	ip, pc
    8004:	e10f0000 	mrs	r0, CPSR
    8008:	e38000c0 	orr	r0, r0, #192	; 0xc0
    800c:	e200b01f 	and	fp, r0, #31
    8010:	e35b001a 	cmp	fp, #26
    8014:	1a000005 	bne	8030 <.NotInHypMode>
    8018:	e3c0001f 	bic	r0, r0, #31
    801c:	e3800013 	orr	r0, r0, #19
    8020:	e16ff000 	msr	SPSR_fsxc, r0
    8024:	e28fe004 	add	lr, pc, #4
    8028:	e12ef30e 	.word	0xe12ef30e
    802c:	e160006e 	.word	0xe160006e

00008030 <.NotInHypMode>:
    8030:	e59f2264 	ldr	r2, [pc, #612]	; 829c <hang+0x4>
    8034:	e59f3264 	ldr	r3, [pc, #612]	; 82a0 <hang+0x8>
    8038:	e59f4264 	ldr	r4, [pc, #612]	; 82a4 <hang+0xc>
    803c:	e59f5264 	ldr	r5, [pc, #612]	; 82a8 <hang+0x10>
    8040:	ee106f10 	mrc	15, 0, r6, cr0, cr0, {0}
    8044:	e59f7260 	ldr	r7, [pc, #608]	; 82ac <hang+0x14>
    8048:	e1560007 	cmp	r6, r7
    804c:	0a000013 	beq	80a0 <set_svc_stack>
    8050:	ee106fb0 	mrc	15, 0, r6, cr0, cr0, {5}
    8054:	e2166003 	ands	r6, r6, #3
    8058:	0a000010 	beq	80a0 <set_svc_stack>
    805c:	e3560003 	cmp	r6, #3
    8060:	0a00000b 	beq	8094 <core3_stack_setup>
    8064:	e3560002 	cmp	r6, #2
    8068:	0a000004 	beq	8080 <core2_stack_setup>
    806c:	e59f223c 	ldr	r2, [pc, #572]	; 82b0 <hang+0x18>
    8070:	e59f323c 	ldr	r3, [pc, #572]	; 82b4 <hang+0x1c>
    8074:	e59f423c 	ldr	r4, [pc, #572]	; 82b8 <hang+0x20>
    8078:	e59f523c 	ldr	r5, [pc, #572]	; 82bc <hang+0x24>
    807c:	ea000007 	b	80a0 <set_svc_stack>

00008080 <core2_stack_setup>:
    8080:	e59f2238 	ldr	r2, [pc, #568]	; 82c0 <hang+0x28>
    8084:	e59f3238 	ldr	r3, [pc, #568]	; 82c4 <hang+0x2c>
    8088:	e59f4238 	ldr	r4, [pc, #568]	; 82c8 <hang+0x30>
    808c:	e59f5238 	ldr	r5, [pc, #568]	; 82cc <hang+0x34>
    8090:	ea000002 	b	80a0 <set_svc_stack>

00008094 <core3_stack_setup>:
    8094:	e59f2234 	ldr	r2, [pc, #564]	; 82d0 <hang+0x38>
    8098:	e59f3234 	ldr	r3, [pc, #564]	; 82d4 <hang+0x3c>
    809c:	e59f4234 	ldr	r4, [pc, #564]	; 82d8 <hang+0x40>

000080a0 <set_svc_stack>:
    80a0:	e3c0001f 	bic	r0, r0, #31
    80a4:	e3800013 	orr	r0, r0, #19
    80a8:	e121f000 	msr	CPSR_c, r0
    80ac:	e1a0d002 	mov	sp, r2
    80b0:	e3c0001f 	bic	r0, r0, #31
    80b4:	e3800011 	orr	r0, r0, #17
    80b8:	e121f000 	msr	CPSR_c, r0
    80bc:	e1a0d003 	mov	sp, r3
    80c0:	e3c0001f 	bic	r0, r0, #31
    80c4:	e3800012 	orr	r0, r0, #18
    80c8:	e121f000 	msr	CPSR_c, r0
    80cc:	e1a0d004 	mov	sp, r4
    80d0:	e3c0001f 	bic	r0, r0, #31
    80d4:	e380001f 	orr	r0, r0, #31
    80d8:	e121f000 	msr	CPSR_c, r0
    80dc:	e1a0d005 	mov	sp, r5
    80e0:	e3c0001f 	bic	r0, r0, #31
    80e4:	e3800013 	orr	r0, r0, #19
    80e8:	e121f000 	msr	CPSR_c, r0
    80ec:	ee110f51 	mrc	15, 0, r0, cr1, cr1, {2}
    80f0:	e3500b03 	cmp	r0, #3072	; 0xc00
    80f4:	0a000001 	beq	8100 <.free_to_enable_fpu1>
    80f8:	e3800b03 	orr	r0, r0, #3072	; 0xc00
    80fc:	ee010f51 	mcr	15, 0, r0, cr1, cr1, {2}

00008100 <.free_to_enable_fpu1>:
    8100:	ee110f50 	mrc	15, 0, r0, cr1, cr0, {2}
    8104:	e380060f 	orr	r0, r0, #15728640	; 0xf00000
    8108:	ee010f50 	mcr	15, 0, r0, cr1, cr0, {2}
    810c:	e3a00101 	mov	r0, #1073741824	; 0x40000000
    8110:	eee80a10 	vmsr	fpexc, r0
    8114:	ee110f10 	mrc	15, 0, r0, cr1, cr0, {0}
    8118:	e3800b02 	orr	r0, r0, #2048	; 0x800
    811c:	e3800004 	orr	r0, r0, #4
    8120:	e3800a01 	orr	r0, r0, #4096	; 0x1000
    8124:	ee010f10 	mcr	15, 0, r0, cr1, cr0, {0}
    8128:	ee100f10 	mrc	15, 0, r0, cr0, cr0, {0}
    812c:	e59f1178 	ldr	r1, [pc, #376]	; 82ac <hang+0x14>
    8130:	e1510000 	cmp	r1, r0
    8134:	0a000007 	beq	8158 <.cpu0_exit_multicore_park>
    8138:	ee100fb0 	mrc	15, 0, r0, cr0, cr0, {5}
    813c:	e2100003 	ands	r0, r0, #3
    8140:	0a000004 	beq	8158 <.cpu0_exit_multicore_park>
    8144:	e59f1190 	ldr	r1, [pc, #400]	; 82dc <hang+0x44>
    8148:	e5910000 	ldr	r0, [r1]
    814c:	e2800001 	add	r0, r0, #1
    8150:	e5810000 	str	r0, [r1]
    8154:	ea00007e 	b	8354 <SecondarySpin>

00008158 <.cpu0_exit_multicore_park>:
    8158:	e59f1180 	ldr	r1, [pc, #384]	; 82e0 <hang+0x48>
    815c:	e24cc008 	sub	ip, ip, #8
    8160:	e581c000 	str	ip, [r1]
    8164:	e59f1178 	ldr	r1, [pc, #376]	; 82e4 <hang+0x4c>
    8168:	e581b000 	str	fp, [r1]
    816c:	e3a00001 	mov	r0, #1
    8170:	e59f1164 	ldr	r1, [pc, #356]	; 82dc <hang+0x44>
    8174:	e5810000 	str	r0, [r1]
    8178:	e10f2000 	mrs	r2, CPSR
    817c:	e202201f 	and	r2, r2, #31
    8180:	e59f1160 	ldr	r1, [pc, #352]	; 82e8 <hang+0x50>
    8184:	e5812000 	str	r2, [r1]
    8188:	e59f115c 	ldr	r1, [pc, #348]	; 82ec <hang+0x54>
    818c:	ee100f10 	mrc	15, 0, r0, cr0, cr0, {0}
    8190:	e5810000 	str	r0, [r1]
    8194:	e0200000 	eor	r0, r0, r0
    8198:	e3a00006 	mov	r0, #6
    819c:	e3800080 	orr	r0, r0, #128	; 0x80
    81a0:	e3800102 	orr	r0, r0, #-2147483648	; 0x80000000
    81a4:	e59f1144 	ldr	r1, [pc, #324]	; 82f0 <hang+0x58>
    81a8:	e5810000 	str	r0, [r1]
    81ac:	e3a02202 	mov	r2, #536870912	; 0x20000000
    81b0:	e3a03101 	mov	r3, #1073741824	; 0x40000000
    81b4:	e59f1138 	ldr	r1, [pc, #312]	; 82f4 <hang+0x5c>
    81b8:	e59f0138 	ldr	r0, [pc, #312]	; 82f8 <hang+0x60>
    81bc:	e5900000 	ldr	r0, [r0]
    81c0:	e1510000 	cmp	r1, r0
    81c4:	0a000001 	beq	81d0 <.Is_a_Pi1>
    81c8:	e3a0243f 	mov	r2, #1056964608	; 0x3f000000
    81cc:	e3a03103 	mov	r3, #-1073741824	; 0xc0000000

000081d0 <.Is_a_Pi1>:
    81d0:	e59f1124 	ldr	r1, [pc, #292]	; 82fc <hang+0x64>
    81d4:	e5812000 	str	r2, [r1]
    81d8:	e59f1120 	ldr	r1, [pc, #288]	; 8300 <hang+0x68>
    81dc:	e5813000 	str	r3, [r1]
    81e0:	e59f011c 	ldr	r0, [pc, #284]	; 8304 <hang+0x6c>
    81e4:	e3a01000 	mov	r1, #0
    81e8:	e8b003fc 	ldm	r0!, {r2, r3, r4, r5, r6, r7, r8, r9}
    81ec:	e8a103fc 	stmia	r1!, {r2, r3, r4, r5, r6, r7, r8, r9}
    81f0:	e8b003fc 	ldm	r0!, {r2, r3, r4, r5, r6, r7, r8, r9}
    81f4:	e8a103fc 	stmia	r1!, {r2, r3, r4, r5, r6, r7, r8, r9}
    81f8:	e59f0108 	ldr	r0, [pc, #264]	; 8308 <hang+0x70>
    81fc:	e59f1108 	ldr	r1, [pc, #264]	; 830c <hang+0x74>
    8200:	e3a02000 	mov	r2, #0

00008204 <.clear_bss>:
    8204:	e1500001 	cmp	r0, r1
    8208:	aa000002 	bge	8218 <.clear_bss_exit>
    820c:	e5802000 	str	r2, [r0]
    8210:	e2800004 	add	r0, r0, #4
    8214:	eafffffa 	b	8204 <.clear_bss>

00008218 <.clear_bss_exit>:
    8218:	ee100f10 	mrc	15, 0, r0, cr0, cr0, {0}
    821c:	e59f1088 	ldr	r1, [pc, #136]	; 82ac <hang+0x14>
    8220:	e1510000 	cmp	r1, r0
    8224:	0a00001a 	beq	8294 <.NoMultiCoreSetup>
    8228:	e59f10b0 	ldr	r1, [pc, #176]	; 82e0 <hang+0x48>
    822c:	e5910000 	ldr	r0, [r1]
    8230:	e3a01902 	mov	r1, #32768	; 0x8000
    8234:	e1510000 	cmp	r1, r0
    8238:	1a000015 	bne	8294 <.NoMultiCoreSetup>
    823c:	e3a01101 	mov	r1, #1073741824	; 0x40000000
    8240:	e59f20c8 	ldr	r2, [pc, #200]	; 8310 <hang+0x78>
    8244:	e581209c 	str	r2, [r1, #156]	; 0x9c
    8248:	e320f004 	sev
    824c:	e59f3088 	ldr	r3, [pc, #136]	; 82dc <hang+0x44>

00008250 <.WaitCore1ACK>:
    8250:	e5931000 	ldr	r1, [r3]
    8254:	e3510002 	cmp	r1, #2
    8258:	1afffffc 	bne	8250 <.WaitCore1ACK>
    825c:	e3a01101 	mov	r1, #1073741824	; 0x40000000
    8260:	e59f20a8 	ldr	r2, [pc, #168]	; 8310 <hang+0x78>
    8264:	e58120ac 	str	r2, [r1, #172]	; 0xac
    8268:	e320f004 	sev

0000826c <.WaitCore2ACK>:
    826c:	e5931000 	ldr	r1, [r3]
    8270:	e3510003 	cmp	r1, #3
    8274:	1afffffc 	bne	826c <.WaitCore2ACK>
    8278:	e3a01101 	mov	r1, #1073741824	; 0x40000000
    827c:	e59f208c 	ldr	r2, [pc, #140]	; 8310 <hang+0x78>
    8280:	e58120bc 	str	r2, [r1, #188]	; 0xbc
    8284:	e320f004 	sev

00008288 <.WaitCore3ACK>:
    8288:	e5931000 	ldr	r1, [r3]
    828c:	e3510004 	cmp	r1, #4
    8290:	1afffffc 	bne	8288 <.WaitCore3ACK>

00008294 <.NoMultiCoreSetup>:
    8294:	eb00068e 	bl	9cd4 <main>

00008298 <hang>:
    8298:	eafffffe 	b	8298 <hang>
    829c:	0001e208 	.word	0x0001e208
    82a0:	0001e008 	.word	0x0001e008
    82a4:	0001de08 	.word	0x0001de08
    82a8:	00022208 	.word	0x00022208
    82ac:	410fb767 	.word	0x410fb767
    82b0:	00022808 	.word	0x00022808
    82b4:	00022608 	.word	0x00022608
    82b8:	00022408 	.word	0x00022408
    82bc:	00023808 	.word	0x00023808
    82c0:	00023e08 	.word	0x00023e08
    82c4:	00023c08 	.word	0x00023c08
    82c8:	00023a08 	.word	0x00023a08
    82cc:	00024e08 	.word	0x00024e08
    82d0:	00025408 	.word	0x00025408
    82d4:	00025208 	.word	0x00025208
    82d8:	00025008 	.word	0x00025008
    82dc:	0001b898 	.word	0x0001b898
    82e0:	0001b894 	.word	0x0001b894
    82e4:	0001b89c 	.word	0x0001b89c
    82e8:	0001b8a8 	.word	0x0001b8a8
    82ec:	0001b8a0 	.word	0x0001b8a0
    82f0:	0001b8a4 	.word	0x0001b8a4
    82f4:	4f54280a 	.word	0x4f54280a
    82f8:	20980040 	.word	0x20980040
    82fc:	0001b88c 	.word	0x0001b88c
    8300:	0001b890 	.word	0x0001b890
    8304:	00008314 	.word	0x00008314
    8308:	0001d8e0 	.word	0x0001d8e0
    830c:	0001dc04 	.word	0x0001dc04
    8310:	00008000 	.word	0x00008000

00008314 <_isr_Table>:
    8314:	e59ff018 	ldr	pc, [pc, #24]	; 8334 <_reset_h>
    8318:	e59ff018 	ldr	pc, [pc, #24]	; 8338 <_undefined_instruction_vector_h>
    831c:	e59ff018 	ldr	pc, [pc, #24]	; 833c <_software_interrupt_vector_h>
    8320:	e59ff018 	ldr	pc, [pc, #24]	; 8340 <_prefetch_abort_vector_h>
    8324:	e59ff018 	ldr	pc, [pc, #24]	; 8344 <_data_abort_vector_h>
    8328:	e59ff018 	ldr	pc, [pc, #24]	; 8348 <_unused_handler_h>
    832c:	e59ff018 	ldr	pc, [pc, #24]	; 834c <_interrupt_vector_h>
    8330:	e59ff018 	ldr	pc, [pc, #24]	; 8350 <_fast_interrupt_vector_h>

00008334 <_reset_h>:
    8334:	00008298 	.word	0x00008298

00008338 <_undefined_instruction_vector_h>:
    8338:	00008298 	.word	0x00008298

0000833c <_software_interrupt_vector_h>:
    833c:	00008298 	.word	0x00008298

00008340 <_prefetch_abort_vector_h>:
    8340:	00008298 	.word	0x00008298

00008344 <_data_abort_vector_h>:
    8344:	00008298 	.word	0x00008298

00008348 <_unused_handler_h>:
    8348:	00008298 	.word	0x00008298

0000834c <_interrupt_vector_h>:
    834c:	000083b8 	.word	0x000083b8

00008350 <_fast_interrupt_vector_h>:
    8350:	000083fc 	.word	0x000083fc

00008354 <SecondarySpin>:
    8354:	ee100fb0 	mrc	15, 0, r0, cr0, cr0, {5}
    8358:	e2100003 	ands	r0, r0, #3
    835c:	e59f5044 	ldr	r5, [pc, #68]	; 83a8 <atags+0x4>
    8360:	e5955000 	ldr	r5, [r5]
    8364:	e3a03000 	mov	r3, #0

00008368 <SecondarySpinLoop>:
    8368:	e320f002 	wfe
    836c:	e7954200 	ldr	r4, [r5, r0, lsl #4]
    8370:	e1540003 	cmp	r4, r3
    8374:	0afffffb 	beq	8368 <SecondarySpinLoop>
    8378:	e7854200 	str	r4, [r5, r0, lsl #4]
    837c:	e3a00000 	mov	r0, #0
    8380:	e59f1024 	ldr	r1, [pc, #36]	; 83ac <atags+0x8>
    8384:	e5911000 	ldr	r1, [r1]
    8388:	e59f2020 	ldr	r2, [pc, #32]	; 83b0 <atags+0xc>
    838c:	e5922000 	ldr	r2, [r2]
    8390:	e59fe01c 	ldr	lr, [pc, #28]	; 83b4 <atags+0x10>
    8394:	e12fff14 	bx	r4
    8398:	eaffffed 	b	8354 <SecondarySpin>

0000839c <mbox>:
    839c:	400000cc 	.word	0x400000cc

000083a0 <machid>:
    83a0:	00000c42 	.word	0x00000c42

000083a4 <atags>:
    83a4:	00000100 	.word	0x00000100
    83a8:	0000839c 	.word	0x0000839c
    83ac:	000083a0 	.word	0x000083a0
    83b0:	000083a4 	.word	0x000083a4
    83b4:	00008354 	.word	0x00008354

000083b8 <irq_handler_stub>:
    83b8:	e24ee004 	sub	lr, lr, #4
    83bc:	f96d0513 	srsdb	sp!, #19
    83c0:	f1020013 	cps	#19
    83c4:	e92d100f 	push	{r0, r1, r2, r3, ip}
    83c8:	e1a0100d 	mov	r1, sp
    83cc:	e2011004 	and	r1, r1, #4
    83d0:	e04dd001 	sub	sp, sp, r1
    83d4:	e92d4002 	push	{r1, lr}
    83d8:	e59f0060 	ldr	r0, [pc, #96]	; 8440 <no_fiqset+0x10>
    83dc:	e5900000 	ldr	r0, [r0]
    83e0:	e3500000 	cmp	r0, #0
    83e4:	0a000000 	beq	83ec <no_irqset>
    83e8:	e12fff30 	blx	r0

000083ec <no_irqset>:
    83ec:	e8bd4002 	pop	{r1, lr}
    83f0:	e08dd001 	add	sp, sp, r1
    83f4:	e8bd100f 	pop	{r0, r1, r2, r3, ip}
    83f8:	f8bd0a00 	rfeia	sp!

000083fc <fiq_handler_stub>:
    83fc:	e24ee004 	sub	lr, lr, #4
    8400:	f96d0513 	srsdb	sp!, #19
    8404:	f1020013 	cps	#19
    8408:	e92d100f 	push	{r0, r1, r2, r3, ip}
    840c:	e1a0100d 	mov	r1, sp
    8410:	e2011004 	and	r1, r1, #4
    8414:	e04dd001 	sub	sp, sp, r1
    8418:	e92d4002 	push	{r1, lr}
    841c:	e59f0020 	ldr	r0, [pc, #32]	; 8444 <no_fiqset+0x14>
    8420:	e5900000 	ldr	r0, [r0]
    8424:	e3500000 	cmp	r0, #0
    8428:	0a000000 	beq	8430 <no_fiqset>
    842c:	e12fff30 	blx	r0

00008430 <no_fiqset>:
    8430:	e8bd4002 	pop	{r1, lr}
    8434:	e08dd001 	add	sp, sp, r1
    8438:	e8bd100f 	pop	{r0, r1, r2, r3, ip}
    843c:	f8bd0a00 	rfeia	sp!
    8440:	0001b884 	.word	0x0001b884
    8444:	0001b888 	.word	0x0001b888

Disassembly of section .text:

00008448 <EnableInterrupts>:
    8448:	f1080080 	cpsie	i
    844c:	e12fff1e 	bx	lr

00008450 <DisableInterrupts>:
    8450:	f10c0080 	cpsid	i
    8454:	e12fff1e 	bx	lr

00008458 <ARMaddrToGPUaddr>:
    8458:	e59f1008 	ldr	r1, [pc, #8]	; 8468 <ARMaddrToGPUaddr+0x10>
    845c:	e5911000 	ldr	r1, [r1]
    8460:	e1800001 	orr	r0, r0, r1
    8464:	e12fff1e 	bx	lr
    8468:	0001b890 	.word	0x0001b890

0000846c <GPUaddrToARMaddr>:
    846c:	e59f1008 	ldr	r1, [pc, #8]	; 847c <GPUaddrToARMaddr+0x10>
    8470:	e5911000 	ldr	r1, [r1]
    8474:	e1c00001 	bic	r0, r0, r1
    8478:	e12fff1e 	bx	lr
    847c:	0001b890 	.word	0x0001b890

00008480 <getCoreID>:
    8480:	e3a00000 	mov	r0, #0
    8484:	ee101f10 	mrc	15, 0, r1, cr0, cr0, {0}
    8488:	e59f2010 	ldr	r2, [pc, #16]	; 84a0 <isARM6+0x8>
    848c:	e1520001 	cmp	r2, r1
    8490:	0a000000 	beq	8498 <isARM6>
    8494:	ee100fb0 	mrc	15, 0, r0, cr0, cr0, {5}

00008498 <isARM6>:
    8498:	e2000003 	and	r0, r0, #3
    849c:	e12fff1e 	bx	lr
    84a0:	410fb767 	.word	0x410fb767

000084a4 <CoreExecute>:
    84a4:	e59f3024 	ldr	r3, [pc, #36]	; 84d0 <CoreExecuteFail+0x8>
    84a8:	e5932000 	ldr	r2, [r3]
    84ac:	e1500002 	cmp	r0, r2
    84b0:	2a000004 	bcs	84c8 <CoreExecuteFail>
    84b4:	e59f3018 	ldr	r3, [pc, #24]	; 84d4 <CoreExecuteFail+0xc>
    84b8:	e7831200 	str	r1, [r3, r0, lsl #4]
    84bc:	e320f004 	sev
    84c0:	e3a00001 	mov	r0, #1
    84c4:	e12fff1e 	bx	lr

000084c8 <CoreExecuteFail>:
    84c8:	e3a00000 	mov	r0, #0
    84cc:	e12fff1e 	bx	lr
    84d0:	0001b898 	.word	0x0001b898
    84d4:	4000008c 	.word	0x4000008c

000084d8 <setIrqFuncAddress>:
    84d8:	f10c0080 	cpsid	i
    84dc:	e59f100c 	ldr	r1, [pc, #12]	; 84f0 <setIrqFuncAddress+0x18>
    84e0:	e5912000 	ldr	r2, [r1]
    84e4:	e5810000 	str	r0, [r1]
    84e8:	e1a00002 	mov	r0, r2
    84ec:	e12fff1e 	bx	lr
    84f0:	0001b884 	.word	0x0001b884

000084f4 <setFiqFuncAddress>:
    84f4:	f10c0040 	cpsid	f
    84f8:	e59f100c 	ldr	r1, [pc, #12]	; 850c <setFiqFuncAddress+0x18>
    84fc:	e5912000 	ldr	r2, [r1]
    8500:	e5810000 	str	r0, [r1]
    8504:	e1a00002 	mov	r0, r2
    8508:	e12fff1e 	bx	lr
    850c:	0001b888 	.word	0x0001b888

00008510 <PUT32>:
    8510:	e5801000 	str	r1, [r0]
    8514:	e12fff1e 	bx	lr

00008518 <GET32>:
    8518:	e5900000 	ldr	r0, [r0]
    851c:	e12fff1e 	bx	lr

00008520 <EL0_Timer_Frequency>:
    8520:	e3a01000 	mov	r1, #0
    8524:	ee1e0f10 	mrc	15, 0, r0, cr14, cr0, {0}
    8528:	e12fff1e 	bx	lr

0000852c <EL0_Timer_Set>:
    852c:	ee0e0f12 	mcr	15, 0, r0, cr14, cr2, {0}
    8530:	e12fff1e 	bx	lr

00008534 <EL0_Timer_Irq_Setup>:
    8534:	e3a02101 	mov	r2, #1073741824	; 0x40000000
    8538:	ee100fb0 	mrc	15, 0, r0, cr0, cr0, {5}
    853c:	e2100003 	ands	r0, r0, #3
    8540:	e1a00100 	lsl	r0, r0, #2
    8544:	e0803002 	add	r3, r0, r2
    8548:	e3a01102 	mov	r1, #-2147483648	; 0x80000000
    854c:	e5821008 	str	r1, [r2, #8]
    8550:	e5932040 	ldr	r2, [r3, #64]	; 0x40
    8554:	e3822002 	orr	r2, r2, #2
    8558:	e5832040 	str	r2, [r3, #64]	; 0x40
    855c:	e3a00001 	mov	r0, #1
    8560:	ee0e0f32 	mcr	15, 0, r0, cr14, cr2, {1}
    8564:	e12fff1e 	bx	lr

00008568 <taskInitialiseStack>:
    8568:	e2811004 	add	r1, r1, #4
    856c:	e5201004 	str	r1, [r0, #-4]!
    8570:	e59f3078 	ldr	r3, [pc, #120]	; 85f0 <taskInitialiseStack+0x88>
    8574:	e5201004 	str	r1, [r0, #-4]!
    8578:	e2803008 	add	r3, r0, #8
    857c:	e5203004 	str	r3, [r0, #-4]!
    8580:	e59f306c 	ldr	r3, [pc, #108]	; 85f4 <taskInitialiseStack+0x8c>
    8584:	e5203004 	str	r3, [r0, #-4]!
    8588:	e59f3068 	ldr	r3, [pc, #104]	; 85f8 <taskInitialiseStack+0x90>
    858c:	e5203004 	str	r3, [r0, #-4]!
    8590:	e59f3064 	ldr	r3, [pc, #100]	; 85fc <taskInitialiseStack+0x94>
    8594:	e5203004 	str	r3, [r0, #-4]!
    8598:	e59f3060 	ldr	r3, [pc, #96]	; 8600 <taskInitialiseStack+0x98>
    859c:	e5203004 	str	r3, [r0, #-4]!
    85a0:	e59f305c 	ldr	r3, [pc, #92]	; 8604 <taskInitialiseStack+0x9c>
    85a4:	e5203004 	str	r3, [r0, #-4]!
    85a8:	e59f3058 	ldr	r3, [pc, #88]	; 8608 <taskInitialiseStack+0xa0>
    85ac:	e5203004 	str	r3, [r0, #-4]!
    85b0:	e59f3054 	ldr	r3, [pc, #84]	; 860c <taskInitialiseStack+0xa4>
    85b4:	e5203004 	str	r3, [r0, #-4]!
    85b8:	e59f3050 	ldr	r3, [pc, #80]	; 8610 <taskInitialiseStack+0xa8>
    85bc:	e5203004 	str	r3, [r0, #-4]!
    85c0:	e3a03000 	mov	r3, #0
    85c4:	e5203004 	str	r3, [r0, #-4]!
    85c8:	e59f3044 	ldr	r3, [pc, #68]	; 8614 <taskInitialiseStack+0xac>
    85cc:	e5203004 	str	r3, [r0, #-4]!
    85d0:	e59f3040 	ldr	r3, [pc, #64]	; 8618 <taskInitialiseStack+0xb0>
    85d4:	e5203004 	str	r3, [r0, #-4]!
    85d8:	e59f303c 	ldr	r3, [pc, #60]	; 861c <taskInitialiseStack+0xb4>
    85dc:	e5203004 	str	r3, [r0, #-4]!
    85e0:	e5202004 	str	r2, [r0, #-4]!
    85e4:	e3a0301f 	mov	r3, #31
    85e8:	e5203004 	str	r3, [r0, #-4]!
    85ec:	e12fff1e 	bx	lr
    85f0:	aaaaaaaa 	.word	0xaaaaaaaa
    85f4:	12121212 	.word	0x12121212
    85f8:	11111111 	.word	0x11111111
    85fc:	10101010 	.word	0x10101010
    8600:	09090909 	.word	0x09090909
    8604:	08080808 	.word	0x08080808
    8608:	07070707 	.word	0x07070707
    860c:	06060606 	.word	0x06060606
    8610:	05050505 	.word	0x05050505
    8614:	03030303 	.word	0x03030303
    8618:	02020202 	.word	0x02020202
    861c:	01010101 	.word	0x01010101

00008620 <enable_mmu_tables>:
    8620:	ee020f10 	mcr	15, 0, r0, cr2, cr0, {0}
    8624:	ee021f30 	mcr	15, 0, r1, cr2, cr0, {1}
    8628:	ee120f50 	mrc	15, 0, r0, cr2, cr0, {2}
    862c:	e3800001 	orr	r0, r0, #1
    8630:	ee020f50 	mcr	15, 0, r0, cr2, cr0, {2}
    8634:	e3e00000 	mvn	r0, #0
    8638:	ee030f10 	mcr	15, 0, r0, cr3, cr0, {0}
    863c:	ee110f30 	mrc	15, 0, r0, cr1, cr0, {1}
    8640:	e3800040 	orr	r0, r0, #64	; 0x40
    8644:	ee010f30 	mcr	15, 0, r0, cr1, cr0, {1}
    8648:	e3a00001 	mov	r0, #1
    864c:	ee030f10 	mcr	15, 0, r0, cr3, cr0, {0}
    8650:	ee110f10 	mrc	15, 0, r0, cr1, cr0, {0}
    8654:	e3800001 	orr	r0, r0, #1
    8658:	e3800b02 	orr	r0, r0, #2048	; 0x800
    865c:	e3800004 	orr	r0, r0, #4
    8660:	e3800a01 	orr	r0, r0, #4096	; 0x1000
    8664:	ee010f10 	mcr	15, 0, r0, cr1, cr0, {0}
    8668:	e3a00000 	mov	r0, #0
    866c:	ee070f9a 	mcr	15, 0, r0, cr7, cr10, {4}
    8670:	e12fff1e 	bx	lr

00008674 <semaphore_take>:
    8674:	e1901f9f 	ldrex	r1, [r0]
    8678:	e3510000 	cmp	r1, #0
    867c:	1afffffc 	bne	8674 <semaphore_take>
    8680:	e3a02001 	mov	r2, #1
    8684:	e1803f92 	strex	r3, r2, [r0]
    8688:	e3530000 	cmp	r3, #0
    868c:	1afffff8 	bne	8674 <semaphore_take>
    8690:	e3a00000 	mov	r0, #0
    8694:	ee070f9a 	mcr	15, 0, r0, cr7, cr10, {4}
    8698:	e12fff1e 	bx	lr

0000869c <semaphore_give>:
    869c:	e3a01000 	mov	r1, #0
    86a0:	e5801000 	str	r1, [r0]
    86a4:	e3a00000 	mov	r0, #0
    86a8:	ee070f9a 	mcr	15, 0, r0, cr7, cr10, {4}
    86ac:	e12fff1e 	bx	lr

000086b0 <mailbox_tag_message.constprop.5>:
    86b0:	e92d000e 	push	{r1, r2, r3}
    86b4:	e3a01020 	mov	r1, #32
    86b8:	e3a02000 	mov	r2, #0
    86bc:	e92d4010 	push	{r4, lr}
    86c0:	e24dd03c 	sub	sp, sp, #60	; 0x3c
    86c4:	e59d004c 	ldr	r0, [sp, #76]	; 0x4c
    86c8:	e28d4017 	add	r4, sp, #23
    86cc:	e3c4400f 	bic	r4, r4, #15
    86d0:	e28d3048 	add	r3, sp, #72	; 0x48
    86d4:	e59dc048 	ldr	ip, [sp, #72]	; 0x48
    86d8:	e58d3004 	str	r3, [sp, #4]
    86dc:	e584000c 	str	r0, [r4, #12]
    86e0:	e5841000 	str	r1, [r4]
    86e4:	e59d0050 	ldr	r0, [sp, #80]	; 0x50
    86e8:	e59d1054 	ldr	r1, [sp, #84]	; 0x54
    86ec:	e59d3058 	ldr	r3, [sp, #88]	; 0x58
    86f0:	e584c008 	str	ip, [r4, #8]
    86f4:	e1c401f0 	strd	r0, [r4, #16]
    86f8:	e5843018 	str	r3, [r4, #24]
    86fc:	e584201c 	str	r2, [r4, #28]
    8700:	e5842004 	str	r2, [r4, #4]
    8704:	ee074f3e 	mcr	15, 0, r4, cr7, cr14, {1}
    8708:	e1a00004 	mov	r0, r4
    870c:	ebffff51 	bl	8458 <ARMaddrToGPUaddr>
    8710:	e59f3060 	ldr	r3, [pc, #96]	; 8778 <mailbox_tag_message.constprop.5+0xc8>
    8714:	e3c0000f 	bic	r0, r0, #15
    8718:	e5932000 	ldr	r2, [r3]
    871c:	e3800008 	orr	r0, r0, #8
    8720:	e2822b2e 	add	r2, r2, #47104	; 0xb800
    8724:	e2822080 	add	r2, r2, #128	; 0x80
    8728:	e5923038 	ldr	r3, [r2, #56]	; 0x38
    872c:	e3530000 	cmp	r3, #0
    8730:	bafffffc 	blt	8728 <mailbox_tag_message.constprop.5+0x78>
    8734:	e5820020 	str	r0, [r2, #32]
    8738:	e5923018 	ldr	r3, [r2, #24]
    873c:	e3130101 	tst	r3, #1073741824	; 0x40000000
    8740:	1afffffc 	bne	8738 <mailbox_tag_message.constprop.5+0x88>
    8744:	e5923000 	ldr	r3, [r2]
    8748:	e203300f 	and	r3, r3, #15
    874c:	e3530008 	cmp	r3, #8
    8750:	1afffff8 	bne	8738 <mailbox_tag_message.constprop.5+0x88>
    8754:	ee074f3e 	mcr	15, 0, r4, cr7, cr14, {1}
    8758:	e5940004 	ldr	r0, [r4, #4]
    875c:	e2400102 	sub	r0, r0, #-2147483648	; 0x80000000
    8760:	e16f0f10 	clz	r0, r0
    8764:	e1a002a0 	lsr	r0, r0, #5
    8768:	e28dd03c 	add	sp, sp, #60	; 0x3c
    876c:	e8bd4010 	pop	{r4, lr}
    8770:	e28dd00c 	add	sp, sp, #12
    8774:	e12fff1e 	bx	lr
    8778:	0001b88c 	.word	0x0001b88c

0000877c <mailbox_tag_message.constprop.6>:
    877c:	e92d000e 	push	{r1, r2, r3}
    8780:	e3a0101c 	mov	r1, #28
    8784:	e3a02000 	mov	r2, #0
    8788:	e92d4030 	push	{r4, r5, lr}
    878c:	e24dd038 	sub	sp, sp, #56	; 0x38
    8790:	e28d4017 	add	r4, sp, #23
    8794:	e3c4400f 	bic	r4, r4, #15
    8798:	e28d3048 	add	r3, sp, #72	; 0x48
    879c:	e59dc04c 	ldr	ip, [sp, #76]	; 0x4c
    87a0:	e1a05000 	mov	r5, r0
    87a4:	e58d3004 	str	r3, [sp, #4]
    87a8:	e59d0048 	ldr	r0, [sp, #72]	; 0x48
    87ac:	e5841000 	str	r1, [r4]
    87b0:	e59d3054 	ldr	r3, [sp, #84]	; 0x54
    87b4:	e59d1050 	ldr	r1, [sp, #80]	; 0x50
    87b8:	e584c00c 	str	ip, [r4, #12]
    87bc:	e5840008 	str	r0, [r4, #8]
    87c0:	e5841010 	str	r1, [r4, #16]
    87c4:	e5843014 	str	r3, [r4, #20]
    87c8:	e5842018 	str	r2, [r4, #24]
    87cc:	e5842004 	str	r2, [r4, #4]
    87d0:	ee074f3e 	mcr	15, 0, r4, cr7, cr14, {1}
    87d4:	e1a00004 	mov	r0, r4
    87d8:	ebffff1e 	bl	8458 <ARMaddrToGPUaddr>
    87dc:	e59f3088 	ldr	r3, [pc, #136]	; 886c <mailbox_tag_message.constprop.6+0xf0>
    87e0:	e3c0000f 	bic	r0, r0, #15
    87e4:	e5933000 	ldr	r3, [r3]
    87e8:	e3800008 	orr	r0, r0, #8
    87ec:	e2833b2e 	add	r3, r3, #47104	; 0xb800
    87f0:	e2833080 	add	r3, r3, #128	; 0x80
    87f4:	e5932038 	ldr	r2, [r3, #56]	; 0x38
    87f8:	e3520000 	cmp	r2, #0
    87fc:	bafffffc 	blt	87f4 <mailbox_tag_message.constprop.6+0x78>
    8800:	e5830020 	str	r0, [r3, #32]
    8804:	e5930018 	ldr	r0, [r3, #24]
    8808:	e2100101 	ands	r0, r0, #1073741824	; 0x40000000
    880c:	1afffffc 	bne	8804 <mailbox_tag_message.constprop.6+0x88>
    8810:	e5932000 	ldr	r2, [r3]
    8814:	e202200f 	and	r2, r2, #15
    8818:	e3520008 	cmp	r2, #8
    881c:	1afffff8 	bne	8804 <mailbox_tag_message.constprop.6+0x88>
    8820:	ee074f3e 	mcr	15, 0, r4, cr7, cr14, {1}
    8824:	e5943004 	ldr	r3, [r4, #4]
    8828:	e3530102 	cmp	r3, #-2147483648	; 0x80000000
    882c:	0a000003 	beq	8840 <mailbox_tag_message.constprop.6+0xc4>
    8830:	e28dd038 	add	sp, sp, #56	; 0x38
    8834:	e8bd4030 	pop	{r4, r5, lr}
    8838:	e28dd00c 	add	sp, sp, #12
    883c:	e12fff1e 	bx	lr
    8840:	e3550000 	cmp	r5, #0
    8844:	03a00001 	moveq	r0, #1
    8848:	0afffff8 	beq	8830 <mailbox_tag_message.constprop.6+0xb4>
    884c:	e1c400d8 	ldrd	r0, [r4, #8]
    8850:	e1c421d0 	ldrd	r2, [r4, #16]
    8854:	e885000f 	stm	r5, {r0, r1, r2, r3}
    8858:	e3a00001 	mov	r0, #1
    885c:	e28dd038 	add	sp, sp, #56	; 0x38
    8860:	e8bd4030 	pop	{r4, r5, lr}
    8864:	e28dd00c 	add	sp, sp, #12
    8868:	e12fff1e 	bx	lr
    886c:	0001b88c 	.word	0x0001b88c

00008870 <mailbox_tag_message.constprop.7>:
    8870:	e92d000e 	push	{r1, r2, r3}
    8874:	e3a0c020 	mov	ip, #32
    8878:	e3a02000 	mov	r2, #0
    887c:	e92d4030 	push	{r4, r5, lr}
    8880:	e24dd038 	sub	sp, sp, #56	; 0x38
    8884:	e59d104c 	ldr	r1, [sp, #76]	; 0x4c
    8888:	e28d4017 	add	r4, sp, #23
    888c:	e3c4400f 	bic	r4, r4, #15
    8890:	e584100c 	str	r1, [r4, #12]
    8894:	e59d1048 	ldr	r1, [sp, #72]	; 0x48
    8898:	e28d3048 	add	r3, sp, #72	; 0x48
    889c:	e1a05000 	mov	r5, r0
    88a0:	e58d3004 	str	r3, [sp, #4]
    88a4:	e59d0050 	ldr	r0, [sp, #80]	; 0x50
    88a8:	e5841008 	str	r1, [r4, #8]
    88ac:	e59d3058 	ldr	r3, [sp, #88]	; 0x58
    88b0:	e59d1054 	ldr	r1, [sp, #84]	; 0x54
    88b4:	e584c000 	str	ip, [r4]
    88b8:	e1c401f0 	strd	r0, [r4, #16]
    88bc:	e5843018 	str	r3, [r4, #24]
    88c0:	e584201c 	str	r2, [r4, #28]
    88c4:	e5842004 	str	r2, [r4, #4]
    88c8:	ee074f3e 	mcr	15, 0, r4, cr7, cr14, {1}
    88cc:	e1a00004 	mov	r0, r4
    88d0:	ebfffee0 	bl	8458 <ARMaddrToGPUaddr>
    88d4:	e59f308c 	ldr	r3, [pc, #140]	; 8968 <mailbox_tag_message.constprop.7+0xf8>
    88d8:	e3c0000f 	bic	r0, r0, #15
    88dc:	e5933000 	ldr	r3, [r3]
    88e0:	e3800008 	orr	r0, r0, #8
    88e4:	e2833b2e 	add	r3, r3, #47104	; 0xb800
    88e8:	e2833080 	add	r3, r3, #128	; 0x80
    88ec:	e5932038 	ldr	r2, [r3, #56]	; 0x38
    88f0:	e3520000 	cmp	r2, #0
    88f4:	bafffffc 	blt	88ec <mailbox_tag_message.constprop.7+0x7c>
    88f8:	e5830020 	str	r0, [r3, #32]
    88fc:	e5930018 	ldr	r0, [r3, #24]
    8900:	e2100101 	ands	r0, r0, #1073741824	; 0x40000000
    8904:	1afffffc 	bne	88fc <mailbox_tag_message.constprop.7+0x8c>
    8908:	e5932000 	ldr	r2, [r3]
    890c:	e202200f 	and	r2, r2, #15
    8910:	e3520008 	cmp	r2, #8
    8914:	1afffff8 	bne	88fc <mailbox_tag_message.constprop.7+0x8c>
    8918:	ee074f3e 	mcr	15, 0, r4, cr7, cr14, {1}
    891c:	e5943004 	ldr	r3, [r4, #4]
    8920:	e3530102 	cmp	r3, #-2147483648	; 0x80000000
    8924:	0a000003 	beq	8938 <mailbox_tag_message.constprop.7+0xc8>
    8928:	e28dd038 	add	sp, sp, #56	; 0x38
    892c:	e8bd4030 	pop	{r4, r5, lr}
    8930:	e28dd00c 	add	sp, sp, #12
    8934:	e12fff1e 	bx	lr
    8938:	e3550000 	cmp	r5, #0
    893c:	0a000004 	beq	8954 <mailbox_tag_message.constprop.7+0xe4>
    8940:	e284000c 	add	r0, r4, #12
    8944:	e594c008 	ldr	ip, [r4, #8]
    8948:	e890000f 	ldm	r0, {r0, r1, r2, r3}
    894c:	e985000f 	stmib	r5, {r0, r1, r2, r3}
    8950:	e585c000 	str	ip, [r5]
    8954:	e3a00001 	mov	r0, #1
    8958:	e28dd038 	add	sp, sp, #56	; 0x38
    895c:	e8bd4030 	pop	{r4, r5, lr}
    8960:	e28dd00c 	add	sp, sp, #12
    8964:	e12fff1e 	bx	lr
    8968:	0001b88c 	.word	0x0001b88c

0000896c <RPi_CpuIdString>:
    896c:	e59f3044 	ldr	r3, [pc, #68]	; 89b8 <RPi_CpuIdString+0x4c>
    8970:	e59f2044 	ldr	r2, [pc, #68]	; 89bc <RPi_CpuIdString+0x50>
    8974:	e1d330b0 	ldrh	r3, [r3]
    8978:	e1a03223 	lsr	r3, r3, #4
    897c:	e1530002 	cmp	r3, r2
    8980:	0a000008 	beq	89a8 <RPi_CpuIdString+0x3c>
    8984:	e28220fc 	add	r2, r2, #252	; 0xfc
    8988:	e1530002 	cmp	r3, r2
    898c:	0a000007 	beq	89b0 <RPi_CpuIdString+0x44>
    8990:	e59f1028 	ldr	r1, [pc, #40]	; 89c0 <RPi_CpuIdString+0x54>
    8994:	e59f2028 	ldr	r2, [pc, #40]	; 89c4 <RPi_CpuIdString+0x58>
    8998:	e1530001 	cmp	r3, r1
    899c:	e59f0024 	ldr	r0, [pc, #36]	; 89c8 <RPi_CpuIdString+0x5c>
    89a0:	11a00002 	movne	r0, r2
    89a4:	e12fff1e 	bx	lr
    89a8:	e59f001c 	ldr	r0, [pc, #28]	; 89cc <RPi_CpuIdString+0x60>
    89ac:	e12fff1e 	bx	lr
    89b0:	e59f0018 	ldr	r0, [pc, #24]	; 89d0 <RPi_CpuIdString+0x64>
    89b4:	e12fff1e 	bx	lr
    89b8:	0001b8a0 	.word	0x0001b8a0
    89bc:	00000c07 	.word	0x00000c07
    89c0:	00000b76 	.word	0x00000b76
    89c4:	00012074 	.word	0x00012074
    89c8:	0001204c 	.word	0x0001204c
    89cc:	0001205c 	.word	0x0001205c
    89d0:	00012068 	.word	0x00012068

000089d4 <gpio_setup>:
    89d4:	e3500035 	cmp	r0, #53	; 0x35
    89d8:	93510007 	cmpls	r1, #7
    89dc:	e1a03000 	mov	r3, r0
    89e0:	93a00001 	movls	r0, #1
    89e4:	83a00000 	movhi	r0, #0
    89e8:	812fff1e 	bxhi	lr
    89ec:	e92d4070 	push	{r4, r5, r6, lr}
    89f0:	e3a06007 	mov	r6, #7
    89f4:	e59f4030 	ldr	r4, [pc, #48]	; 8a2c <gpio_setup+0x58>
    89f8:	e59f2030 	ldr	r2, [pc, #48]	; 8a30 <gpio_setup+0x5c>
    89fc:	e0854493 	umull	r4, r5, r3, r4
    8a00:	e592c000 	ldr	ip, [r2]
    8a04:	e1a0e1a5 	lsr	lr, r5, #3
    8a08:	e08e210e 	add	r2, lr, lr, lsl #2
    8a0c:	e28cc602 	add	ip, ip, #2097152	; 0x200000
    8a10:	e0433082 	sub	r3, r3, r2, lsl #1
    8a14:	e79c210e 	ldr	r2, [ip, lr, lsl #2]
    8a18:	e0833083 	add	r3, r3, r3, lsl #1
    8a1c:	e1c22316 	bic	r2, r2, r6, lsl r3
    8a20:	e1823311 	orr	r3, r2, r1, lsl r3
    8a24:	e78c310e 	str	r3, [ip, lr, lsl #2]
    8a28:	e8bd8070 	pop	{r4, r5, r6, pc}
    8a2c:	cccccccd 	.word	0xcccccccd
    8a30:	0001b88c 	.word	0x0001b88c

00008a34 <gpio_output>:
    8a34:	e3500035 	cmp	r0, #53	; 0x35
    8a38:	8a00000c 	bhi	8a70 <gpio_output+0x3c>
    8a3c:	e3a02001 	mov	r2, #1
    8a40:	e59f3030 	ldr	r3, [pc, #48]	; 8a78 <gpio_output+0x44>
    8a44:	e3510000 	cmp	r1, #0
    8a48:	e5933000 	ldr	r3, [r3]
    8a4c:	e200101f 	and	r1, r0, #31
    8a50:	e2833602 	add	r3, r3, #2097152	; 0x200000
    8a54:	e1a02112 	lsl	r2, r2, r1
    8a58:	1283301c 	addne	r3, r3, #28
    8a5c:	02833028 	addeq	r3, r3, #40	; 0x28
    8a60:	e1a002a0 	lsr	r0, r0, #5
    8a64:	e7832100 	str	r2, [r3, r0, lsl #2]
    8a68:	e3a00001 	mov	r0, #1
    8a6c:	e12fff1e 	bx	lr
    8a70:	e3a00000 	mov	r0, #0
    8a74:	e12fff1e 	bx	lr
    8a78:	0001b88c 	.word	0x0001b88c

00008a7c <gpio_input>:
    8a7c:	e3500035 	cmp	r0, #53	; 0x35
    8a80:	8a00000c 	bhi	8ab8 <gpio_input+0x3c>
    8a84:	e3a02001 	mov	r2, #1
    8a88:	e59f3030 	ldr	r3, [pc, #48]	; 8ac0 <gpio_input+0x44>
    8a8c:	e1a012a0 	lsr	r1, r0, #5
    8a90:	e5933000 	ldr	r3, [r3]
    8a94:	e200001f 	and	r0, r0, #31
    8a98:	e0833101 	add	r3, r3, r1, lsl #2
    8a9c:	e2833602 	add	r3, r3, #2097152	; 0x200000
    8aa0:	e2833030 	add	r3, r3, #48	; 0x30
    8aa4:	e5933004 	ldr	r3, [r3, #4]
    8aa8:	e0133012 	ands	r3, r3, r2, lsl r0
    8aac:	11a00002 	movne	r0, r2
    8ab0:	03a00000 	moveq	r0, #0
    8ab4:	e12fff1e 	bx	lr
    8ab8:	e3a00000 	mov	r0, #0
    8abc:	e12fff1e 	bx	lr
    8ac0:	0001b88c 	.word	0x0001b88c

00008ac4 <gpio_checkEvent>:
    8ac4:	e3500035 	cmp	r0, #53	; 0x35
    8ac8:	8a00000b 	bhi	8afc <gpio_checkEvent+0x38>
    8acc:	e3a01001 	mov	r1, #1
    8ad0:	e59f302c 	ldr	r3, [pc, #44]	; 8b04 <gpio_checkEvent+0x40>
    8ad4:	e1a022a0 	lsr	r2, r0, #5
    8ad8:	e5933000 	ldr	r3, [r3]
    8adc:	e2822010 	add	r2, r2, #16
    8ae0:	e2833602 	add	r3, r3, #2097152	; 0x200000
    8ae4:	e7933102 	ldr	r3, [r3, r2, lsl #2]
    8ae8:	e200001f 	and	r0, r0, #31
    8aec:	e0133011 	ands	r3, r3, r1, lsl r0
    8af0:	11a00001 	movne	r0, r1
    8af4:	03a00000 	moveq	r0, #0
    8af8:	e12fff1e 	bx	lr
    8afc:	e3a00000 	mov	r0, #0
    8b00:	e12fff1e 	bx	lr
    8b04:	0001b88c 	.word	0x0001b88c

00008b08 <gpio_clearEvent>:
    8b08:	e3500035 	cmp	r0, #53	; 0x35
    8b0c:	8a00000a 	bhi	8b3c <gpio_clearEvent+0x34>
    8b10:	e3a02001 	mov	r2, #1
    8b14:	e59f3028 	ldr	r3, [pc, #40]	; 8b44 <gpio_clearEvent+0x3c>
    8b18:	e200c01f 	and	ip, r0, #31
    8b1c:	e5931000 	ldr	r1, [r3]
    8b20:	e1a032a0 	lsr	r3, r0, #5
    8b24:	e2811602 	add	r1, r1, #2097152	; 0x200000
    8b28:	e1a00c12 	lsl	r0, r2, ip
    8b2c:	e2833010 	add	r3, r3, #16
    8b30:	e7810103 	str	r0, [r1, r3, lsl #2]
    8b34:	e1a00002 	mov	r0, r2
    8b38:	e12fff1e 	bx	lr
    8b3c:	e3a00000 	mov	r0, #0
    8b40:	e12fff1e 	bx	lr
    8b44:	0001b88c 	.word	0x0001b88c

00008b48 <gpio_edgeDetect>:
    8b48:	e3500035 	cmp	r0, #53	; 0x35
    8b4c:	8a000012 	bhi	8b9c <gpio_edgeDetect+0x54>
    8b50:	e3a0c001 	mov	ip, #1
    8b54:	e59f3048 	ldr	r3, [pc, #72]	; 8ba4 <gpio_edgeDetect+0x5c>
    8b58:	e3510000 	cmp	r1, #0
    8b5c:	e5933000 	ldr	r3, [r3]
    8b60:	e200101f 	and	r1, r0, #31
    8b64:	e2833602 	add	r3, r3, #2097152	; 0x200000
    8b68:	e1a0111c 	lsl	r1, ip, r1
    8b6c:	1a000006 	bne	8b8c <gpio_edgeDetect+0x44>
    8b70:	e3520000 	cmp	r2, #0
    8b74:	12833088 	addne	r3, r3, #136	; 0x88
    8b78:	02833058 	addeq	r3, r3, #88	; 0x58
    8b7c:	e1a002a0 	lsr	r0, r0, #5
    8b80:	e7831100 	str	r1, [r3, r0, lsl #2]
    8b84:	e3a00001 	mov	r0, #1
    8b88:	e12fff1e 	bx	lr
    8b8c:	e3520000 	cmp	r2, #0
    8b90:	1283307c 	addne	r3, r3, #124	; 0x7c
    8b94:	0283304c 	addeq	r3, r3, #76	; 0x4c
    8b98:	eafffff7 	b	8b7c <gpio_edgeDetect+0x34>
    8b9c:	e3a00000 	mov	r0, #0
    8ba0:	e12fff1e 	bx	lr
    8ba4:	0001b88c 	.word	0x0001b88c

00008ba8 <gpio_fixResistor>:
    8ba8:	e3500035 	cmp	r0, #53	; 0x35
    8bac:	93510002 	cmpls	r1, #2
    8bb0:	e92d47f0 	push	{r4, r5, r6, r7, r8, r9, sl, lr}
    8bb4:	e1a0a000 	mov	sl, r0
    8bb8:	e24dd008 	sub	sp, sp, #8
    8bbc:	93a00001 	movls	r0, #1
    8bc0:	83a00000 	movhi	r0, #0
    8bc4:	9a000001 	bls	8bd0 <gpio_fixResistor+0x28>
    8bc8:	e28dd008 	add	sp, sp, #8
    8bcc:	e8bd87f0 	pop	{r4, r5, r6, r7, r8, r9, sl, pc}
    8bd0:	e3a08001 	mov	r8, #1
    8bd4:	e59f30d8 	ldr	r3, [pc, #216]	; 8cb4 <gpio_fixResistor+0x10c>
    8bd8:	e20a201f 	and	r2, sl, #31
    8bdc:	e5933000 	ldr	r3, [r3]
    8be0:	e1a08218 	lsl	r8, r8, r2
    8be4:	e283e602 	add	lr, r3, #2097152	; 0x200000
    8be8:	e58e1094 	str	r1, [lr, #148]	; 0x94
    8bec:	e2833a03 	add	r3, r3, #12288	; 0x3000
    8bf0:	e1a0a2aa 	lsr	sl, sl, #5
    8bf4:	e5932008 	ldr	r2, [r3, #8]
    8bf8:	e593c004 	ldr	ip, [r3, #4]
    8bfc:	e5931008 	ldr	r1, [r3, #8]
    8c00:	e1520001 	cmp	r2, r1
    8c04:	1afffffa 	bne	8bf4 <gpio_fixResistor+0x4c>
    8c08:	e3a06000 	mov	r6, #0
    8c0c:	e186400c 	orr	r4, r6, ip
    8c10:	e2946002 	adds	r6, r4, #2
    8c14:	e2a27000 	adc	r7, r2, #0
    8c18:	e1cd60f0 	strd	r6, [sp]
    8c1c:	e5932008 	ldr	r2, [r3, #8]
    8c20:	e593c004 	ldr	ip, [r3, #4]
    8c24:	e5931008 	ldr	r1, [r3, #8]
    8c28:	e1520001 	cmp	r2, r1
    8c2c:	1afffffa 	bne	8c1c <gpio_fixResistor+0x74>
    8c30:	e3a04000 	mov	r4, #0
    8c34:	e184600c 	orr	r6, r4, ip
    8c38:	e1cd40d0 	ldrd	r4, [sp]
    8c3c:	e1550002 	cmp	r5, r2
    8c40:	01540006 	cmpeq	r4, r6
    8c44:	8afffff4 	bhi	8c1c <gpio_fixResistor+0x74>
    8c48:	e08ea10a 	add	sl, lr, sl, lsl #2
    8c4c:	e58a8098 	str	r8, [sl, #152]	; 0x98
    8c50:	e5932008 	ldr	r2, [r3, #8]
    8c54:	e593c004 	ldr	ip, [r3, #4]
    8c58:	e5931008 	ldr	r1, [r3, #8]
    8c5c:	e1520001 	cmp	r2, r1
    8c60:	1afffffa 	bne	8c50 <gpio_fixResistor+0xa8>
    8c64:	e3a04000 	mov	r4, #0
    8c68:	e184600c 	orr	r6, r4, ip
    8c6c:	e2964002 	adds	r4, r6, #2
    8c70:	e2a25000 	adc	r5, r2, #0
    8c74:	e1a06004 	mov	r6, r4
    8c78:	e1a07005 	mov	r7, r5
    8c7c:	e5932008 	ldr	r2, [r3, #8]
    8c80:	e593c004 	ldr	ip, [r3, #4]
    8c84:	e5931008 	ldr	r1, [r3, #8]
    8c88:	e1520001 	cmp	r2, r1
    8c8c:	1afffffa 	bne	8c7c <gpio_fixResistor+0xd4>
    8c90:	e3a04000 	mov	r4, #0
    8c94:	e1570002 	cmp	r7, r2
    8c98:	e184800c 	orr	r8, r4, ip
    8c9c:	01560008 	cmpeq	r6, r8
    8ca0:	8afffff5 	bhi	8c7c <gpio_fixResistor+0xd4>
    8ca4:	e58e4094 	str	r4, [lr, #148]	; 0x94
    8ca8:	e58a4098 	str	r4, [sl, #152]	; 0x98
    8cac:	e28dd008 	add	sp, sp, #8
    8cb0:	e8bd87f0 	pop	{r4, r5, r6, r7, r8, r9, sl, pc}
    8cb4:	0001b88c 	.word	0x0001b88c

00008cb8 <timer_getTickCount64>:
    8cb8:	e59f3038 	ldr	r3, [pc, #56]	; 8cf8 <timer_getTickCount64+0x40>
    8cbc:	e92d0030 	push	{r4, r5}
    8cc0:	e5933000 	ldr	r3, [r3]
    8cc4:	e2833a03 	add	r3, r3, #12288	; 0x3000
    8cc8:	e5931008 	ldr	r1, [r3, #8]
    8ccc:	e5930004 	ldr	r0, [r3, #4]
    8cd0:	e5932008 	ldr	r2, [r3, #8]
    8cd4:	e1520001 	cmp	r2, r1
    8cd8:	1afffffa 	bne	8cc8 <timer_getTickCount64+0x10>
    8cdc:	e3a04000 	mov	r4, #0
    8ce0:	e1a05002 	mov	r5, r2
    8ce4:	e1842000 	orr	r2, r4, r0
    8ce8:	e1a01005 	mov	r1, r5
    8cec:	e8bd0030 	pop	{r4, r5}
    8cf0:	e1a00002 	mov	r0, r2
    8cf4:	e12fff1e 	bx	lr
    8cf8:	0001b88c 	.word	0x0001b88c

00008cfc <timer_wait>:
    8cfc:	e92d0ff0 	push	{r4, r5, r6, r7, r8, r9, sl, fp}
    8d00:	e1a08000 	mov	r8, r0
    8d04:	e1a09001 	mov	r9, r1
    8d08:	e59f3058 	ldr	r3, [pc, #88]	; 8d68 <timer_wait+0x6c>
    8d0c:	e5933000 	ldr	r3, [r3]
    8d10:	e2833a03 	add	r3, r3, #12288	; 0x3000
    8d14:	e5932008 	ldr	r2, [r3, #8]
    8d18:	e593c004 	ldr	ip, [r3, #4]
    8d1c:	e5931008 	ldr	r1, [r3, #8]
    8d20:	e1520001 	cmp	r2, r1
    8d24:	1afffffa 	bne	8d14 <timer_wait+0x18>
    8d28:	e3a00000 	mov	r0, #0
    8d2c:	e180600c 	orr	r6, r0, ip
    8d30:	e096a008 	adds	sl, r6, r8
    8d34:	e0a2b009 	adc	fp, r2, r9
    8d38:	e5932008 	ldr	r2, [r3, #8]
    8d3c:	e593c004 	ldr	ip, [r3, #4]
    8d40:	e5931008 	ldr	r1, [r3, #8]
    8d44:	e1520001 	cmp	r2, r1
    8d48:	1afffffa 	bne	8d38 <timer_wait+0x3c>
    8d4c:	e3a00000 	mov	r0, #0
    8d50:	e15b0002 	cmp	fp, r2
    8d54:	e180400c 	orr	r4, r0, ip
    8d58:	015a0004 	cmpeq	sl, r4
    8d5c:	8afffff5 	bhi	8d38 <timer_wait+0x3c>
    8d60:	e8bd0ff0 	pop	{r4, r5, r6, r7, r8, r9, sl, fp}
    8d64:	e12fff1e 	bx	lr
    8d68:	0001b88c 	.word	0x0001b88c

00008d6c <tick_difference>:
    8d6c:	e0520000 	subs	r0, r2, r0
    8d70:	e0c31001 	sbc	r1, r3, r1
    8d74:	e12fff1e 	bx	lr

00008d78 <mailbox_write>:
    8d78:	e3500009 	cmp	r0, #9
    8d7c:	8a00000b 	bhi	8db0 <mailbox_write+0x38>
    8d80:	e59f3030 	ldr	r3, [pc, #48]	; 8db8 <mailbox_write+0x40>
    8d84:	e3c1100f 	bic	r1, r1, #15
    8d88:	e5932000 	ldr	r2, [r3]
    8d8c:	e1800001 	orr	r0, r0, r1
    8d90:	e2822b2e 	add	r2, r2, #47104	; 0xb800
    8d94:	e2822080 	add	r2, r2, #128	; 0x80
    8d98:	e5923038 	ldr	r3, [r2, #56]	; 0x38
    8d9c:	e3530000 	cmp	r3, #0
    8da0:	bafffffc 	blt	8d98 <mailbox_write+0x20>
    8da4:	e5820020 	str	r0, [r2, #32]
    8da8:	e3a00001 	mov	r0, #1
    8dac:	e12fff1e 	bx	lr
    8db0:	e3a00000 	mov	r0, #0
    8db4:	e12fff1e 	bx	lr
    8db8:	0001b88c 	.word	0x0001b88c

00008dbc <mailbox_read>:
    8dbc:	e3500009 	cmp	r0, #9
    8dc0:	8a00000c 	bhi	8df8 <mailbox_read+0x3c>
    8dc4:	e59f3034 	ldr	r3, [pc, #52]	; 8e00 <mailbox_read+0x44>
    8dc8:	e5932000 	ldr	r2, [r3]
    8dcc:	e2822b2e 	add	r2, r2, #47104	; 0xb800
    8dd0:	e2822080 	add	r2, r2, #128	; 0x80
    8dd4:	e5923018 	ldr	r3, [r2, #24]
    8dd8:	e3130101 	tst	r3, #1073741824	; 0x40000000
    8ddc:	1afffffc 	bne	8dd4 <mailbox_read+0x18>
    8de0:	e5923000 	ldr	r3, [r2]
    8de4:	e203100f 	and	r1, r3, #15
    8de8:	e1510000 	cmp	r1, r0
    8dec:	1afffff8 	bne	8dd4 <mailbox_read+0x18>
    8df0:	e3c3000f 	bic	r0, r3, #15
    8df4:	e12fff1e 	bx	lr
    8df8:	e59f0004 	ldr	r0, [pc, #4]	; 8e04 <mailbox_read+0x48>
    8dfc:	e12fff1e 	bx	lr
    8e00:	0001b88c 	.word	0x0001b88c
    8e04:	feeddead 	.word	0xfeeddead

00008e08 <mailbox_tag_message>:
    8e08:	e92d000e 	push	{r1, r2, r3}
    8e0c:	e92d4870 	push	{r4, r5, r6, fp, lr}
    8e10:	e28db010 	add	fp, sp, #16
    8e14:	e24dd008 	sub	sp, sp, #8
    8e18:	e1a0e00d 	mov	lr, sp
    8e1c:	e5db6004 	ldrb	r6, [fp, #4]
    8e20:	e3a03000 	mov	r3, #0
    8e24:	e2862003 	add	r2, r6, #3
    8e28:	e1a02102 	lsl	r2, r2, #2
    8e2c:	e2821016 	add	r1, r2, #22
    8e30:	e1a011a1 	lsr	r1, r1, #3
    8e34:	e04e1181 	sub	r1, lr, r1, lsl #3
    8e38:	e1a0d001 	mov	sp, r1
    8e3c:	e28d500f 	add	r5, sp, #15
    8e40:	e3c5500f 	bic	r5, r5, #15
    8e44:	e28bc008 	add	ip, fp, #8
    8e48:	e2861002 	add	r1, r6, #2
    8e4c:	e1560003 	cmp	r6, r3
    8e50:	e5852000 	str	r2, [r5]
    8e54:	e1a04000 	mov	r4, r0
    8e58:	e7853101 	str	r3, [r5, r1, lsl #2]
    8e5c:	e50bc014 	str	ip, [fp, #-20]	; 0xffffffec
    8e60:	e5853004 	str	r3, [r5, #4]
    8e64:	0a000006 	beq	8e84 <mailbox_tag_message+0x7c>
    8e68:	e28b1004 	add	r1, fp, #4
    8e6c:	e2852004 	add	r2, r5, #4
    8e70:	e2833001 	add	r3, r3, #1
    8e74:	e5b10004 	ldr	r0, [r1, #4]!
    8e78:	e1560003 	cmp	r6, r3
    8e7c:	e5a20004 	str	r0, [r2, #4]!
    8e80:	1afffffa 	bne	8e70 <mailbox_tag_message+0x68>
    8e84:	ee075f3e 	mcr	15, 0, r5, cr7, cr14, {1}
    8e88:	e1a00005 	mov	r0, r5
    8e8c:	ebfffd71 	bl	8458 <ARMaddrToGPUaddr>
    8e90:	e59f30a0 	ldr	r3, [pc, #160]	; 8f38 <mailbox_tag_message+0x130>
    8e94:	e3c0000f 	bic	r0, r0, #15
    8e98:	e5933000 	ldr	r3, [r3]
    8e9c:	e3800008 	orr	r0, r0, #8
    8ea0:	e2833b2e 	add	r3, r3, #47104	; 0xb800
    8ea4:	e2833080 	add	r3, r3, #128	; 0x80
    8ea8:	e5932038 	ldr	r2, [r3, #56]	; 0x38
    8eac:	e3520000 	cmp	r2, #0
    8eb0:	bafffffc 	blt	8ea8 <mailbox_tag_message+0xa0>
    8eb4:	e5830020 	str	r0, [r3, #32]
    8eb8:	e5930018 	ldr	r0, [r3, #24]
    8ebc:	e2100101 	ands	r0, r0, #1073741824	; 0x40000000
    8ec0:	1afffffc 	bne	8eb8 <mailbox_tag_message+0xb0>
    8ec4:	e5932000 	ldr	r2, [r3]
    8ec8:	e202200f 	and	r2, r2, #15
    8ecc:	e3520008 	cmp	r2, #8
    8ed0:	1afffff8 	bne	8eb8 <mailbox_tag_message+0xb0>
    8ed4:	ee075f3e 	mcr	15, 0, r5, cr7, cr14, {1}
    8ed8:	e5953004 	ldr	r3, [r5, #4]
    8edc:	e3530102 	cmp	r3, #-2147483648	; 0x80000000
    8ee0:	0a000003 	beq	8ef4 <mailbox_tag_message+0xec>
    8ee4:	e24bd010 	sub	sp, fp, #16
    8ee8:	e8bd4870 	pop	{r4, r5, r6, fp, lr}
    8eec:	e28dd00c 	add	sp, sp, #12
    8ef0:	e12fff1e 	bx	lr
    8ef4:	e3540000 	cmp	r4, #0
    8ef8:	0a000009 	beq	8f24 <mailbox_tag_message+0x11c>
    8efc:	e3560000 	cmp	r6, #0
    8f00:	0a000007 	beq	8f24 <mailbox_tag_message+0x11c>
    8f04:	e0853106 	add	r3, r5, r6, lsl #2
    8f08:	e2833004 	add	r3, r3, #4
    8f0c:	e2855004 	add	r5, r5, #4
    8f10:	e2444004 	sub	r4, r4, #4
    8f14:	e5b52004 	ldr	r2, [r5, #4]!
    8f18:	e1530005 	cmp	r3, r5
    8f1c:	e5a42004 	str	r2, [r4, #4]!
    8f20:	1afffffb 	bne	8f14 <mailbox_tag_message+0x10c>
    8f24:	e3a00001 	mov	r0, #1
    8f28:	e24bd010 	sub	sp, fp, #16
    8f2c:	e8bd4870 	pop	{r4, r5, r6, fp, lr}
    8f30:	e28dd00c 	add	sp, sp, #12
    8f34:	e12fff1e 	bx	lr
    8f38:	0001b88c 	.word	0x0001b88c

00008f3c <ClearTimerIrq>:
    8f3c:	e3a02001 	mov	r2, #1
    8f40:	e59f300c 	ldr	r3, [pc, #12]	; 8f54 <ClearTimerIrq+0x18>
    8f44:	e5933000 	ldr	r3, [r3]
    8f48:	e2833b2d 	add	r3, r3, #46080	; 0xb400
    8f4c:	e583200c 	str	r2, [r3, #12]
    8f50:	e12fff1e 	bx	lr
    8f54:	0001b88c 	.word	0x0001b88c

00008f58 <TimerSetup>:
    8f58:	e3a02000 	mov	r2, #0
    8f5c:	e92d40f0 	push	{r4, r5, r6, r7, lr}
    8f60:	e3a03008 	mov	r3, #8
    8f64:	e3a0e004 	mov	lr, #4
    8f68:	e59f50dc 	ldr	r5, [pc, #220]	; 904c <TimerSetup+0xf4>
    8f6c:	e24dd02c 	sub	sp, sp, #44	; 0x2c
    8f70:	e5951000 	ldr	r1, [r5]
    8f74:	e58d2014 	str	r2, [sp, #20]
    8f78:	e58d2018 	str	r2, [sp, #24]
    8f7c:	e58d201c 	str	r2, [sp, #28]
    8f80:	e58d2020 	str	r2, [sp, #32]
    8f84:	e58d2024 	str	r2, [sp, #36]	; 0x24
    8f88:	e2811b2d 	add	r1, r1, #46080	; 0xb400
    8f8c:	e591c008 	ldr	ip, [r1, #8]
    8f90:	e1a04000 	mov	r4, r0
    8f94:	e3ccc080 	bic	ip, ip, #128	; 0x80
    8f98:	e581c008 	str	ip, [r1, #8]
    8f9c:	e28d0014 	add	r0, sp, #20
    8fa0:	e58d2008 	str	r2, [sp, #8]
    8fa4:	e88d4008 	stm	sp, {r3, lr}
    8fa8:	e59f20a0 	ldr	r2, [pc, #160]	; 9050 <TimerSetup+0xf8>
    8fac:	e3a01005 	mov	r1, #5
    8fb0:	ebfffe2e 	bl	8870 <mailbox_tag_message.constprop.7>
    8fb4:	e3500000 	cmp	r0, #0
    8fb8:	0a000021 	beq	9044 <TimerSetup+0xec>
    8fbc:	e59d2024 	ldr	r2, [sp, #36]	; 0x24
    8fc0:	e59f308c 	ldr	r3, [pc, #140]	; 9054 <TimerSetup+0xfc>
    8fc4:	e5951000 	ldr	r1, [r5]
    8fc8:	e0832392 	umull	r2, r3, r2, r3
    8fcc:	e1a03223 	lsr	r3, r3, #4
    8fd0:	e58d3010 	str	r3, [sp, #16]
    8fd4:	e59d6010 	ldr	r6, [sp, #16]
    8fd8:	e59f2078 	ldr	r2, [pc, #120]	; 9058 <TimerSetup+0x100>
    8fdc:	e2813b2d 	add	r3, r1, #46080	; 0xb400
    8fe0:	e0876296 	umull	r6, r7, r6, r2
    8fe4:	e1a026a7 	lsr	r2, r7, #13
    8fe8:	e58d2010 	str	r2, [sp, #16]
    8fec:	e59d1010 	ldr	r1, [sp, #16]
    8ff0:	e59f2064 	ldr	r2, [pc, #100]	; 905c <TimerSetup+0x104>
    8ff4:	e0040194 	mul	r4, r4, r1
    8ff8:	e58d4010 	str	r4, [sp, #16]
    8ffc:	e59d4010 	ldr	r4, [sp, #16]
    9000:	e0854294 	umull	r4, r5, r4, r2
    9004:	e1a022a5 	lsr	r2, r5, #5
    9008:	e58d2010 	str	r2, [sp, #16]
    900c:	e59d2010 	ldr	r2, [sp, #16]
    9010:	e3520000 	cmp	r2, #0
    9014:	159d2010 	ldrne	r2, [sp, #16]
    9018:	01a00002 	moveq	r0, r2
    901c:	15832000 	strne	r2, [r3]
    9020:	15932008 	ldrne	r2, [r3, #8]
    9024:	13822002 	orrne	r2, r2, #2
    9028:	15832008 	strne	r2, [r3, #8]
    902c:	15d32008 	ldrbne	r2, [r3, #8]
    9030:	13c2200c 	bicne	r2, r2, #12
    9034:	15c32008 	strbne	r2, [r3, #8]
    9038:	e5932008 	ldr	r2, [r3, #8]
    903c:	e3822080 	orr	r2, r2, #128	; 0x80
    9040:	e5832008 	str	r2, [r3, #8]
    9044:	e28dd02c 	add	sp, sp, #44	; 0x2c
    9048:	e8bd80f0 	pop	{r4, r5, r6, r7, pc}
    904c:	0001b88c 	.word	0x0001b88c
    9050:	00030002 	.word	0x00030002
    9054:	10624dd3 	.word	0x10624dd3
    9058:	d1b71759 	.word	0xd1b71759
    905c:	51eb851f 	.word	0x51eb851f

00009060 <TimerIrqSetup>:
    9060:	e3a02000 	mov	r2, #0
    9064:	e92d40f0 	push	{r4, r5, r6, r7, lr}
    9068:	e3a03008 	mov	r3, #8
    906c:	e3a0e004 	mov	lr, #4
    9070:	e59f5110 	ldr	r5, [pc, #272]	; 9188 <TimerIrqSetup+0x128>
    9074:	e24dd02c 	sub	sp, sp, #44	; 0x2c
    9078:	e5951000 	ldr	r1, [r5]
    907c:	e58d2014 	str	r2, [sp, #20]
    9080:	e58d2018 	str	r2, [sp, #24]
    9084:	e58d201c 	str	r2, [sp, #28]
    9088:	e58d2020 	str	r2, [sp, #32]
    908c:	e58d2024 	str	r2, [sp, #36]	; 0x24
    9090:	e2811b2d 	add	r1, r1, #46080	; 0xb400
    9094:	e591c008 	ldr	ip, [r1, #8]
    9098:	e1a04000 	mov	r4, r0
    909c:	e3ccc080 	bic	ip, ip, #128	; 0x80
    90a0:	e581c008 	str	ip, [r1, #8]
    90a4:	e28d0014 	add	r0, sp, #20
    90a8:	e58d2008 	str	r2, [sp, #8]
    90ac:	e88d4008 	stm	sp, {r3, lr}
    90b0:	e59f20d4 	ldr	r2, [pc, #212]	; 918c <TimerIrqSetup+0x12c>
    90b4:	e3a01005 	mov	r1, #5
    90b8:	ebfffdec 	bl	8870 <mailbox_tag_message.constprop.7>
    90bc:	e3500000 	cmp	r0, #0
    90c0:	0a000028 	beq	9168 <TimerIrqSetup+0x108>
    90c4:	e59f30c4 	ldr	r3, [pc, #196]	; 9190 <TimerIrqSetup+0x130>
    90c8:	e59d6024 	ldr	r6, [sp, #36]	; 0x24
    90cc:	e59fc0c0 	ldr	ip, [pc, #192]	; 9194 <TimerIrqSetup+0x134>
    90d0:	e0876396 	umull	r6, r7, r6, r3
    90d4:	e1a03227 	lsr	r3, r7, #4
    90d8:	e58d3010 	str	r3, [sp, #16]
    90dc:	e59d6010 	ldr	r6, [sp, #16]
    90e0:	e59f30b0 	ldr	r3, [pc, #176]	; 9198 <TimerIrqSetup+0x138>
    90e4:	e5952000 	ldr	r2, [r5]
    90e8:	e0876396 	umull	r6, r7, r6, r3
    90ec:	e1a036a7 	lsr	r3, r7, #13
    90f0:	e58d3010 	str	r3, [sp, #16]
    90f4:	e59d1010 	ldr	r1, [sp, #16]
    90f8:	e2823b2d 	add	r3, r2, #46080	; 0xb400
    90fc:	e0040491 	mul	r4, r1, r4
    9100:	e58d4010 	str	r4, [sp, #16]
    9104:	e59d4010 	ldr	r4, [sp, #16]
    9108:	e0854c94 	umull	r4, r5, r4, ip
    910c:	e1a012a5 	lsr	r1, r5, #5
    9110:	e58d1010 	str	r1, [sp, #16]
    9114:	e59d1010 	ldr	r1, [sp, #16]
    9118:	e3510000 	cmp	r1, #0
    911c:	0a000013 	beq	9170 <TimerIrqSetup+0x110>
    9120:	e59d1010 	ldr	r1, [sp, #16]
    9124:	e2822cb2 	add	r2, r2, #45568	; 0xb200
    9128:	e5831000 	str	r1, [r3]
    912c:	e5931008 	ldr	r1, [r3, #8]
    9130:	e3811002 	orr	r1, r1, #2
    9134:	e5831008 	str	r1, [r3, #8]
    9138:	e5d31008 	ldrb	r1, [r3, #8]
    913c:	e3c1100c 	bic	r1, r1, #12
    9140:	e5c31008 	strb	r1, [r3, #8]
    9144:	e5931008 	ldr	r1, [r3, #8]
    9148:	e3811080 	orr	r1, r1, #128	; 0x80
    914c:	e5831008 	str	r1, [r3, #8]
    9150:	e5921018 	ldr	r1, [r2, #24]
    9154:	e3811001 	orr	r1, r1, #1
    9158:	e5821018 	str	r1, [r2, #24]
    915c:	e5932008 	ldr	r2, [r3, #8]
    9160:	e3822020 	orr	r2, r2, #32
    9164:	e5832008 	str	r2, [r3, #8]
    9168:	e28dd02c 	add	sp, sp, #44	; 0x2c
    916c:	e8bd80f0 	pop	{r4, r5, r6, r7, pc}
    9170:	e1a00001 	mov	r0, r1
    9174:	e5932008 	ldr	r2, [r3, #8]
    9178:	e3822080 	orr	r2, r2, #128	; 0x80
    917c:	e5832008 	str	r2, [r3, #8]
    9180:	e28dd02c 	add	sp, sp, #44	; 0x2c
    9184:	e8bd80f0 	pop	{r4, r5, r6, r7, pc}
    9188:	0001b88c 	.word	0x0001b88c
    918c:	00030002 	.word	0x00030002
    9190:	10624dd3 	.word	0x10624dd3
    9194:	51eb851f 	.word	0x51eb851f
    9198:	d1b71759 	.word	0xd1b71759

0000919c <TimerFiqSetup>:
    919c:	e3a02000 	mov	r2, #0
    91a0:	e92d40f0 	push	{r4, r5, r6, r7, lr}
    91a4:	e3a03008 	mov	r3, #8
    91a8:	e3a07004 	mov	r7, #4
    91ac:	e59f4134 	ldr	r4, [pc, #308]	; 92e8 <TimerFiqSetup+0x14c>
    91b0:	e24dd02c 	sub	sp, sp, #44	; 0x2c
    91b4:	e594c000 	ldr	ip, [r4]
    91b8:	e58d2014 	str	r2, [sp, #20]
    91bc:	e58d2018 	str	r2, [sp, #24]
    91c0:	e58d201c 	str	r2, [sp, #28]
    91c4:	e58d2020 	str	r2, [sp, #32]
    91c8:	e58d2024 	str	r2, [sp, #36]	; 0x24
    91cc:	e28ccb2d 	add	ip, ip, #46080	; 0xb400
    91d0:	e59ce008 	ldr	lr, [ip, #8]
    91d4:	e1a06000 	mov	r6, r0
    91d8:	e3cee080 	bic	lr, lr, #128	; 0x80
    91dc:	e58ce008 	str	lr, [ip, #8]
    91e0:	e1a05001 	mov	r5, r1
    91e4:	e58d2008 	str	r2, [sp, #8]
    91e8:	e28d0014 	add	r0, sp, #20
    91ec:	e88d0088 	stm	sp, {r3, r7}
    91f0:	e59f20f4 	ldr	r2, [pc, #244]	; 92ec <TimerFiqSetup+0x150>
    91f4:	e3a01005 	mov	r1, #5
    91f8:	ebfffd9c 	bl	8870 <mailbox_tag_message.constprop.7>
    91fc:	e3500000 	cmp	r0, #0
    9200:	0a000031 	beq	92cc <TimerFiqSetup+0x130>
    9204:	e59f20e4 	ldr	r2, [pc, #228]	; 92f0 <TimerFiqSetup+0x154>
    9208:	e59d0024 	ldr	r0, [sp, #36]	; 0x24
    920c:	e59f30e0 	ldr	r3, [pc, #224]	; 92f4 <TimerFiqSetup+0x158>
    9210:	e0810290 	umull	r0, r1, r0, r2
    9214:	e1a02731 	lsr	r2, r1, r7
    9218:	e58d2010 	str	r2, [sp, #16]
    921c:	e59d2010 	ldr	r2, [sp, #16]
    9220:	e59f10d0 	ldr	r1, [pc, #208]	; 92f8 <TimerFiqSetup+0x15c>
    9224:	e0832392 	umull	r2, r3, r2, r3
    9228:	e1a036a3 	lsr	r3, r3, #13
    922c:	e58d3010 	str	r3, [sp, #16]
    9230:	e59d3010 	ldr	r3, [sp, #16]
    9234:	e5942000 	ldr	r2, [r4]
    9238:	e0060693 	mul	r6, r3, r6
    923c:	e58d6010 	str	r6, [sp, #16]
    9240:	e59d0010 	ldr	r0, [sp, #16]
    9244:	e2823b2d 	add	r3, r2, #46080	; 0xb400
    9248:	e0810190 	umull	r0, r1, r0, r1
    924c:	e1a012a1 	lsr	r1, r1, #5
    9250:	e58d1010 	str	r1, [sp, #16]
    9254:	e59d0010 	ldr	r0, [sp, #16]
    9258:	e3500000 	cmp	r0, #0
    925c:	0a00001c 	beq	92d4 <TimerFiqSetup+0x138>
    9260:	e59d1010 	ldr	r1, [sp, #16]
    9264:	e2550000 	subs	r0, r5, #0
    9268:	e5831000 	str	r1, [r3]
    926c:	e5931008 	ldr	r1, [r3, #8]
    9270:	e3811002 	orr	r1, r1, #2
    9274:	e5831008 	str	r1, [r3, #8]
    9278:	e5d31008 	ldrb	r1, [r3, #8]
    927c:	e3c1100c 	bic	r1, r1, #12
    9280:	e5c31008 	strb	r1, [r3, #8]
    9284:	e5931008 	ldr	r1, [r3, #8]
    9288:	e3811080 	orr	r1, r1, #128	; 0x80
    928c:	e5831008 	str	r1, [r3, #8]
    9290:	0a000002 	beq	92a0 <TimerFiqSetup+0x104>
    9294:	ebfffc96 	bl	84f4 <setFiqFuncAddress>
    9298:	e5942000 	ldr	r2, [r4]
    929c:	e2823b2d 	add	r3, r2, #46080	; 0xb400
    92a0:	e5931008 	ldr	r1, [r3, #8]
    92a4:	e2822cb2 	add	r2, r2, #45568	; 0xb200
    92a8:	e3811020 	orr	r1, r1, #32
    92ac:	e5831008 	str	r1, [r3, #8]
    92b0:	e592300c 	ldr	r3, [r2, #12]
    92b4:	e3c3303f 	bic	r3, r3, #63	; 0x3f
    92b8:	e3833040 	orr	r3, r3, #64	; 0x40
    92bc:	e582300c 	str	r3, [r2, #12]
    92c0:	e592300c 	ldr	r3, [r2, #12]
    92c4:	e3833080 	orr	r3, r3, #128	; 0x80
    92c8:	e582300c 	str	r3, [r2, #12]
    92cc:	e28dd02c 	add	sp, sp, #44	; 0x2c
    92d0:	e8bd80f0 	pop	{r4, r5, r6, r7, pc}
    92d4:	e5932008 	ldr	r2, [r3, #8]
    92d8:	e3822080 	orr	r2, r2, #128	; 0x80
    92dc:	e5832008 	str	r2, [r3, #8]
    92e0:	e28dd02c 	add	sp, sp, #44	; 0x2c
    92e4:	e8bd80f0 	pop	{r4, r5, r6, r7, pc}
    92e8:	0001b88c 	.word	0x0001b88c
    92ec:	00030002 	.word	0x00030002
    92f0:	10624dd3 	.word	0x10624dd3
    92f4:	d1b71759 	.word	0xd1b71759
    92f8:	51eb851f 	.word	0x51eb851f

000092fc <ClearLocalTimerIrq>:
    92fc:	e3a03101 	mov	r3, #1073741824	; 0x40000000
    9300:	e5932038 	ldr	r2, [r3, #56]	; 0x38
    9304:	e3822102 	orr	r2, r2, #-2147483648	; 0x80000000
    9308:	e5832038 	str	r2, [r3, #56]	; 0x38
    930c:	e5932038 	ldr	r2, [r3, #56]	; 0x38
    9310:	e1822003 	orr	r2, r2, r3
    9314:	e5832038 	str	r2, [r3, #56]	; 0x38
    9318:	e12fff1e 	bx	lr

0000931c <LocalTimerSetup>:
    931c:	e59f3084 	ldr	r3, [pc, #132]	; 93a8 <LocalTimerSetup+0x8c>
    9320:	e59f2084 	ldr	r2, [pc, #132]	; 93ac <LocalTimerSetup+0x90>
    9324:	e1d330b0 	ldrh	r3, [r3]
    9328:	e3c3300f 	bic	r3, r3, #15
    932c:	e1530002 	cmp	r3, r2
    9330:	0a00001a 	beq	93a0 <LocalTimerSetup+0x84>
    9334:	e3a03101 	mov	r3, #1073741824	; 0x40000000
    9338:	e92d0030 	push	{r4, r5}
    933c:	e0800080 	add	r0, r0, r0, lsl #1
    9340:	e24dd008 	sub	sp, sp, #8
    9344:	e1a00380 	lsl	r0, r0, #7
    9348:	e58d0004 	str	r0, [sp, #4]
    934c:	e3a00001 	mov	r0, #1
    9350:	e59d4004 	ldr	r4, [sp, #4]
    9354:	e59f2054 	ldr	r2, [pc, #84]	; 93b0 <LocalTimerSetup+0x94>
    9358:	e0854294 	umull	r4, r5, r4, r2
    935c:	e1a021a5 	lsr	r2, r5, #3
    9360:	e58d2004 	str	r2, [sp, #4]
    9364:	e59d1004 	ldr	r1, [sp, #4]
    9368:	e5932034 	ldr	r2, [r3, #52]	; 0x34
    936c:	e3c1120f 	bic	r1, r1, #-268435456	; 0xf0000000
    9370:	e202220f 	and	r2, r2, #-268435456	; 0xf0000000
    9374:	e1812002 	orr	r2, r1, r2
    9378:	e5832034 	str	r2, [r3, #52]	; 0x34
    937c:	e5932034 	ldr	r2, [r3, #52]	; 0x34
    9380:	e3822201 	orr	r2, r2, #268435456	; 0x10000000
    9384:	e5832034 	str	r2, [r3, #52]	; 0x34
    9388:	e5932038 	ldr	r2, [r3, #56]	; 0x38
    938c:	e1822003 	orr	r2, r2, r3
    9390:	e5832038 	str	r2, [r3, #56]	; 0x38
    9394:	e28dd008 	add	sp, sp, #8
    9398:	e8bd0030 	pop	{r4, r5}
    939c:	e12fff1e 	bx	lr
    93a0:	e3a00000 	mov	r0, #0
    93a4:	e12fff1e 	bx	lr
    93a8:	0001b8a0 	.word	0x0001b8a0
    93ac:	0000b760 	.word	0x0000b760
    93b0:	cccccccd 	.word	0xcccccccd

000093b4 <LocalTimerIrqSetup>:
    93b4:	e59f30dc 	ldr	r3, [pc, #220]	; 9498 <LocalTimerIrqSetup+0xe4>
    93b8:	e59f20dc 	ldr	r2, [pc, #220]	; 949c <LocalTimerIrqSetup+0xe8>
    93bc:	e1d330b0 	ldrh	r3, [r3]
    93c0:	e3c3300f 	bic	r3, r3, #15
    93c4:	e1530002 	cmp	r3, r2
    93c8:	0a000030 	beq	9490 <LocalTimerIrqSetup+0xdc>
    93cc:	e3a03101 	mov	r3, #1073741824	; 0x40000000
    93d0:	e92d0030 	push	{r4, r5}
    93d4:	e0800080 	add	r0, r0, r0, lsl #1
    93d8:	e24dd008 	sub	sp, sp, #8
    93dc:	e1a00380 	lsl	r0, r0, #7
    93e0:	e58d0004 	str	r0, [sp, #4]
    93e4:	e59d4004 	ldr	r4, [sp, #4]
    93e8:	e59f20b0 	ldr	r2, [pc, #176]	; 94a0 <LocalTimerIrqSetup+0xec>
    93ec:	e201c007 	and	ip, r1, #7
    93f0:	e0854294 	umull	r4, r5, r4, r2
    93f4:	e1a021a5 	lsr	r2, r5, #3
    93f8:	e58d2004 	str	r2, [sp, #4]
    93fc:	e59d0004 	ldr	r0, [sp, #4]
    9400:	e5932034 	ldr	r2, [r3, #52]	; 0x34
    9404:	e3c0020f 	bic	r0, r0, #-268435456	; 0xf0000000
    9408:	e202220f 	and	r2, r2, #-268435456	; 0xf0000000
    940c:	e1802002 	orr	r2, r0, r2
    9410:	e5832034 	str	r2, [r3, #52]	; 0x34
    9414:	e5932034 	ldr	r2, [r3, #52]	; 0x34
    9418:	e3a00001 	mov	r0, #1
    941c:	e3822201 	orr	r2, r2, #268435456	; 0x10000000
    9420:	e5832034 	str	r2, [r3, #52]	; 0x34
    9424:	e5932038 	ldr	r2, [r3, #56]	; 0x38
    9428:	e1a01101 	lsl	r1, r1, #2
    942c:	e1822003 	orr	r2, r2, r3
    9430:	e5832038 	str	r2, [r3, #56]	; 0x38
    9434:	e5d32024 	ldrb	r2, [r3, #36]	; 0x24
    9438:	e2811161 	add	r1, r1, #1073741848	; 0x40000018
    943c:	e3c22007 	bic	r2, r2, #7
    9440:	e18c2002 	orr	r2, ip, r2
    9444:	e5c32024 	strb	r2, [r3, #36]	; 0x24
    9448:	e5932034 	ldr	r2, [r3, #52]	; 0x34
    944c:	e3822202 	orr	r2, r2, #536870912	; 0x20000000
    9450:	e5832034 	str	r2, [r3, #52]	; 0x34
    9454:	e5932038 	ldr	r2, [r3, #56]	; 0x38
    9458:	e3822102 	orr	r2, r2, #-2147483648	; 0x80000000
    945c:	e5832038 	str	r2, [r3, #56]	; 0x38
    9460:	e5932038 	ldr	r2, [r3, #56]	; 0x38
    9464:	e1822003 	orr	r2, r2, r3
    9468:	e5832038 	str	r2, [r3, #56]	; 0x38
    946c:	e5913028 	ldr	r3, [r1, #40]	; 0x28
    9470:	e3833002 	orr	r3, r3, #2
    9474:	e5813028 	str	r3, [r1, #40]	; 0x28
    9478:	e5913028 	ldr	r3, [r1, #40]	; 0x28
    947c:	e3c33020 	bic	r3, r3, #32
    9480:	e5813028 	str	r3, [r1, #40]	; 0x28
    9484:	e28dd008 	add	sp, sp, #8
    9488:	e8bd0030 	pop	{r4, r5}
    948c:	e12fff1e 	bx	lr
    9490:	e3a00000 	mov	r0, #0
    9494:	e12fff1e 	bx	lr
    9498:	0001b8a0 	.word	0x0001b8a0
    949c:	0000b760 	.word	0x0000b760
    94a0:	cccccccd 	.word	0xcccccccd

000094a4 <LocalTimerFiqSetup>:
    94a4:	e59f30e0 	ldr	r3, [pc, #224]	; 958c <LocalTimerFiqSetup+0xe8>
    94a8:	e59f20e0 	ldr	r2, [pc, #224]	; 9590 <LocalTimerFiqSetup+0xec>
    94ac:	e1d330b0 	ldrh	r3, [r3]
    94b0:	e3c3300f 	bic	r3, r3, #15
    94b4:	e1530002 	cmp	r3, r2
    94b8:	0a000031 	beq	9584 <LocalTimerFiqSetup+0xe0>
    94bc:	e3a03101 	mov	r3, #1073741824	; 0x40000000
    94c0:	e92d0030 	push	{r4, r5}
    94c4:	e0800080 	add	r0, r0, r0, lsl #1
    94c8:	e24dd008 	sub	sp, sp, #8
    94cc:	e1a00380 	lsl	r0, r0, #7
    94d0:	e58d0004 	str	r0, [sp, #4]
    94d4:	e59d4004 	ldr	r4, [sp, #4]
    94d8:	e59f00b4 	ldr	r0, [pc, #180]	; 9594 <LocalTimerFiqSetup+0xf0>
    94dc:	e2812004 	add	r2, r1, #4
    94e0:	e0854094 	umull	r4, r5, r4, r0
    94e4:	e1a001a5 	lsr	r0, r5, #3
    94e8:	e58d0004 	str	r0, [sp, #4]
    94ec:	e59dc004 	ldr	ip, [sp, #4]
    94f0:	e5930034 	ldr	r0, [r3, #52]	; 0x34
    94f4:	e3ccc20f 	bic	ip, ip, #-268435456	; 0xf0000000
    94f8:	e200020f 	and	r0, r0, #-268435456	; 0xf0000000
    94fc:	e18c0000 	orr	r0, ip, r0
    9500:	e5830034 	str	r0, [r3, #52]	; 0x34
    9504:	e5930034 	ldr	r0, [r3, #52]	; 0x34
    9508:	e2022007 	and	r2, r2, #7
    950c:	e3800201 	orr	r0, r0, #268435456	; 0x10000000
    9510:	e5830034 	str	r0, [r3, #52]	; 0x34
    9514:	e5930038 	ldr	r0, [r3, #56]	; 0x38
    9518:	e1a01101 	lsl	r1, r1, #2
    951c:	e1800003 	orr	r0, r0, r3
    9520:	e5830038 	str	r0, [r3, #56]	; 0x38
    9524:	e5d30024 	ldrb	r0, [r3, #36]	; 0x24
    9528:	e2811161 	add	r1, r1, #1073741848	; 0x40000018
    952c:	e3c00007 	bic	r0, r0, #7
    9530:	e1822000 	orr	r2, r2, r0
    9534:	e3a00001 	mov	r0, #1
    9538:	e5c32024 	strb	r2, [r3, #36]	; 0x24
    953c:	e5932034 	ldr	r2, [r3, #52]	; 0x34
    9540:	e3822202 	orr	r2, r2, #536870912	; 0x20000000
    9544:	e5832034 	str	r2, [r3, #52]	; 0x34
    9548:	e5932038 	ldr	r2, [r3, #56]	; 0x38
    954c:	e3822102 	orr	r2, r2, #-2147483648	; 0x80000000
    9550:	e5832038 	str	r2, [r3, #56]	; 0x38
    9554:	e5932038 	ldr	r2, [r3, #56]	; 0x38
    9558:	e1822003 	orr	r2, r2, r3
    955c:	e5832038 	str	r2, [r3, #56]	; 0x38
    9560:	e5913028 	ldr	r3, [r1, #40]	; 0x28
    9564:	e3833020 	orr	r3, r3, #32
    9568:	e5813028 	str	r3, [r1, #40]	; 0x28
    956c:	e5913028 	ldr	r3, [r1, #40]	; 0x28
    9570:	e3c33002 	bic	r3, r3, #2
    9574:	e5813028 	str	r3, [r1, #40]	; 0x28
    9578:	e28dd008 	add	sp, sp, #8
    957c:	e8bd0030 	pop	{r4, r5}
    9580:	e12fff1e 	bx	lr
    9584:	e3a00000 	mov	r0, #0
    9588:	e12fff1e 	bx	lr
    958c:	0001b8a0 	.word	0x0001b8a0
    9590:	0000b760 	.word	0x0000b760
    9594:	cccccccd 	.word	0xcccccccd

00009598 <miniuart_init>:
    9598:	e92d4070 	push	{r4, r5, r6, lr}
    959c:	e3a02004 	mov	r2, #4
    95a0:	e3a04000 	mov	r4, #0
    95a4:	e3a03008 	mov	r3, #8
    95a8:	e24dd028 	sub	sp, sp, #40	; 0x28
    95ac:	e58d2004 	str	r2, [sp, #4]
    95b0:	e1a06000 	mov	r6, r0
    95b4:	e58d4008 	str	r4, [sp, #8]
    95b8:	e28d0014 	add	r0, sp, #20
    95bc:	e58d3000 	str	r3, [sp]
    95c0:	e59f2110 	ldr	r2, [pc, #272]	; 96d8 <miniuart_init+0x140>
    95c4:	e3a01005 	mov	r1, #5
    95c8:	e58d4014 	str	r4, [sp, #20]
    95cc:	e58d4018 	str	r4, [sp, #24]
    95d0:	e58d401c 	str	r4, [sp, #28]
    95d4:	e58d4020 	str	r4, [sp, #32]
    95d8:	e58d4024 	str	r4, [sp, #36]	; 0x24
    95dc:	ebfffca3 	bl	8870 <mailbox_tag_message.constprop.7>
    95e0:	e2505000 	subs	r5, r0, #0
    95e4:	0a000006 	beq	9604 <miniuart_init+0x6c>
    95e8:	e1a01186 	lsl	r1, r6, #3
    95ec:	e59d0024 	ldr	r0, [sp, #36]	; 0x24
    95f0:	eb00224f 	bl	11f34 <__udivsi3>
    95f4:	e2406001 	sub	r6, r0, #1
    95f8:	e3560801 	cmp	r6, #65536	; 0x10000
    95fc:	21a05004 	movcs	r5, r4
    9600:	3a000002 	bcc	9610 <miniuart_init+0x78>
    9604:	e1a00005 	mov	r0, r5
    9608:	e28dd028 	add	sp, sp, #40	; 0x28
    960c:	e8bd8070 	pop	{r4, r5, r6, pc}
    9610:	e59f40c4 	ldr	r4, [pc, #196]	; 96dc <miniuart_init+0x144>
    9614:	e59f00c4 	ldr	r0, [pc, #196]	; 96e0 <miniuart_init+0x148>
    9618:	e5943000 	ldr	r3, [r4]
    961c:	e3a01001 	mov	r1, #1
    9620:	e0830000 	add	r0, r3, r0
    9624:	ebfffbb9 	bl	8510 <PUT32>
    9628:	e5942000 	ldr	r2, [r4]
    962c:	e1a00005 	mov	r0, r5
    9630:	e2823985 	add	r3, r2, #2179072	; 0x214000
    9634:	e2833d41 	add	r3, r3, #4160	; 0x1040
    9638:	e5931020 	ldr	r1, [r3, #32]
    963c:	e2822602 	add	r2, r2, #2097152	; 0x200000
    9640:	e3c11001 	bic	r1, r1, #1
    9644:	e5831020 	str	r1, [r3, #32]
    9648:	e5931020 	ldr	r1, [r3, #32]
    964c:	e3c11002 	bic	r1, r1, #2
    9650:	e5831020 	str	r1, [r3, #32]
    9654:	e593100c 	ldr	r1, [r3, #12]
    9658:	e3811001 	orr	r1, r1, #1
    965c:	e583100c 	str	r1, [r3, #12]
    9660:	e5931010 	ldr	r1, [r3, #16]
    9664:	e3c11002 	bic	r1, r1, #2
    9668:	e5831010 	str	r1, [r3, #16]
    966c:	e5931008 	ldr	r1, [r3, #8]
    9670:	e3811002 	orr	r1, r1, #2
    9674:	e5831008 	str	r1, [r3, #8]
    9678:	e5931008 	ldr	r1, [r3, #8]
    967c:	e3811004 	orr	r1, r1, #4
    9680:	e5831008 	str	r1, [r3, #8]
    9684:	e5931028 	ldr	r1, [r3, #40]	; 0x28
    9688:	e1a01821 	lsr	r1, r1, #16
    968c:	e1811806 	orr	r1, r1, r6, lsl #16
    9690:	e1a01861 	ror	r1, r1, #16
    9694:	e5831028 	str	r1, [r3, #40]	; 0x28
    9698:	e5921004 	ldr	r1, [r2, #4]
    969c:	e3c11a07 	bic	r1, r1, #28672	; 0x7000
    96a0:	e3811a02 	orr	r1, r1, #8192	; 0x2000
    96a4:	e5821004 	str	r1, [r2, #4]
    96a8:	e5921004 	ldr	r1, [r2, #4]
    96ac:	e3c1190e 	bic	r1, r1, #229376	; 0x38000
    96b0:	e3811801 	orr	r1, r1, #65536	; 0x10000
    96b4:	e5821004 	str	r1, [r2, #4]
    96b8:	e5932020 	ldr	r2, [r3, #32]
    96bc:	e3822001 	orr	r2, r2, #1
    96c0:	e5832020 	str	r2, [r3, #32]
    96c4:	e5932020 	ldr	r2, [r3, #32]
    96c8:	e3822002 	orr	r2, r2, #2
    96cc:	e5832020 	str	r2, [r3, #32]
    96d0:	e28dd028 	add	sp, sp, #40	; 0x28
    96d4:	e8bd8070 	pop	{r4, r5, r6, pc}
    96d8:	00030002 	.word	0x00030002
    96dc:	0001b88c 	.word	0x0001b88c
    96e0:	00215004 	.word	0x00215004

000096e4 <miniuart_getc>:
    96e4:	e59f3020 	ldr	r3, [pc, #32]	; 970c <miniuart_getc+0x28>
    96e8:	e5932000 	ldr	r2, [r3]
    96ec:	e2822985 	add	r2, r2, #2179072	; 0x214000
    96f0:	e2822d41 	add	r2, r2, #4160	; 0x1040
    96f4:	e5923014 	ldr	r3, [r2, #20]
    96f8:	e3130001 	tst	r3, #1
    96fc:	0afffffc 	beq	96f4 <miniuart_getc+0x10>
    9700:	e5920000 	ldr	r0, [r2]
    9704:	e6ef0070 	uxtb	r0, r0
    9708:	e12fff1e 	bx	lr
    970c:	0001b88c 	.word	0x0001b88c

00009710 <miniuart_putc>:
    9710:	e59f3028 	ldr	r3, [pc, #40]	; 9740 <miniuart_putc+0x30>
    9714:	e5933000 	ldr	r3, [r3]
    9718:	e2833985 	add	r3, r3, #2179072	; 0x214000
    971c:	e2833d41 	add	r3, r3, #4160	; 0x1040
    9720:	e5932014 	ldr	r2, [r3, #20]
    9724:	e3120020 	tst	r2, #32
    9728:	0afffffc 	beq	9720 <miniuart_putc+0x10>
    972c:	e5932000 	ldr	r2, [r3]
    9730:	e3c220ff 	bic	r2, r2, #255	; 0xff
    9734:	e1802002 	orr	r2, r0, r2
    9738:	e5832000 	str	r2, [r3]
    973c:	e12fff1e 	bx	lr
    9740:	0001b88c 	.word	0x0001b88c

00009744 <miniuart_puts>:
    9744:	e3500000 	cmp	r0, #0
    9748:	012fff1e 	bxeq	lr
    974c:	e5d01000 	ldrb	r1, [r0]
    9750:	e3510000 	cmp	r1, #0
    9754:	012fff1e 	bxeq	lr
    9758:	e59f3034 	ldr	r3, [pc, #52]	; 9794 <miniuart_puts+0x50>
    975c:	e5932000 	ldr	r2, [r3]
    9760:	e2822985 	add	r2, r2, #2179072	; 0x214000
    9764:	e2822d41 	add	r2, r2, #4160	; 0x1040
    9768:	e5923014 	ldr	r3, [r2, #20]
    976c:	e3130020 	tst	r3, #32
    9770:	0afffffc 	beq	9768 <miniuart_puts+0x24>
    9774:	e5923000 	ldr	r3, [r2]
    9778:	e3c330ff 	bic	r3, r3, #255	; 0xff
    977c:	e1813003 	orr	r3, r1, r3
    9780:	e5823000 	str	r3, [r2]
    9784:	e5f01001 	ldrb	r1, [r0, #1]!
    9788:	e3510000 	cmp	r1, #0
    978c:	1afffff5 	bne	9768 <miniuart_puts+0x24>
    9790:	e12fff1e 	bx	lr
    9794:	0001b88c 	.word	0x0001b88c

00009798 <pl011_uart_init>:
    9798:	e92d40f0 	push	{r4, r5, r6, r7, lr}
    979c:	e3a0e000 	mov	lr, #0
    97a0:	e3a01008 	mov	r1, #8
    97a4:	e3a0c002 	mov	ip, #2
    97a8:	e59f4120 	ldr	r4, [pc, #288]	; 98d0 <pl011_uart_init+0x138>
    97ac:	e59f6120 	ldr	r6, [pc, #288]	; 98d4 <pl011_uart_init+0x13c>
    97b0:	e5943000 	ldr	r3, [r4]
    97b4:	e24dd014 	sub	sp, sp, #20
    97b8:	e2833602 	add	r3, r3, #2097152	; 0x200000
    97bc:	e2832a01 	add	r2, r3, #4096	; 0x1000
    97c0:	e582e030 	str	lr, [r2, #48]	; 0x30
    97c4:	e5932004 	ldr	r2, [r3, #4]
    97c8:	e1a05000 	mov	r5, r0
    97cc:	e3c22a07 	bic	r2, r2, #28672	; 0x7000
    97d0:	e3822901 	orr	r2, r2, #16384	; 0x4000
    97d4:	e5832004 	str	r2, [r3, #4]
    97d8:	e5932004 	ldr	r2, [r3, #4]
    97dc:	e1a0000e 	mov	r0, lr
    97e0:	e3c2290e 	bic	r2, r2, #229376	; 0x38000
    97e4:	e3822802 	orr	r2, r2, #131072	; 0x20000
    97e8:	e5832004 	str	r2, [r3, #4]
    97ec:	e1a03001 	mov	r3, r1
    97f0:	e88d1002 	stm	sp, {r1, ip}
    97f4:	e58d6008 	str	r6, [sp, #8]
    97f8:	e59f20d8 	ldr	r2, [pc, #216]	; 98d8 <pl011_uart_init+0x140>
    97fc:	e3a01005 	mov	r1, #5
    9800:	ebfffbaa 	bl	86b0 <mailbox_tag_message.constprop.5>
    9804:	e2507000 	subs	r7, r0, #0
    9808:	0a00002d 	beq	98c4 <pl011_uart_init+0x12c>
    980c:	e1a01205 	lsl	r1, r5, #4
    9810:	e1a00006 	mov	r0, r6
    9814:	eb0021c6 	bl	11f34 <__udivsi3>
    9818:	e5944000 	ldr	r4, [r4]
    981c:	e0653e05 	rsb	r3, r5, r5, lsl #28
    9820:	e2844602 	add	r4, r4, #2097152	; 0x200000
    9824:	e1a03203 	lsl	r3, r3, #4
    9828:	e2844a01 	add	r4, r4, #4096	; 0x1000
    982c:	e0030390 	mul	r3, r0, r3
    9830:	e5942024 	ldr	r2, [r4, #36]	; 0x24
    9834:	e283383d 	add	r3, r3, #3997696	; 0x3d0000
    9838:	e1a02822 	lsr	r2, r2, #16
    983c:	e1822800 	orr	r2, r2, r0, lsl #16
    9840:	e2833c09 	add	r3, r3, #2304	; 0x900
    9844:	e1a02862 	ror	r2, r2, #16
    9848:	e1a000a5 	lsr	r0, r5, #1
    984c:	e0800103 	add	r0, r0, r3, lsl #2
    9850:	e5842024 	str	r2, [r4, #36]	; 0x24
    9854:	e1a01005 	mov	r1, r5
    9858:	eb0021b5 	bl	11f34 <__udivsi3>
    985c:	e5943028 	ldr	r3, [r4, #40]	; 0x28
    9860:	e200003f 	and	r0, r0, #63	; 0x3f
    9864:	e3c3303f 	bic	r3, r3, #63	; 0x3f
    9868:	e1803003 	orr	r3, r0, r3
    986c:	e5843028 	str	r3, [r4, #40]	; 0x28
    9870:	e5d4302c 	ldrb	r3, [r4, #44]	; 0x2c
    9874:	e3833060 	orr	r3, r3, #96	; 0x60
    9878:	e5c4302c 	strb	r3, [r4, #44]	; 0x2c
    987c:	e594302c 	ldr	r3, [r4, #44]	; 0x2c
    9880:	e3c33002 	bic	r3, r3, #2
    9884:	e584302c 	str	r3, [r4, #44]	; 0x2c
    9888:	e594302c 	ldr	r3, [r4, #44]	; 0x2c
    988c:	e3c33008 	bic	r3, r3, #8
    9890:	e584302c 	str	r3, [r4, #44]	; 0x2c
    9894:	e594302c 	ldr	r3, [r4, #44]	; 0x2c
    9898:	e3c33010 	bic	r3, r3, #16
    989c:	e584302c 	str	r3, [r4, #44]	; 0x2c
    98a0:	e5943030 	ldr	r3, [r4, #48]	; 0x30
    98a4:	e3833001 	orr	r3, r3, #1
    98a8:	e5843030 	str	r3, [r4, #48]	; 0x30
    98ac:	e5943030 	ldr	r3, [r4, #48]	; 0x30
    98b0:	e3833c02 	orr	r3, r3, #512	; 0x200
    98b4:	e5843030 	str	r3, [r4, #48]	; 0x30
    98b8:	e5943030 	ldr	r3, [r4, #48]	; 0x30
    98bc:	e3833c01 	orr	r3, r3, #256	; 0x100
    98c0:	e5843030 	str	r3, [r4, #48]	; 0x30
    98c4:	e1a00007 	mov	r0, r7
    98c8:	e28dd014 	add	sp, sp, #20
    98cc:	e8bd80f0 	pop	{r4, r5, r6, r7, pc}
    98d0:	0001b88c 	.word	0x0001b88c
    98d4:	003d0900 	.word	0x003d0900
    98d8:	00038002 	.word	0x00038002

000098dc <pl011_uart_getc>:
    98dc:	e59f3020 	ldr	r3, [pc, #32]	; 9904 <pl011_uart_getc+0x28>
    98e0:	e5932000 	ldr	r2, [r3]
    98e4:	e2822602 	add	r2, r2, #2097152	; 0x200000
    98e8:	e2822a01 	add	r2, r2, #4096	; 0x1000
    98ec:	e5923018 	ldr	r3, [r2, #24]
    98f0:	e3130010 	tst	r3, #16
    98f4:	1afffffc 	bne	98ec <pl011_uart_getc+0x10>
    98f8:	e5920000 	ldr	r0, [r2]
    98fc:	e6ef0070 	uxtb	r0, r0
    9900:	e12fff1e 	bx	lr
    9904:	0001b88c 	.word	0x0001b88c

00009908 <pl011_uart_putc>:
    9908:	e59f3028 	ldr	r3, [pc, #40]	; 9938 <pl011_uart_putc+0x30>
    990c:	e5933000 	ldr	r3, [r3]
    9910:	e2833602 	add	r3, r3, #2097152	; 0x200000
    9914:	e2833a01 	add	r3, r3, #4096	; 0x1000
    9918:	e5932018 	ldr	r2, [r3, #24]
    991c:	e3120020 	tst	r2, #32
    9920:	1afffffc 	bne	9918 <pl011_uart_putc+0x10>
    9924:	e5932000 	ldr	r2, [r3]
    9928:	e3c220ff 	bic	r2, r2, #255	; 0xff
    992c:	e1802002 	orr	r2, r0, r2
    9930:	e5832000 	str	r2, [r3]
    9934:	e12fff1e 	bx	lr
    9938:	0001b88c 	.word	0x0001b88c

0000993c <pl011_uart_puts>:
    993c:	e3500000 	cmp	r0, #0
    9940:	012fff1e 	bxeq	lr
    9944:	e5d01000 	ldrb	r1, [r0]
    9948:	e3510000 	cmp	r1, #0
    994c:	012fff1e 	bxeq	lr
    9950:	e59f3034 	ldr	r3, [pc, #52]	; 998c <pl011_uart_puts+0x50>
    9954:	e5932000 	ldr	r2, [r3]
    9958:	e2822602 	add	r2, r2, #2097152	; 0x200000
    995c:	e2822a01 	add	r2, r2, #4096	; 0x1000
    9960:	e5923018 	ldr	r3, [r2, #24]
    9964:	e3130020 	tst	r3, #32
    9968:	1afffffc 	bne	9960 <pl011_uart_puts+0x24>
    996c:	e5923000 	ldr	r3, [r2]
    9970:	e3c330ff 	bic	r3, r3, #255	; 0xff
    9974:	e1813003 	orr	r3, r1, r3
    9978:	e5823000 	str	r3, [r2]
    997c:	e5f01001 	ldrb	r1, [r0, #1]!
    9980:	e3510000 	cmp	r1, #0
    9984:	1afffff5 	bne	9960 <pl011_uart_puts+0x24>
    9988:	e12fff1e 	bx	lr
    998c:	0001b88c 	.word	0x0001b88c

00009990 <set_Activity_LED>:
    9990:	e92d40f0 	push	{r4, r5, r6, r7, lr}
    9994:	e59f416c 	ldr	r4, [pc, #364]	; 9b08 <set_Activity_LED+0x178>
    9998:	e24dd024 	sub	sp, sp, #36	; 0x24
    999c:	e5d4c000 	ldrb	ip, [r4]
    99a0:	e1a05000 	mov	r5, r0
    99a4:	e35c0000 	cmp	ip, #0
    99a8:	0a000027 	beq	9a4c <set_Activity_LED+0xbc>
    99ac:	e5d42001 	ldrb	r2, [r4, #1]
    99b0:	e59f3154 	ldr	r3, [pc, #340]	; 9b0c <set_Activity_LED+0x17c>
    99b4:	e3520000 	cmp	r2, #0
    99b8:	e5932000 	ldr	r2, [r3]
    99bc:	1a000017 	bne	9a20 <set_Activity_LED+0x90>
    99c0:	e3520035 	cmp	r2, #53	; 0x35
    99c4:	9a000036 	bls	9aa4 <set_Activity_LED+0x114>
    99c8:	e1a0000c 	mov	r0, ip
    99cc:	e28dd024 	add	sp, sp, #36	; 0x24
    99d0:	e8bd80f0 	pop	{r4, r5, r6, r7, pc}
    99d4:	e59f3134 	ldr	r3, [pc, #308]	; 9b10 <set_Activity_LED+0x180>
    99d8:	e1520003 	cmp	r2, r3
    99dc:	9a00003f 	bls	9ae0 <set_Activity_LED+0x150>
    99e0:	e59f312c 	ldr	r3, [pc, #300]	; 9b14 <set_Activity_LED+0x184>
    99e4:	e59f012c 	ldr	r0, [pc, #300]	; 9b18 <set_Activity_LED+0x188>
    99e8:	e59f112c 	ldr	r1, [pc, #300]	; 9b1c <set_Activity_LED+0x18c>
    99ec:	e1520000 	cmp	r2, r0
    99f0:	11520003 	cmpne	r2, r3
    99f4:	03a03001 	moveq	r3, #1
    99f8:	13a03000 	movne	r3, #0
    99fc:	e3c22802 	bic	r2, r2, #131072	; 0x20000
    9a00:	e1520001 	cmp	r2, r1
    9a04:	03833001 	orreq	r3, r3, #1
    9a08:	e3530000 	cmp	r3, #0
    9a0c:	0a000038 	beq	9af4 <set_Activity_LED+0x164>
    9a10:	e3a02082 	mov	r2, #130	; 0x82
    9a14:	e59f30f0 	ldr	r3, [pc, #240]	; 9b0c <set_Activity_LED+0x17c>
    9a18:	e5c46001 	strb	r6, [r4, #1]
    9a1c:	e5832000 	str	r2, [r3]
    9a20:	e3a03008 	mov	r3, #8
    9a24:	e98d0024 	stmib	sp, {r2, r5}
    9a28:	e58d3000 	str	r3, [sp]
    9a2c:	e59f20ec 	ldr	r2, [pc, #236]	; 9b20 <set_Activity_LED+0x190>
    9a30:	e3a01005 	mov	r1, #5
    9a34:	e3a00000 	mov	r0, #0
    9a38:	ebfffb1c 	bl	86b0 <mailbox_tag_message.constprop.5>
    9a3c:	e1a0c000 	mov	ip, r0
    9a40:	e1a0000c 	mov	r0, ip
    9a44:	e28dd024 	add	sp, sp, #36	; 0x24
    9a48:	e8bd80f0 	pop	{r4, r5, r6, r7, pc}
    9a4c:	e3a03004 	mov	r3, #4
    9a50:	e3a06001 	mov	r6, #1
    9a54:	e88d1008 	stm	sp, {r3, ip}
    9a58:	e1a01003 	mov	r1, r3
    9a5c:	e59f20c0 	ldr	r2, [pc, #192]	; 9b24 <set_Activity_LED+0x194>
    9a60:	e28d0010 	add	r0, sp, #16
    9a64:	e1a0700c 	mov	r7, ip
    9a68:	e5c46000 	strb	r6, [r4]
    9a6c:	ebfffb42 	bl	877c <mailbox_tag_message.constprop.6>
    9a70:	e250c000 	subs	ip, r0, #0
    9a74:	0affffd3 	beq	99c8 <set_Activity_LED+0x38>
    9a78:	e59d201c 	ldr	r2, [sp, #28]
    9a7c:	e59d3010 	ldr	r3, [sp, #16]
    9a80:	e2421002 	sub	r1, r2, #2
    9a84:	e3c334ff 	bic	r3, r3, #-16777216	; 0xff000000
    9a88:	e351000d 	cmp	r1, #13
    9a8c:	e58d3010 	str	r3, [sp, #16]
    9a90:	8affffcf 	bhi	99d4 <set_Activity_LED+0x44>
    9a94:	e3a02010 	mov	r2, #16
    9a98:	e59f306c 	ldr	r3, [pc, #108]	; 9b0c <set_Activity_LED+0x17c>
    9a9c:	e5c47001 	strb	r7, [r4, #1]
    9aa0:	e5832000 	str	r2, [r3]
    9aa4:	e3a0c001 	mov	ip, #1
    9aa8:	e3a01001 	mov	r1, #1
    9aac:	e202001f 	and	r0, r2, #31
    9ab0:	e1a01011 	lsl	r1, r1, r0
    9ab4:	e1a0000c 	mov	r0, ip
    9ab8:	e59f3068 	ldr	r3, [pc, #104]	; 9b28 <set_Activity_LED+0x198>
    9abc:	e3550000 	cmp	r5, #0
    9ac0:	e5933000 	ldr	r3, [r3]
    9ac4:	e1a022a2 	lsr	r2, r2, #5
    9ac8:	e2833602 	add	r3, r3, #2097152	; 0x200000
    9acc:	1283301c 	addne	r3, r3, #28
    9ad0:	02833028 	addeq	r3, r3, #40	; 0x28
    9ad4:	e7831102 	str	r1, [r3, r2, lsl #2]
    9ad8:	e28dd024 	add	sp, sp, #36	; 0x24
    9adc:	e8bd80f0 	pop	{r4, r5, r6, r7, pc}
    9ae0:	e3a0202f 	mov	r2, #47	; 0x2f
    9ae4:	e59f3020 	ldr	r3, [pc, #32]	; 9b0c <set_Activity_LED+0x17c>
    9ae8:	e5c47001 	strb	r7, [r4, #1]
    9aec:	e5832000 	str	r2, [r3]
    9af0:	eaffffeb 	b	9aa4 <set_Activity_LED+0x114>
    9af4:	e3a0201d 	mov	r2, #29
    9af8:	e59f100c 	ldr	r1, [pc, #12]	; 9b0c <set_Activity_LED+0x17c>
    9afc:	e5c43001 	strb	r3, [r4, #1]
    9b00:	e5812000 	str	r2, [r1]
    9b04:	eaffffe6 	b	9aa4 <set_Activity_LED+0x114>
    9b08:	0001d8e0 	.word	0x0001d8e0
    9b0c:	0001b8c0 	.word	0x0001b8c0
    9b10:	00a02081 	.word	0x00a02081
    9b14:	00a020a0 	.word	0x00a020a0
    9b18:	00a32082 	.word	0x00a32082
    9b1c:	00a02082 	.word	0x00a02082
    9b20:	00038041 	.word	0x00038041
    9b24:	00010002 	.word	0x00010002
    9b28:	0001b88c 	.word	0x0001b88c

00009b2c <ARM_setmaxspeed>:
    9b2c:	e92d4070 	push	{r4, r5, r6, lr}
    9b30:	e3a0c000 	mov	ip, #0
    9b34:	e3a04008 	mov	r4, #8
    9b38:	e3a05003 	mov	r5, #3
    9b3c:	e24dd028 	sub	sp, sp, #40	; 0x28
    9b40:	e1a06000 	mov	r6, r0
    9b44:	e58dc008 	str	ip, [sp, #8]
    9b48:	e28d0014 	add	r0, sp, #20
    9b4c:	e88d0030 	stm	sp, {r4, r5}
    9b50:	e1a03004 	mov	r3, r4
    9b54:	e59f2078 	ldr	r2, [pc, #120]	; 9bd4 <ARM_setmaxspeed+0xa8>
    9b58:	e3a01005 	mov	r1, #5
    9b5c:	e58dc014 	str	ip, [sp, #20]
    9b60:	e58dc018 	str	ip, [sp, #24]
    9b64:	e58dc01c 	str	ip, [sp, #28]
    9b68:	e58dc020 	str	ip, [sp, #32]
    9b6c:	e58dc024 	str	ip, [sp, #36]	; 0x24
    9b70:	ebfffb3e 	bl	8870 <mailbox_tag_message.constprop.7>
    9b74:	e3500000 	cmp	r0, #0
    9b78:	1a000003 	bne	9b8c <ARM_setmaxspeed+0x60>
    9b7c:	e3a04000 	mov	r4, #0
    9b80:	e1a00004 	mov	r0, r4
    9b84:	e28dd028 	add	sp, sp, #40	; 0x28
    9b88:	e8bd8070 	pop	{r4, r5, r6, pc}
    9b8c:	e59d2024 	ldr	r2, [sp, #36]	; 0x24
    9b90:	e88d0030 	stm	sp, {r4, r5}
    9b94:	e1a03004 	mov	r3, r4
    9b98:	e58d2008 	str	r2, [sp, #8]
    9b9c:	e28d0014 	add	r0, sp, #20
    9ba0:	e59f2030 	ldr	r2, [pc, #48]	; 9bd8 <ARM_setmaxspeed+0xac>
    9ba4:	e3a01005 	mov	r1, #5
    9ba8:	ebfffb30 	bl	8870 <mailbox_tag_message.constprop.7>
    9bac:	e2504000 	subs	r4, r0, #0
    9bb0:	0afffff1 	beq	9b7c <ARM_setmaxspeed+0x50>
    9bb4:	e3560000 	cmp	r6, #0
    9bb8:	0afffff0 	beq	9b80 <ARM_setmaxspeed+0x54>
    9bbc:	e59d1024 	ldr	r1, [sp, #36]	; 0x24
    9bc0:	e59f0014 	ldr	r0, [pc, #20]	; 9bdc <ARM_setmaxspeed+0xb0>
    9bc4:	e12fff36 	blx	r6
    9bc8:	e1a00004 	mov	r0, r4
    9bcc:	e28dd028 	add	sp, sp, #40	; 0x28
    9bd0:	e8bd8070 	pop	{r4, r5, r6, pc}
    9bd4:	00030004 	.word	0x00030004
    9bd8:	00038002 	.word	0x00038002
    9bdc:	00012084 	.word	0x00012084

00009be0 <displaySmartStart>:
    9be0:	e92d4010 	push	{r4, lr}
    9be4:	e2504000 	subs	r4, r0, #0
    9be8:	e24dd018 	sub	sp, sp, #24
    9bec:	0a00001c 	beq	9c64 <displaySmartStart+0x84>
    9bf0:	e59f3074 	ldr	r3, [pc, #116]	; 9c6c <displaySmartStart+0x8c>
    9bf4:	e59f0074 	ldr	r0, [pc, #116]	; 9c70 <displaySmartStart+0x90>
    9bf8:	e1d3c0d3 	ldrsb	ip, [r3, #3]
    9bfc:	e59f1070 	ldr	r1, [pc, #112]	; 9c74 <displaySmartStart+0x94>
    9c00:	e35c0000 	cmp	ip, #0
    9c04:	a1a01000 	movge	r1, r0
    9c08:	e5d32000 	ldrb	r2, [r3]
    9c0c:	e59f0064 	ldr	r0, [pc, #100]	; 9c78 <displaySmartStart+0x98>
    9c10:	e1a03222 	lsr	r3, r2, #4
    9c14:	e2033001 	and	r3, r3, #1
    9c18:	e59fe05c 	ldr	lr, [pc, #92]	; 9c7c <displaySmartStart+0x9c>
    9c1c:	e2833001 	add	r3, r3, #1
    9c20:	e59fc058 	ldr	ip, [pc, #88]	; 9c80 <displaySmartStart+0xa0>
    9c24:	e1a03283 	lsl	r3, r3, #5
    9c28:	e1d000b0 	ldrh	r0, [r0]
    9c2c:	e59ee000 	ldr	lr, [lr]
    9c30:	e58d3004 	str	r3, [sp, #4]
    9c34:	e58d1010 	str	r1, [sp, #16]
    9c38:	e5dc1002 	ldrb	r1, [ip, #2]
    9c3c:	e1dcc0b0 	ldrh	ip, [ip]
    9c40:	e202200f 	and	r2, r2, #15
    9c44:	e1a00220 	lsr	r0, r0, #4
    9c48:	e58d2000 	str	r2, [sp]
    9c4c:	e58d0008 	str	r0, [sp, #8]
    9c50:	e6ef307c 	uxtb	r3, ip
    9c54:	e1a0242c 	lsr	r2, ip, #8
    9c58:	e58de00c 	str	lr, [sp, #12]
    9c5c:	e59f0020 	ldr	r0, [pc, #32]	; 9c84 <displaySmartStart+0xa4>
    9c60:	e12fff34 	blx	r4
    9c64:	e28dd018 	add	sp, sp, #24
    9c68:	e8bd8010 	pop	{r4, pc}
    9c6c:	0001b8a4 	.word	0x0001b8a4
    9c70:	000120a8 	.word	0x000120a8
    9c74:	000120a0 	.word	0x000120a0
    9c78:	0001b8a0 	.word	0x0001b8a0
    9c7c:	0001b898 	.word	0x0001b898
    9c80:	0001b8ac 	.word	0x0001b8ac
    9c84:	000120b0 	.word	0x000120b0

00009c88 <GetFont>:
    9c88:	e3500002 	cmp	r0, #2
    9c8c:	959f3008 	ldrls	r3, [pc, #8]	; 9c9c <GetFont+0x14>
    9c90:	97930100 	ldrls	r0, [r3, r0, lsl #2]
    9c94:	83a00000 	movhi	r0, #0
    9c98:	e12fff1e 	bx	lr
    9c9c:	000120f8 	.word	0x000120f8

00009ca0 <c_irq_handler>:
    9ca0:	e59f3028 	ldr	r3, [pc, #40]	; 9cd0 <c_irq_handler+0x30>
    9ca4:	e92d4010 	push	{r4, lr}
    9ca8:	e5d32000 	ldrb	r2, [r3]
    9cac:	e3520000 	cmp	r2, #0
    9cb0:	03a02001 	moveq	r2, #1
    9cb4:	13a00000 	movne	r0, #0
    9cb8:	01a00002 	moveq	r0, r2
    9cbc:	15c30000 	strbne	r0, [r3]
    9cc0:	05c32000 	strbeq	r2, [r3]
    9cc4:	ebffff31 	bl	9990 <set_Activity_LED>
    9cc8:	e8bd4010 	pop	{r4, lr}
    9ccc:	eafffc9a 	b	8f3c <ClearTimerIrq>
    9cd0:	0001d8e2 	.word	0x0001d8e2

00009cd4 <main>:
    9cd4:	e92d41f0 	push	{r4, r5, r6, r7, r8, lr}
    9cd8:	e59f00c0 	ldr	r0, [pc, #192]	; 9da0 <main+0xcc>
    9cdc:	e24dd028 	sub	sp, sp, #40	; 0x28
    9ce0:	eb000727 	bl	b984 <Init_EmbStdio>
    9ce4:	e3a02000 	mov	r2, #0
    9ce8:	e59f30b4 	ldr	r3, [pc, #180]	; 9da4 <main+0xd0>
    9cec:	e1a01002 	mov	r1, r2
    9cf0:	e1a00002 	mov	r0, r2
    9cf4:	eb001d6e 	bl	112b4 <PiConsole_Init>
    9cf8:	e59f00a4 	ldr	r0, [pc, #164]	; 9da4 <main+0xd0>
    9cfc:	ebffffb7 	bl	9be0 <displaySmartStart>
    9d00:	e59f009c 	ldr	r0, [pc, #156]	; 9da4 <main+0xd0>
    9d04:	e3a04000 	mov	r4, #0
    9d08:	ebffff87 	bl	9b2c <ARM_setmaxspeed>
    9d0c:	eb001141 	bl	e218 <spi_init>
    9d10:	e3a03008 	mov	r3, #8
    9d14:	e3a02004 	mov	r2, #4
    9d18:	e58d3000 	str	r3, [sp]
    9d1c:	e58d2004 	str	r2, [sp, #4]
    9d20:	e3a01005 	mov	r1, #5
    9d24:	e59f207c 	ldr	r2, [pc, #124]	; 9da8 <main+0xd4>
    9d28:	e58d4008 	str	r4, [sp, #8]
    9d2c:	e28d0014 	add	r0, sp, #20
    9d30:	e58d4014 	str	r4, [sp, #20]
    9d34:	e58d4018 	str	r4, [sp, #24]
    9d38:	e58d401c 	str	r4, [sp, #28]
    9d3c:	e58d4020 	str	r4, [sp, #32]
    9d40:	e58d4024 	str	r4, [sp, #36]	; 0x24
    9d44:	ebfffc2f 	bl	8e08 <mailbox_tag_message>
    9d48:	e59d1024 	ldr	r1, [sp, #36]	; 0x24
    9d4c:	e59f0058 	ldr	r0, [pc, #88]	; 9dac <main+0xd8>
    9d50:	eb00070f 	bl	b994 <printf>
    9d54:	e59f0054 	ldr	r0, [pc, #84]	; 9db0 <main+0xdc>
    9d58:	ebfffcc0 	bl	9060 <TimerIrqSetup>
    9d5c:	e59f0050 	ldr	r0, [pc, #80]	; 9db4 <main+0xe0>
    9d60:	ebfff9dc 	bl	84d8 <setIrqFuncAddress>
    9d64:	e3a07000 	mov	r7, #0
    9d68:	ebfff9b6 	bl	8448 <EnableInterrupts>
    9d6c:	e3a0107c 	mov	r1, #124	; 0x7c
    9d70:	e59f6040 	ldr	r6, [pc, #64]	; 9db8 <main+0xe4>
    9d74:	e59f8040 	ldr	r8, [pc, #64]	; 9dbc <main+0xe8>
    9d78:	e59f5040 	ldr	r5, [pc, #64]	; 9dc0 <main+0xec>
    9d7c:	e1a00005 	mov	r0, r5
    9d80:	e2844001 	add	r4, r4, #1
    9d84:	eb000702 	bl	b994 <printf>
    9d88:	e2044003 	and	r4, r4, #3
    9d8c:	e1a01007 	mov	r1, r7
    9d90:	e1a00006 	mov	r0, r6
    9d94:	ebfffbd8 	bl	8cfc <timer_wait>
    9d98:	e7d81004 	ldrb	r1, [r8, r4]
    9d9c:	eafffff6 	b	9d7c <main+0xa8>
    9da0:	0001165c 	.word	0x0001165c
    9da4:	0000b994 	.word	0x0000b994
    9da8:	00030002 	.word	0x00030002
    9dac:	00015510 	.word	0x00015510
    9db0:	0007a120 	.word	0x0007a120
    9db4:	00009ca0 	.word	0x00009ca0
    9db8:	0000c350 	.word	0x0000c350
    9dbc:	0001550c 	.word	0x0001550c
    9dc0:	00015534 	.word	0x00015534

00009dc4 <prn_to_buf>:
    9dc4:	e59f2024 	ldr	r2, [pc, #36]	; 9df0 <prn_to_buf+0x2c>
    9dc8:	e59fc024 	ldr	ip, [pc, #36]	; 9df4 <prn_to_buf+0x30>
    9dcc:	e5923000 	ldr	r3, [r2]
    9dd0:	e59cc000 	ldr	ip, [ip]
    9dd4:	e153000c 	cmp	r3, ip
    9dd8:	b591c000 	ldrlt	ip, [r1]
    9ddc:	b2833001 	addlt	r3, r3, #1
    9de0:	b4cc0001 	strblt	r0, [ip], #1
    9de4:	b5823000 	strlt	r3, [r2]
    9de8:	b581c000 	strlt	ip, [r1]
    9dec:	e12fff1e 	bx	lr
    9df0:	0001d8e4 	.word	0x0001d8e4
    9df4:	0001d8c4 	.word	0x0001d8c4

00009df8 <blockprn_to_buf>:
    9df8:	e59f2054 	ldr	r2, [pc, #84]	; 9e54 <blockprn_to_buf+0x5c>
    9dfc:	e59fc054 	ldr	ip, [pc, #84]	; 9e58 <blockprn_to_buf+0x60>
    9e00:	e5923000 	ldr	r3, [r2]
    9e04:	e59cc000 	ldr	ip, [ip]
    9e08:	e92d4010 	push	{r4, lr}
    9e0c:	e153000c 	cmp	r3, ip
    9e10:	e1a04000 	mov	r4, r0
    9e14:	aa00000c 	bge	9e4c <blockprn_to_buf+0x54>
    9e18:	e273c000 	rsbs	ip, r3, #0
    9e1c:	e6efc07c 	uxtb	ip, ip
    9e20:	e6ef0073 	uxtb	r0, r3
    9e24:	526c0000 	rsbpl	r0, ip, #0
    9e28:	e2833001 	add	r3, r3, #1
    9e2c:	e0820000 	add	r0, r2, r0
    9e30:	e213c0ff 	ands	ip, r3, #255	; 0xff
    9e34:	e5c04004 	strb	r4, [r0, #4]
    9e38:	e5823000 	str	r3, [r2]
    9e3c:	1a000002 	bne	9e4c <blockprn_to_buf+0x54>
    9e40:	e5c2c104 	strb	ip, [r2, #260]	; 0x104
    9e44:	e2820004 	add	r0, r2, #4
    9e48:	e12fff31 	blx	r1
    9e4c:	e1a00004 	mov	r0, r4
    9e50:	e8bd8010 	pop	{r4, pc}
    9e54:	0001d8e4 	.word	0x0001d8e4
    9e58:	0001d8c4 	.word	0x0001d8c4

00009e5c <_doprnt.constprop.2>:
    9e5c:	e92d4ff0 	push	{r4, r5, r6, r7, r8, r9, sl, fp, lr}
    9e60:	e3a0b000 	mov	fp, #0
    9e64:	e24dd074 	sub	sp, sp, #116	; 0x74
    9e68:	e1a05000 	mov	r5, r0
    9e6c:	e1a0a002 	mov	sl, r2
    9e70:	e1a06001 	mov	r6, r1
    9e74:	e59f88d8 	ldr	r8, [pc, #2264]	; a754 <_doprnt.constprop.2+0x8f8>
    9e78:	e59f98d8 	ldr	r9, [pc, #2264]	; a758 <_doprnt.constprop.2+0x8fc>
    9e7c:	ea000009 	b	9ea8 <_doprnt.constprop.2+0x4c>
    9e80:	e1a05000 	mov	r5, r0
    9e84:	e5991000 	ldr	r1, [r9]
    9e88:	e5982000 	ldr	r2, [r8]
    9e8c:	e28bb001 	add	fp, fp, #1
    9e90:	e1520001 	cmp	r2, r1
    9e94:	b59a1000 	ldrlt	r1, [sl]
    9e98:	b2822001 	addlt	r2, r2, #1
    9e9c:	b4c13001 	strblt	r3, [r1], #1
    9ea0:	b5882000 	strlt	r2, [r8]
    9ea4:	b58a1000 	strlt	r1, [sl]
    9ea8:	e5d53000 	ldrb	r3, [r5]
    9eac:	e3530000 	cmp	r3, #0
    9eb0:	0a00005c 	beq	a028 <_doprnt.constprop.2+0x1cc>
    9eb4:	e3530025 	cmp	r3, #37	; 0x25
    9eb8:	e2850001 	add	r0, r5, #1
    9ebc:	1affffef 	bne	9e80 <_doprnt.constprop.2+0x24>
    9ec0:	e5d5c001 	ldrb	ip, [r5, #1]
    9ec4:	e35c0025 	cmp	ip, #37	; 0x25
    9ec8:	02850002 	addeq	r0, r5, #2
    9ecc:	0affffeb 	beq	9e80 <_doprnt.constprop.2+0x24>
    9ed0:	e3a02000 	mov	r2, #0
    9ed4:	e3a01020 	mov	r1, #32
    9ed8:	e35c002d 	cmp	ip, #45	; 0x2d
    9edc:	e1a05000 	mov	r5, r0
    9ee0:	e58d2004 	str	r2, [sp, #4]
    9ee4:	e58d1000 	str	r1, [sp]
    9ee8:	0a000055 	beq	a044 <_doprnt.constprop.2+0x1e8>
    9eec:	e35c0030 	cmp	ip, #48	; 0x30
    9ef0:	0a000056 	beq	a050 <_doprnt.constprop.2+0x1f4>
    9ef4:	e35c0023 	cmp	ip, #35	; 0x23
    9ef8:	0a00004d 	beq	a034 <_doprnt.constprop.2+0x1d8>
    9efc:	e35c002a 	cmp	ip, #42	; 0x2a
    9f00:	0a000054 	beq	a058 <_doprnt.constprop.2+0x1fc>
    9f04:	e24c1030 	sub	r1, ip, #48	; 0x30
    9f08:	e6efe071 	uxtb	lr, r1
    9f0c:	e35e0009 	cmp	lr, #9
    9f10:	e3a04000 	mov	r4, #0
    9f14:	8a000006 	bhi	9f34 <_doprnt.constprop.2+0xd8>
    9f18:	e5f5c001 	ldrb	ip, [r5, #1]!
    9f1c:	e0844104 	add	r4, r4, r4, lsl #2
    9f20:	e0814084 	add	r4, r1, r4, lsl #1
    9f24:	e24c1030 	sub	r1, ip, #48	; 0x30
    9f28:	e6efe071 	uxtb	lr, r1
    9f2c:	e35e0009 	cmp	lr, #9
    9f30:	9afffff8 	bls	9f18 <_doprnt.constprop.2+0xbc>
    9f34:	e59d1004 	ldr	r1, [sp, #4]
    9f38:	e3510000 	cmp	r1, #0
    9f3c:	e59d1000 	ldr	r1, [sp]
    9f40:	13a01020 	movne	r1, #32
    9f44:	e58d1000 	str	r1, [sp]
    9f48:	03a01001 	moveq	r1, #1
    9f4c:	13a01000 	movne	r1, #0
    9f50:	e58d1010 	str	r1, [sp, #16]
    9f54:	e35c002e 	cmp	ip, #46	; 0x2e
    9f58:	13e01000 	mvnne	r1, #0
    9f5c:	158d100c 	strne	r1, [sp, #12]
    9f60:	0a00018b 	beq	a594 <_doprnt.constprop.2+0x738>
    9f64:	e35c006c 	cmp	ip, #108	; 0x6c
    9f68:	0a000181 	beq	a574 <_doprnt.constprop.2+0x718>
    9f6c:	e35c0068 	cmp	ip, #104	; 0x68
    9f70:	13a01002 	movne	r1, #2
    9f74:	1a000006 	bne	9f94 <_doprnt.constprop.2+0x138>
    9f78:	e5d5c001 	ldrb	ip, [r5, #1]
    9f7c:	e35c0068 	cmp	ip, #104	; 0x68
    9f80:	13a01001 	movne	r1, #1
    9f84:	03a01000 	moveq	r1, #0
    9f88:	05d5c002 	ldrbeq	ip, [r5, #2]
    9f8c:	12855001 	addne	r5, r5, #1
    9f90:	02855002 	addeq	r5, r5, #2
    9f94:	e24cc058 	sub	ip, ip, #88	; 0x58
    9f98:	e35c0020 	cmp	ip, #32
    9f9c:	979ff10c 	ldrls	pc, [pc, ip, lsl #2]
    9fa0:	eaffffb6 	b	9e80 <_doprnt.constprop.2+0x24>
    9fa4:	0000a36c 	.word	0x0000a36c
    9fa8:	00009e80 	.word	0x00009e80
    9fac:	00009e80 	.word	0x00009e80
    9fb0:	00009e80 	.word	0x00009e80
    9fb4:	00009e80 	.word	0x00009e80
    9fb8:	00009e80 	.word	0x00009e80
    9fbc:	00009e80 	.word	0x00009e80
    9fc0:	00009e80 	.word	0x00009e80
    9fc4:	00009e80 	.word	0x00009e80
    9fc8:	00009e80 	.word	0x00009e80
    9fcc:	0000a094 	.word	0x0000a094
    9fd0:	0000a51c 	.word	0x0000a51c
    9fd4:	0000a480 	.word	0x0000a480
    9fd8:	00009e80 	.word	0x00009e80
    9fdc:	00009e80 	.word	0x00009e80
    9fe0:	00009e80 	.word	0x00009e80
    9fe4:	00009e80 	.word	0x00009e80
    9fe8:	0000a480 	.word	0x0000a480
    9fec:	00009e80 	.word	0x00009e80
    9ff0:	00009e80 	.word	0x00009e80
    9ff4:	00009e80 	.word	0x00009e80
    9ff8:	00009e80 	.word	0x00009e80
    9ffc:	00009e80 	.word	0x00009e80
    a000:	0000a460 	.word	0x0000a460
    a004:	0000a420 	.word	0x0000a420
    a008:	00009e80 	.word	0x00009e80
    a00c:	00009e80 	.word	0x00009e80
    a010:	0000a3ac 	.word	0x0000a3ac
    a014:	00009e80 	.word	0x00009e80
    a018:	0000a394 	.word	0x0000a394
    a01c:	00009e80 	.word	0x00009e80
    a020:	00009e80 	.word	0x00009e80
    a024:	0000a38c 	.word	0x0000a38c
    a028:	e1a0000b 	mov	r0, fp
    a02c:	e28dd074 	add	sp, sp, #116	; 0x74
    a030:	e8bd8ff0 	pop	{r4, r5, r6, r7, r8, r9, sl, fp, pc}
    a034:	e3a02001 	mov	r2, #1
    a038:	e5f5c001 	ldrb	ip, [r5, #1]!
    a03c:	e35c002d 	cmp	ip, #45	; 0x2d
    a040:	1affffa9 	bne	9eec <_doprnt.constprop.2+0x90>
    a044:	e3a01001 	mov	r1, #1
    a048:	e58d1004 	str	r1, [sp, #4]
    a04c:	eafffff9 	b	a038 <_doprnt.constprop.2+0x1dc>
    a050:	e58dc000 	str	ip, [sp]
    a054:	eafffff7 	b	a038 <_doprnt.constprop.2+0x1dc>
    a058:	e5964000 	ldr	r4, [r6]
    a05c:	e2851001 	add	r1, r5, #1
    a060:	e3540000 	cmp	r4, #0
    a064:	e5d5c001 	ldrb	ip, [r5, #1]
    a068:	e2866004 	add	r6, r6, #4
    a06c:	a1a05001 	movge	r5, r1
    a070:	aaffffaf 	bge	9f34 <_doprnt.constprop.2+0xd8>
    a074:	e1a05001 	mov	r5, r1
    a078:	e3a01000 	mov	r1, #0
    a07c:	e3a07001 	mov	r7, #1
    a080:	e58d1010 	str	r1, [sp, #16]
    a084:	e3a01020 	mov	r1, #32
    a088:	e2644000 	rsb	r4, r4, #0
    a08c:	e88d0082 	stm	sp, {r1, r7}
    a090:	eaffffaf 	b	9f54 <_doprnt.constprop.2+0xf8>
    a094:	e3a07000 	mov	r7, #0
    a098:	e3a00002 	mov	r0, #2
    a09c:	e3a0c001 	mov	ip, #1
    a0a0:	e1a03007 	mov	r3, r7
    a0a4:	e58d0018 	str	r0, [sp, #24]
    a0a8:	e3510004 	cmp	r1, #4
    a0ac:	02861007 	addeq	r1, r6, #7
    a0b0:	03c11007 	biceq	r1, r1, #7
    a0b4:	02810008 	addeq	r0, r1, #8
    a0b8:	058d001c 	streq	r0, [sp, #28]
    a0bc:	15960000 	ldrne	r0, [r6]
    a0c0:	05910000 	ldreq	r0, [r1]
    a0c4:	12861004 	addne	r1, r6, #4
    a0c8:	158d101c 	strne	r1, [sp, #28]
    a0cc:	e3500000 	cmp	r0, #0
    a0d0:	03a07000 	moveq	r7, #0
    a0d4:	e3570000 	cmp	r7, #0
    a0d8:	e2855001 	add	r5, r5, #1
    a0dc:	0a000195 	beq	a738 <_doprnt.constprop.2+0x8dc>
    a0e0:	e3a07000 	mov	r7, #0
    a0e4:	e3a02001 	mov	r2, #1
    a0e8:	e58d7014 	str	r7, [sp, #20]
    a0ec:	e58d2008 	str	r2, [sp, #8]
    a0f0:	e3530000 	cmp	r3, #0
    a0f4:	0a0000f3 	beq	a4c8 <_doprnt.constprop.2+0x66c>
    a0f8:	e3a02000 	mov	r2, #0
    a0fc:	e35c0000 	cmp	ip, #0
    a100:	e59f3654 	ldr	r3, [pc, #1620]	; a75c <_doprnt.constprop.2+0x900>
    a104:	e5cd204c 	strb	r2, [sp, #76]	; 0x4c
    a108:	1a0000f3 	bne	a4dc <_doprnt.constprop.2+0x680>
    a10c:	e59d1018 	ldr	r1, [sp, #24]
    a110:	e58d3020 	str	r3, [sp, #32]
    a114:	eb001fc3 	bl	12028 <__aeabi_uidivmod>
    a118:	e59d3020 	ldr	r3, [sp, #32]
    a11c:	e3500000 	cmp	r0, #0
    a120:	e7d31001 	ldrb	r1, [r3, r1]
    a124:	e3a06001 	mov	r6, #1
    a128:	e5cd104d 	strb	r1, [sp, #77]	; 0x4d
    a12c:	0a000010 	beq	a174 <_doprnt.constprop.2+0x318>
    a130:	e28d204e 	add	r2, sp, #78	; 0x4e
    a134:	e58d4020 	str	r4, [sp, #32]
    a138:	e58d5024 	str	r5, [sp, #36]	; 0x24
    a13c:	e59d4018 	ldr	r4, [sp, #24]
    a140:	e1a05003 	mov	r5, r3
    a144:	e58d7018 	str	r7, [sp, #24]
    a148:	e1a07002 	mov	r7, r2
    a14c:	e1a01004 	mov	r1, r4
    a150:	eb001fb4 	bl	12028 <__aeabi_uidivmod>
    a154:	e7d51001 	ldrb	r1, [r5, r1]
    a158:	e3500000 	cmp	r0, #0
    a15c:	e2866001 	add	r6, r6, #1
    a160:	e4c71001 	strb	r1, [r7], #1
    a164:	1afffff8 	bne	a14c <_doprnt.constprop.2+0x2f0>
    a168:	e59d4020 	ldr	r4, [sp, #32]
    a16c:	e59d7018 	ldr	r7, [sp, #24]
    a170:	e59d5024 	ldr	r5, [sp, #36]	; 0x24
    a174:	e28d2070 	add	r2, sp, #112	; 0x70
    a178:	e0826006 	add	r6, r2, r6
    a17c:	e28d3028 	add	r3, sp, #40	; 0x28
    a180:	e2466025 	sub	r6, r6, #37	; 0x25
    a184:	e28d204b 	add	r2, sp, #75	; 0x4b
    a188:	ea000000 	b	a190 <_doprnt.constprop.2+0x334>
    a18c:	e4561001 	ldrb	r1, [r6], #-1
    a190:	e1560002 	cmp	r6, r2
    a194:	e4c31001 	strb	r1, [r3], #1
    a198:	1afffffb 	bne	a18c <_doprnt.constprop.2+0x330>
    a19c:	e28d0028 	add	r0, sp, #40	; 0x28
    a1a0:	eb001f4b 	bl	11ed4 <strlen>
    a1a4:	e59d300c 	ldr	r3, [sp, #12]
    a1a8:	e3530000 	cmp	r3, #0
    a1ac:	ba000112 	blt	a5fc <_doprnt.constprop.2+0x7a0>
    a1b0:	e1500003 	cmp	r0, r3
    a1b4:	a3a02000 	movge	r2, #0
    a1b8:	b28d2028 	addlt	r2, sp, #40	; 0x28
    a1bc:	a28d3028 	addge	r3, sp, #40	; 0x28
    a1c0:	e3a01020 	mov	r1, #32
    a1c4:	b58d2018 	strlt	r2, [sp, #24]
    a1c8:	a58d3018 	strge	r3, [sp, #24]
    a1cc:	b3a02000 	movlt	r2, #0
    a1d0:	a1a03002 	movge	r3, r2
    a1d4:	b0433000 	sublt	r3, r3, r0
    a1d8:	e58d1000 	str	r1, [sp]
    a1dc:	e0801003 	add	r1, r0, r3
    a1e0:	e0817007 	add	r7, r1, r7
    a1e4:	e1570004 	cmp	r7, r4
    a1e8:	b0444007 	sublt	r4, r4, r7
    a1ec:	a3a04000 	movge	r4, #0
    a1f0:	e3520000 	cmp	r2, #0
    a1f4:	1a0000d2 	bne	a544 <_doprnt.constprop.2+0x6e8>
    a1f8:	e59d2008 	ldr	r2, [sp, #8]
    a1fc:	e58d400c 	str	r4, [sp, #12]
    a200:	e3520000 	cmp	r2, #0
    a204:	0a000148 	beq	a72c <_doprnt.constprop.2+0x8d0>
    a208:	e1a04003 	mov	r4, r3
    a20c:	e5983000 	ldr	r3, [r8]
    a210:	e5992000 	ldr	r2, [r9]
    a214:	e28be001 	add	lr, fp, #1
    a218:	e1530002 	cmp	r3, r2
    a21c:	aa0000d0 	bge	a564 <_doprnt.constprop.2+0x708>
    a220:	e59ac000 	ldr	ip, [sl]
    a224:	e3a06030 	mov	r6, #48	; 0x30
    a228:	e1a0100c 	mov	r1, ip
    a22c:	e59d7008 	ldr	r7, [sp, #8]
    a230:	e4c16001 	strb	r6, [r1], #1
    a234:	e3570002 	cmp	r7, #2
    a238:	e2836001 	add	r6, r3, #1
    a23c:	e58a1000 	str	r1, [sl]
    a240:	e5886000 	str	r6, [r8]
    a244:	1a000008 	bne	a26c <_doprnt.constprop.2+0x410>
    a248:	e1560002 	cmp	r6, r2
    a24c:	aa000005 	bge	a268 <_doprnt.constprop.2+0x40c>
    a250:	e3a02078 	mov	r2, #120	; 0x78
    a254:	e2833002 	add	r3, r3, #2
    a258:	e5883000 	str	r3, [r8]
    a25c:	e28c3002 	add	r3, ip, #2
    a260:	e5cc2001 	strb	r2, [ip, #1]
    a264:	e58a3000 	str	r3, [sl]
    a268:	e28be002 	add	lr, fp, #2
    a26c:	e59d3004 	ldr	r3, [sp, #4]
    a270:	e3530000 	cmp	r3, #0
    a274:	0a0000e9 	beq	a620 <_doprnt.constprop.2+0x7c4>
    a278:	e59d1014 	ldr	r1, [sp, #20]
    a27c:	e3510000 	cmp	r1, #0
    a280:	0a000008 	beq	a2a8 <_doprnt.constprop.2+0x44c>
    a284:	e5992000 	ldr	r2, [r9]
    a288:	e5983000 	ldr	r3, [r8]
    a28c:	e28ee001 	add	lr, lr, #1
    a290:	e1530002 	cmp	r3, r2
    a294:	b59a2000 	ldrlt	r2, [sl]
    a298:	b2833001 	addlt	r3, r3, #1
    a29c:	b4c21001 	strblt	r1, [r2], #1
    a2a0:	b5883000 	strlt	r3, [r8]
    a2a4:	b58a2000 	strlt	r2, [sl]
    a2a8:	e3540000 	cmp	r4, #0
    a2ac:	da000012 	ble	a2fc <_doprnt.constprop.2+0x4a0>
    a2b0:	e3a07000 	mov	r7, #0
    a2b4:	e3a0b030 	mov	fp, #48	; 0x30
    a2b8:	e1a03007 	mov	r3, r7
    a2bc:	e5982000 	ldr	r2, [r8]
    a2c0:	e5996000 	ldr	r6, [r9]
    a2c4:	e59a1000 	ldr	r1, [sl]
    a2c8:	e1560002 	cmp	r6, r2
    a2cc:	c3a07001 	movgt	r7, #1
    a2d0:	e281c001 	add	ip, r1, #1
    a2d4:	e2833001 	add	r3, r3, #1
    a2d8:	c5c1b000 	strbgt	fp, [r1]
    a2dc:	c0822007 	addgt	r2, r2, r7
    a2e0:	c1a0100c 	movgt	r1, ip
    a2e4:	c58ac000 	strgt	ip, [sl]
    a2e8:	e1530004 	cmp	r3, r4
    a2ec:	1afffff5 	bne	a2c8 <_doprnt.constprop.2+0x46c>
    a2f0:	e3570000 	cmp	r7, #0
    a2f4:	e083e00e 	add	lr, r3, lr
    a2f8:	15882000 	strne	r2, [r8]
    a2fc:	e3500000 	cmp	r0, #0
    a300:	da000111 	ble	a74c <_doprnt.constprop.2+0x8f0>
    a304:	e3a0b000 	mov	fp, #0
    a308:	e59d3018 	ldr	r3, [sp, #24]
    a30c:	e5982000 	ldr	r2, [r8]
    a310:	e5996000 	ldr	r6, [r9]
    a314:	e59a1000 	ldr	r1, [sl]
    a318:	e0834000 	add	r4, r3, r0
    a31c:	e1520006 	cmp	r2, r6
    a320:	e281c001 	add	ip, r1, #1
    a324:	aa000005 	bge	a340 <_doprnt.constprop.2+0x4e4>
    a328:	e5d37000 	ldrb	r7, [r3]
    a32c:	e3a0b001 	mov	fp, #1
    a330:	e5c17000 	strb	r7, [r1]
    a334:	e1a0100c 	mov	r1, ip
    a338:	e082200b 	add	r2, r2, fp
    a33c:	e58ac000 	str	ip, [sl]
    a340:	e2833001 	add	r3, r3, #1
    a344:	e1540003 	cmp	r4, r3
    a348:	1afffff3 	bne	a31c <_doprnt.constprop.2+0x4c0>
    a34c:	e35b0000 	cmp	fp, #0
    a350:	15882000 	strne	r2, [r8]
    a354:	e08eb000 	add	fp, lr, r0
    a358:	e59d3004 	ldr	r3, [sp, #4]
    a35c:	e3530000 	cmp	r3, #0
    a360:	1a0000d5 	bne	a6bc <_doprnt.constprop.2+0x860>
    a364:	e59d601c 	ldr	r6, [sp, #28]
    a368:	eafffece 	b	9ea8 <_doprnt.constprop.2+0x4c>
    a36c:	e3a03001 	mov	r3, #1
    a370:	e3520001 	cmp	r2, #1
    a374:	e3a0c004 	mov	ip, #4
    a378:	e3a07000 	mov	r7, #0
    a37c:	0a0000e6 	beq	a71c <_doprnt.constprop.2+0x8c0>
    a380:	e3a00010 	mov	r0, #16
    a384:	e58d0018 	str	r0, [sp, #24]
    a388:	eaffff46 	b	a0a8 <_doprnt.constprop.2+0x24c>
    a38c:	e3a03000 	mov	r3, #0
    a390:	eafffff6 	b	a370 <_doprnt.constprop.2+0x514>
    a394:	e3a0c000 	mov	ip, #0
    a398:	e3a0300a 	mov	r3, #10
    a39c:	e1a0700c 	mov	r7, ip
    a3a0:	e58d3018 	str	r3, [sp, #24]
    a3a4:	e1a0300c 	mov	r3, ip
    a3a8:	eaffff3e 	b	a0a8 <_doprnt.constprop.2+0x24c>
    a3ac:	e5963000 	ldr	r3, [r6]
    a3b0:	e59f13a8 	ldr	r1, [pc, #936]	; a760 <_doprnt.constprop.2+0x904>
    a3b4:	e2862004 	add	r2, r6, #4
    a3b8:	e3530000 	cmp	r3, #0
    a3bc:	e58d201c 	str	r2, [sp, #28]
    a3c0:	e1a02003 	mov	r2, r3
    a3c4:	01a02001 	moveq	r2, r1
    a3c8:	e1a00002 	mov	r0, r2
    a3cc:	e58d2018 	str	r2, [sp, #24]
    a3d0:	e3a07000 	mov	r7, #0
    a3d4:	eb001ebe 	bl	11ed4 <strlen>
    a3d8:	e59d3000 	ldr	r3, [sp]
    a3dc:	e59d2010 	ldr	r2, [sp, #16]
    a3e0:	e2855001 	add	r5, r5, #1
    a3e4:	e3530030 	cmp	r3, #48	; 0x30
    a3e8:	13a02000 	movne	r2, #0
    a3ec:	02022001 	andeq	r2, r2, #1
    a3f0:	e59d300c 	ldr	r3, [sp, #12]
    a3f4:	e3530000 	cmp	r3, #0
    a3f8:	b58d7008 	strlt	r7, [sp, #8]
    a3fc:	b58d7014 	strlt	r7, [sp, #20]
    a400:	b1a03007 	movlt	r3, r7
    a404:	baffff74 	blt	a1dc <_doprnt.constprop.2+0x380>
    a408:	e1500003 	cmp	r0, r3
    a40c:	a1a00003 	movge	r0, r3
    a410:	e58d7008 	str	r7, [sp, #8]
    a414:	e58d7014 	str	r7, [sp, #20]
    a418:	e1a03007 	mov	r3, r7
    a41c:	eaffff6e 	b	a1dc <_doprnt.constprop.2+0x380>
    a420:	e3a0c004 	mov	ip, #4
    a424:	e086300c 	add	r3, r6, ip
    a428:	e58d301c 	str	r3, [sp, #28]
    a42c:	e3a03010 	mov	r3, #16
    a430:	e3a02030 	mov	r2, #48	; 0x30
    a434:	e58d3018 	str	r3, [sp, #24]
    a438:	e1a0400c 	mov	r4, ip
    a43c:	e3a03000 	mov	r3, #0
    a440:	e5960000 	ldr	r0, [r6]
    a444:	e2855001 	add	r5, r5, #1
    a448:	e58d2000 	str	r2, [sp]
    a44c:	e3a07000 	mov	r7, #0
    a450:	e3a02002 	mov	r2, #2
    a454:	e58d7014 	str	r7, [sp, #20]
    a458:	e58d2008 	str	r2, [sp, #8]
    a45c:	eaffff23 	b	a0f0 <_doprnt.constprop.2+0x294>
    a460:	e3520001 	cmp	r2, #1
    a464:	0a00008d 	beq	a6a0 <_doprnt.constprop.2+0x844>
    a468:	e3a07000 	mov	r7, #0
    a46c:	e3a00008 	mov	r0, #8
    a470:	e3a0c003 	mov	ip, #3
    a474:	e1a03007 	mov	r3, r7
    a478:	e58d0018 	str	r0, [sp, #24]
    a47c:	eaffff09 	b	a0a8 <_doprnt.constprop.2+0x24c>
    a480:	e3510004 	cmp	r1, #4
    a484:	02863007 	addeq	r3, r6, #7
    a488:	03c33007 	biceq	r3, r3, #7
    a48c:	02832008 	addeq	r2, r3, #8
    a490:	058d201c 	streq	r2, [sp, #28]
    a494:	15962000 	ldrne	r2, [r6]
    a498:	05932000 	ldreq	r2, [r3]
    a49c:	12863004 	addne	r3, r6, #4
    a4a0:	158d301c 	strne	r3, [sp, #28]
    a4a4:	e2520000 	subs	r0, r2, #0
    a4a8:	a3a07000 	movge	r7, #0
    a4ac:	a58d7014 	strge	r7, [sp, #20]
    a4b0:	ba000075 	blt	a68c <_doprnt.constprop.2+0x830>
    a4b4:	e3a0c000 	mov	ip, #0
    a4b8:	e3a0300a 	mov	r3, #10
    a4bc:	e2855001 	add	r5, r5, #1
    a4c0:	e58dc008 	str	ip, [sp, #8]
    a4c4:	e58d3018 	str	r3, [sp, #24]
    a4c8:	e3a02000 	mov	r2, #0
    a4cc:	e35c0000 	cmp	ip, #0
    a4d0:	e59f328c 	ldr	r3, [pc, #652]	; a764 <_doprnt.constprop.2+0x908>
    a4d4:	e5cd204c 	strb	r2, [sp, #76]	; 0x4c
    a4d8:	0affff0b 	beq	a10c <_doprnt.constprop.2+0x2b0>
    a4dc:	e3e0e000 	mvn	lr, #0
    a4e0:	e1e0ec1e 	mvn	lr, lr, lsl ip
    a4e4:	e00e2000 	and	r2, lr, r0
    a4e8:	e7d31002 	ldrb	r1, [r3, r2]
    a4ec:	e1b02c30 	lsrs	r2, r0, ip
    a4f0:	e3a06001 	mov	r6, #1
    a4f4:	e5cd104d 	strb	r1, [sp, #77]	; 0x4d
    a4f8:	0affff1d 	beq	a174 <_doprnt.constprop.2+0x318>
    a4fc:	e28d004e 	add	r0, sp, #78	; 0x4e
    a500:	e00e1002 	and	r1, lr, r2
    a504:	e7d31001 	ldrb	r1, [r3, r1]
    a508:	e1b02c32 	lsrs	r2, r2, ip
    a50c:	e2866001 	add	r6, r6, #1
    a510:	e4c01001 	strb	r1, [r0], #1
    a514:	1afffff9 	bne	a500 <_doprnt.constprop.2+0x6a4>
    a518:	eaffff15 	b	a174 <_doprnt.constprop.2+0x318>
    a51c:	e3a02000 	mov	r2, #0
    a520:	e5963000 	ldr	r3, [r6]
    a524:	e5cd2029 	strb	r2, [sp, #41]	; 0x29
    a528:	e5cd3028 	strb	r3, [sp, #40]	; 0x28
    a52c:	e2863004 	add	r3, r6, #4
    a530:	e58d301c 	str	r3, [sp, #28]
    a534:	e28d3028 	add	r3, sp, #40	; 0x28
    a538:	e58d3018 	str	r3, [sp, #24]
    a53c:	e1a00003 	mov	r0, r3
    a540:	eaffffa2 	b	a3d0 <_doprnt.constprop.2+0x574>
    a544:	e59d3008 	ldr	r3, [sp, #8]
    a548:	e3530000 	cmp	r3, #0
    a54c:	058d300c 	streq	r3, [sp, #12]
    a550:	01a0e00b 	moveq	lr, fp
    a554:	0affff47 	beq	a278 <_doprnt.constprop.2+0x41c>
    a558:	e3a03000 	mov	r3, #0
    a55c:	e58d300c 	str	r3, [sp, #12]
    a560:	eaffff29 	b	a20c <_doprnt.constprop.2+0x3b0>
    a564:	e59d3008 	ldr	r3, [sp, #8]
    a568:	e3530002 	cmp	r3, #2
    a56c:	0affff3d 	beq	a268 <_doprnt.constprop.2+0x40c>
    a570:	eaffff3d 	b	a26c <_doprnt.constprop.2+0x410>
    a574:	e5d5c001 	ldrb	ip, [r5, #1]
    a578:	e35c006c 	cmp	ip, #108	; 0x6c
    a57c:	05d5c002 	ldrbeq	ip, [r5, #2]
    a580:	12855001 	addne	r5, r5, #1
    a584:	13a01003 	movne	r1, #3
    a588:	03a01004 	moveq	r1, #4
    a58c:	02855002 	addeq	r5, r5, #2
    a590:	eafffe7f 	b	9f94 <_doprnt.constprop.2+0x138>
    a594:	e5d5c001 	ldrb	ip, [r5, #1]
    a598:	e35c002a 	cmp	ip, #42	; 0x2a
    a59c:	0a000010 	beq	a5e4 <_doprnt.constprop.2+0x788>
    a5a0:	e24c1030 	sub	r1, ip, #48	; 0x30
    a5a4:	e6efe071 	uxtb	lr, r1
    a5a8:	e35e0009 	cmp	lr, #9
    a5ac:	83a01000 	movhi	r1, #0
    a5b0:	e2855001 	add	r5, r5, #1
    a5b4:	858d100c 	strhi	r1, [sp, #12]
    a5b8:	8afffe69 	bhi	9f64 <_doprnt.constprop.2+0x108>
    a5bc:	e3a0e000 	mov	lr, #0
    a5c0:	e5f5c001 	ldrb	ip, [r5, #1]!
    a5c4:	e08ee10e 	add	lr, lr, lr, lsl #2
    a5c8:	e081e08e 	add	lr, r1, lr, lsl #1
    a5cc:	e24c1030 	sub	r1, ip, #48	; 0x30
    a5d0:	e6ef7071 	uxtb	r7, r1
    a5d4:	e3570009 	cmp	r7, #9
    a5d8:	9afffff8 	bls	a5c0 <_doprnt.constprop.2+0x764>
    a5dc:	e58de00c 	str	lr, [sp, #12]
    a5e0:	eafffe5f 	b	9f64 <_doprnt.constprop.2+0x108>
    a5e4:	e5961000 	ldr	r1, [r6]
    a5e8:	e5d5c002 	ldrb	ip, [r5, #2]
    a5ec:	e58d100c 	str	r1, [sp, #12]
    a5f0:	e2866004 	add	r6, r6, #4
    a5f4:	e2855002 	add	r5, r5, #2
    a5f8:	eafffe59 	b	9f64 <_doprnt.constprop.2+0x108>
    a5fc:	e59d3000 	ldr	r3, [sp]
    a600:	e59d2010 	ldr	r2, [sp, #16]
    a604:	e3530030 	cmp	r3, #48	; 0x30
    a608:	13a02000 	movne	r2, #0
    a60c:	02022001 	andeq	r2, r2, #1
    a610:	e28d3028 	add	r3, sp, #40	; 0x28
    a614:	e58d3018 	str	r3, [sp, #24]
    a618:	e3a03000 	mov	r3, #0
    a61c:	eafffeee 	b	a1dc <_doprnt.constprop.2+0x380>
    a620:	e59d300c 	ldr	r3, [sp, #12]
    a624:	e3530000 	cmp	r3, #0
    a628:	0affff12 	beq	a278 <_doprnt.constprop.2+0x41c>
    a62c:	e1a0b003 	mov	fp, r3
    a630:	e59d3004 	ldr	r3, [sp, #4]
    a634:	e58d0008 	str	r0, [sp, #8]
    a638:	e1a07003 	mov	r7, r3
    a63c:	e5982000 	ldr	r2, [r8]
    a640:	e5996000 	ldr	r6, [r9]
    a644:	e59a1000 	ldr	r1, [sl]
    a648:	e59d0000 	ldr	r0, [sp]
    a64c:	e1560002 	cmp	r6, r2
    a650:	c3a07001 	movgt	r7, #1
    a654:	e281c001 	add	ip, r1, #1
    a658:	e2833001 	add	r3, r3, #1
    a65c:	c5c10000 	strbgt	r0, [r1]
    a660:	c0822007 	addgt	r2, r2, r7
    a664:	c1a0100c 	movgt	r1, ip
    a668:	c58ac000 	strgt	ip, [sl]
    a66c:	e153000b 	cmp	r3, fp
    a670:	1afffff5 	bne	a64c <_doprnt.constprop.2+0x7f0>
    a674:	e3570000 	cmp	r7, #0
    a678:	e59d0008 	ldr	r0, [sp, #8]
    a67c:	e083e00e 	add	lr, r3, lr
    a680:	15882000 	strne	r2, [r8]
    a684:	e58d300c 	str	r3, [sp, #12]
    a688:	eafffefa 	b	a278 <_doprnt.constprop.2+0x41c>
    a68c:	e3a0302d 	mov	r3, #45	; 0x2d
    a690:	e2600000 	rsb	r0, r0, #0
    a694:	e3a07001 	mov	r7, #1
    a698:	e58d3014 	str	r3, [sp, #20]
    a69c:	eaffff84 	b	a4b4 <_doprnt.constprop.2+0x658>
    a6a0:	e3a03008 	mov	r3, #8
    a6a4:	e1a07002 	mov	r7, r2
    a6a8:	e58d3018 	str	r3, [sp, #24]
    a6ac:	e3a0c003 	mov	ip, #3
    a6b0:	e3a03000 	mov	r3, #0
    a6b4:	e3a02002 	mov	r2, #2
    a6b8:	eafffe7a 	b	a0a8 <_doprnt.constprop.2+0x24c>
    a6bc:	e59d400c 	ldr	r4, [sp, #12]
    a6c0:	e3540000 	cmp	r4, #0
    a6c4:	0affff26 	beq	a364 <_doprnt.constprop.2+0x508>
    a6c8:	e3a0e000 	mov	lr, #0
    a6cc:	e1a06003 	mov	r6, r3
    a6d0:	e1a0300e 	mov	r3, lr
    a6d4:	e5982000 	ldr	r2, [r8]
    a6d8:	e599c000 	ldr	ip, [r9]
    a6dc:	e59a1000 	ldr	r1, [sl]
    a6e0:	e59d7000 	ldr	r7, [sp]
    a6e4:	e152000c 	cmp	r2, ip
    a6e8:	e2810001 	add	r0, r1, #1
    a6ec:	e2833001 	add	r3, r3, #1
    a6f0:	b5c17000 	strblt	r7, [r1]
    a6f4:	b1a0e006 	movlt	lr, r6
    a6f8:	b1a01000 	movlt	r1, r0
    a6fc:	b58a0000 	strlt	r0, [sl]
    a700:	b2822001 	addlt	r2, r2, #1
    a704:	e1530004 	cmp	r3, r4
    a708:	1afffff5 	bne	a6e4 <_doprnt.constprop.2+0x888>
    a70c:	e35e0000 	cmp	lr, #0
    a710:	e083b00b 	add	fp, r3, fp
    a714:	15882000 	strne	r2, [r8]
    a718:	eaffff11 	b	a364 <_doprnt.constprop.2+0x508>
    a71c:	e3a02010 	mov	r2, #16
    a720:	e58d2018 	str	r2, [sp, #24]
    a724:	e3a02003 	mov	r2, #3
    a728:	eafffe5e 	b	a0a8 <_doprnt.constprop.2+0x24c>
    a72c:	e1a0e00b 	mov	lr, fp
    a730:	e1a04003 	mov	r4, r3
    a734:	eafffecc 	b	a26c <_doprnt.constprop.2+0x410>
    a738:	e3520003 	cmp	r2, #3
    a73c:	158d7014 	strne	r7, [sp, #20]
    a740:	158d7008 	strne	r7, [sp, #8]
    a744:	0affff40 	beq	a44c <_doprnt.constprop.2+0x5f0>
    a748:	eafffe68 	b	a0f0 <_doprnt.constprop.2+0x294>
    a74c:	e1a0b00e 	mov	fp, lr
    a750:	eaffff00 	b	a358 <_doprnt.constprop.2+0x4fc>
    a754:	0001d8e4 	.word	0x0001d8e4
    a758:	0001d8c4 	.word	0x0001d8c4
    a75c:	00015544 	.word	0x00015544
    a760:	00015564 	.word	0x00015564
    a764:	00015554 	.word	0x00015554

0000a768 <_doprnt.constprop.1>:
    a768:	e92d4ff0 	push	{r4, r5, r6, r7, r8, r9, sl, fp, lr}
    a76c:	e59f79e0 	ldr	r7, [pc, #2528]	; b154 <_doprnt.constprop.1+0x9ec>
    a770:	e24dd084 	sub	sp, sp, #132	; 0x84
    a774:	e1a04000 	mov	r4, r0
    a778:	e1a08002 	mov	r8, r2
    a77c:	e1a06001 	mov	r6, r1
    a780:	e287b004 	add	fp, r7, #4
    a784:	e3a0a000 	mov	sl, #0
    a788:	e59f99c8 	ldr	r9, [pc, #2504]	; b158 <_doprnt.constprop.1+0x9f0>
    a78c:	ea000012 	b	a7dc <_doprnt.constprop.1+0x74>
    a790:	e5972000 	ldr	r2, [r7]
    a794:	e5991000 	ldr	r1, [r9]
    a798:	e1520001 	cmp	r2, r1
    a79c:	aa00000c 	bge	a7d4 <_doprnt.constprop.1+0x6c>
    a7a0:	e2720000 	rsbs	r0, r2, #0
    a7a4:	e6ef0070 	uxtb	r0, r0
    a7a8:	e6ef1072 	uxtb	r1, r2
    a7ac:	52601000 	rsbpl	r1, r0, #0
    a7b0:	e2822001 	add	r2, r2, #1
    a7b4:	e0871001 	add	r1, r7, r1
    a7b8:	e21200ff 	ands	r0, r2, #255	; 0xff
    a7bc:	e5c13004 	strb	r3, [r1, #4]
    a7c0:	e5872000 	str	r2, [r7]
    a7c4:	1a000002 	bne	a7d4 <_doprnt.constprop.1+0x6c>
    a7c8:	e5c70104 	strb	r0, [r7, #260]	; 0x104
    a7cc:	e1a0000b 	mov	r0, fp
    a7d0:	e12fff38 	blx	r8
    a7d4:	e1a04005 	mov	r4, r5
    a7d8:	e28aa001 	add	sl, sl, #1
    a7dc:	e5d43000 	ldrb	r3, [r4]
    a7e0:	e3530000 	cmp	r3, #0
    a7e4:	0a00005f 	beq	a968 <_doprnt.constprop.1+0x200>
    a7e8:	e3530025 	cmp	r3, #37	; 0x25
    a7ec:	e2845001 	add	r5, r4, #1
    a7f0:	1affffe6 	bne	a790 <_doprnt.constprop.1+0x28>
    a7f4:	e5d41001 	ldrb	r1, [r4, #1]
    a7f8:	e3510025 	cmp	r1, #37	; 0x25
    a7fc:	02845002 	addeq	r5, r4, #2
    a800:	0affffe2 	beq	a790 <_doprnt.constprop.1+0x28>
    a804:	e3a0c000 	mov	ip, #0
    a808:	e3a02020 	mov	r2, #32
    a80c:	e351002d 	cmp	r1, #45	; 0x2d
    a810:	e1a04005 	mov	r4, r5
    a814:	e58dc008 	str	ip, [sp, #8]
    a818:	e58d2004 	str	r2, [sp, #4]
    a81c:	0a000058 	beq	a984 <_doprnt.constprop.1+0x21c>
    a820:	e3510030 	cmp	r1, #48	; 0x30
    a824:	0a000059 	beq	a990 <_doprnt.constprop.1+0x228>
    a828:	e3510023 	cmp	r1, #35	; 0x23
    a82c:	0a000050 	beq	a974 <_doprnt.constprop.1+0x20c>
    a830:	e351002a 	cmp	r1, #42	; 0x2a
    a834:	0a000057 	beq	a998 <_doprnt.constprop.1+0x230>
    a838:	e2412030 	sub	r2, r1, #48	; 0x30
    a83c:	e6ef0072 	uxtb	r0, r2
    a840:	e3500009 	cmp	r0, #9
    a844:	83a02000 	movhi	r2, #0
    a848:	858d2014 	strhi	r2, [sp, #20]
    a84c:	8a000008 	bhi	a874 <_doprnt.constprop.1+0x10c>
    a850:	e3a00000 	mov	r0, #0
    a854:	e5f41001 	ldrb	r1, [r4, #1]!
    a858:	e0800100 	add	r0, r0, r0, lsl #2
    a85c:	e0820080 	add	r0, r2, r0, lsl #1
    a860:	e2412030 	sub	r2, r1, #48	; 0x30
    a864:	e6efe072 	uxtb	lr, r2
    a868:	e35e0009 	cmp	lr, #9
    a86c:	9afffff8 	bls	a854 <_doprnt.constprop.1+0xec>
    a870:	e58d0014 	str	r0, [sp, #20]
    a874:	e59d2008 	ldr	r2, [sp, #8]
    a878:	e3520000 	cmp	r2, #0
    a87c:	e59d2004 	ldr	r2, [sp, #4]
    a880:	13a02020 	movne	r2, #32
    a884:	e58d2004 	str	r2, [sp, #4]
    a888:	03a02001 	moveq	r2, #1
    a88c:	13a02000 	movne	r2, #0
    a890:	e58d201c 	str	r2, [sp, #28]
    a894:	e351002e 	cmp	r1, #46	; 0x2e
    a898:	13e02000 	mvnne	r2, #0
    a89c:	158d2010 	strne	r2, [sp, #16]
    a8a0:	0a0001a6 	beq	af40 <_doprnt.constprop.1+0x7d8>
    a8a4:	e351006c 	cmp	r1, #108	; 0x6c
    a8a8:	0a0001b8 	beq	af90 <_doprnt.constprop.1+0x828>
    a8ac:	e3510068 	cmp	r1, #104	; 0x68
    a8b0:	13a02002 	movne	r2, #2
    a8b4:	1a000006 	bne	a8d4 <_doprnt.constprop.1+0x16c>
    a8b8:	e5d41001 	ldrb	r1, [r4, #1]
    a8bc:	e3510068 	cmp	r1, #104	; 0x68
    a8c0:	13a02001 	movne	r2, #1
    a8c4:	03a02000 	moveq	r2, #0
    a8c8:	05d41002 	ldrbeq	r1, [r4, #2]
    a8cc:	12844001 	addne	r4, r4, #1
    a8d0:	02844002 	addeq	r4, r4, #2
    a8d4:	e2411058 	sub	r1, r1, #88	; 0x58
    a8d8:	e3510020 	cmp	r1, #32
    a8dc:	979ff101 	ldrls	pc, [pc, r1, lsl #2]
    a8e0:	eaffffaa 	b	a790 <_doprnt.constprop.1+0x28>
    a8e4:	0000ad34 	.word	0x0000ad34
    a8e8:	0000a790 	.word	0x0000a790
    a8ec:	0000a790 	.word	0x0000a790
    a8f0:	0000a790 	.word	0x0000a790
    a8f4:	0000a790 	.word	0x0000a790
    a8f8:	0000a790 	.word	0x0000a790
    a8fc:	0000a790 	.word	0x0000a790
    a900:	0000a790 	.word	0x0000a790
    a904:	0000a790 	.word	0x0000a790
    a908:	0000a790 	.word	0x0000a790
    a90c:	0000a9e0 	.word	0x0000a9e0
    a910:	0000aee0 	.word	0x0000aee0
    a914:	0000ae40 	.word	0x0000ae40
    a918:	0000a790 	.word	0x0000a790
    a91c:	0000a790 	.word	0x0000a790
    a920:	0000a790 	.word	0x0000a790
    a924:	0000a790 	.word	0x0000a790
    a928:	0000ae40 	.word	0x0000ae40
    a92c:	0000a790 	.word	0x0000a790
    a930:	0000a790 	.word	0x0000a790
    a934:	0000a790 	.word	0x0000a790
    a938:	0000a790 	.word	0x0000a790
    a93c:	0000a790 	.word	0x0000a790
    a940:	0000af08 	.word	0x0000af08
    a944:	0000adf4 	.word	0x0000adf4
    a948:	0000a790 	.word	0x0000a790
    a94c:	0000a790 	.word	0x0000a790
    a950:	0000ad74 	.word	0x0000ad74
    a954:	0000a790 	.word	0x0000a790
    a958:	0000ad5c 	.word	0x0000ad5c
    a95c:	0000a790 	.word	0x0000a790
    a960:	0000a790 	.word	0x0000a790
    a964:	0000ad54 	.word	0x0000ad54
    a968:	e1a0000a 	mov	r0, sl
    a96c:	e28dd084 	add	sp, sp, #132	; 0x84
    a970:	e8bd8ff0 	pop	{r4, r5, r6, r7, r8, r9, sl, fp, pc}
    a974:	e3a0c001 	mov	ip, #1
    a978:	e5f41001 	ldrb	r1, [r4, #1]!
    a97c:	e351002d 	cmp	r1, #45	; 0x2d
    a980:	1affffa6 	bne	a820 <_doprnt.constprop.1+0xb8>
    a984:	e3a02001 	mov	r2, #1
    a988:	e58d2008 	str	r2, [sp, #8]
    a98c:	eafffff9 	b	a978 <_doprnt.constprop.1+0x210>
    a990:	e58d1004 	str	r1, [sp, #4]
    a994:	eafffff7 	b	a978 <_doprnt.constprop.1+0x210>
    a998:	e5962000 	ldr	r2, [r6]
    a99c:	e5d41001 	ldrb	r1, [r4, #1]
    a9a0:	e3520000 	cmp	r2, #0
    a9a4:	e58d2014 	str	r2, [sp, #20]
    a9a8:	e2842001 	add	r2, r4, #1
    a9ac:	e2866004 	add	r6, r6, #4
    a9b0:	a1a04002 	movge	r4, r2
    a9b4:	aaffffae 	bge	a874 <_doprnt.constprop.1+0x10c>
    a9b8:	e1a04002 	mov	r4, r2
    a9bc:	e3a02000 	mov	r2, #0
    a9c0:	e59d0014 	ldr	r0, [sp, #20]
    a9c4:	e58d201c 	str	r2, [sp, #28]
    a9c8:	e2600000 	rsb	r0, r0, #0
    a9cc:	e58d0014 	str	r0, [sp, #20]
    a9d0:	e3a02001 	mov	r2, #1
    a9d4:	e3a00020 	mov	r0, #32
    a9d8:	e98d0005 	stmib	sp, {r0, r2}
    a9dc:	eaffffac 	b	a894 <_doprnt.constprop.1+0x12c>
    a9e0:	e3a03000 	mov	r3, #0
    a9e4:	e3a00002 	mov	r0, #2
    a9e8:	e3a0e001 	mov	lr, #1
    a9ec:	e1a01003 	mov	r1, r3
    a9f0:	e58d000c 	str	r0, [sp, #12]
    a9f4:	e3520004 	cmp	r2, #4
    a9f8:	02862007 	addeq	r2, r6, #7
    a9fc:	03c22007 	biceq	r2, r2, #7
    aa00:	02820008 	addeq	r0, r2, #8
    aa04:	058d0028 	streq	r0, [sp, #40]	; 0x28
    aa08:	15960000 	ldrne	r0, [r6]
    aa0c:	05920000 	ldreq	r0, [r2]
    aa10:	12862004 	addne	r2, r6, #4
    aa14:	158d2028 	strne	r2, [sp, #40]	; 0x28
    aa18:	e3500000 	cmp	r0, #0
    aa1c:	03a03000 	moveq	r3, #0
    aa20:	e3530000 	cmp	r3, #0
    aa24:	e2844001 	add	r4, r4, #1
    aa28:	0a0001c3 	beq	b13c <_doprnt.constprop.1+0x9d4>
    aa2c:	e3a02000 	mov	r2, #0
    aa30:	e3a03030 	mov	r3, #48	; 0x30
    aa34:	e3a06001 	mov	r6, #1
    aa38:	e58d2018 	str	r2, [sp, #24]
    aa3c:	e5cd3034 	strb	r3, [sp, #52]	; 0x34
    aa40:	e58d2020 	str	r2, [sp, #32]
    aa44:	e3510000 	cmp	r1, #0
    aa48:	0a00010f 	beq	ae8c <_doprnt.constprop.1+0x724>
    aa4c:	e3a02000 	mov	r2, #0
    aa50:	e15e0002 	cmp	lr, r2
    aa54:	e59f3700 	ldr	r3, [pc, #1792]	; b15c <_doprnt.constprop.1+0x9f4>
    aa58:	e5cd205c 	strb	r2, [sp, #92]	; 0x5c
    aa5c:	1a00010f 	bne	aea0 <_doprnt.constprop.1+0x738>
    aa60:	e59d100c 	ldr	r1, [sp, #12]
    aa64:	e58d3024 	str	r3, [sp, #36]	; 0x24
    aa68:	eb001d6e 	bl	12028 <__aeabi_uidivmod>
    aa6c:	e59d3024 	ldr	r3, [sp, #36]	; 0x24
    aa70:	e3500000 	cmp	r0, #0
    aa74:	e7d31001 	ldrb	r1, [r3, r1]
    aa78:	e3a05001 	mov	r5, #1
    aa7c:	e5cd105d 	strb	r1, [sp, #93]	; 0x5d
    aa80:	0a000010 	beq	aac8 <_doprnt.constprop.1+0x360>
    aa84:	e28d205e 	add	r2, sp, #94	; 0x5e
    aa88:	e58d6024 	str	r6, [sp, #36]	; 0x24
    aa8c:	e58d802c 	str	r8, [sp, #44]	; 0x2c
    aa90:	e59d600c 	ldr	r6, [sp, #12]
    aa94:	e1a08002 	mov	r8, r2
    aa98:	e58d400c 	str	r4, [sp, #12]
    aa9c:	e1a04003 	mov	r4, r3
    aaa0:	e1a01006 	mov	r1, r6
    aaa4:	eb001d5f 	bl	12028 <__aeabi_uidivmod>
    aaa8:	e7d41001 	ldrb	r1, [r4, r1]
    aaac:	e3500000 	cmp	r0, #0
    aab0:	e2855001 	add	r5, r5, #1
    aab4:	e4c81001 	strb	r1, [r8], #1
    aab8:	1afffff8 	bne	aaa0 <_doprnt.constprop.1+0x338>
    aabc:	e59d6024 	ldr	r6, [sp, #36]	; 0x24
    aac0:	e59d400c 	ldr	r4, [sp, #12]
    aac4:	e59d802c 	ldr	r8, [sp, #44]	; 0x2c
    aac8:	e28d2080 	add	r2, sp, #128	; 0x80
    aacc:	e0825005 	add	r5, r2, r5
    aad0:	e28d3038 	add	r3, sp, #56	; 0x38
    aad4:	e2455025 	sub	r5, r5, #37	; 0x25
    aad8:	e28d205b 	add	r2, sp, #91	; 0x5b
    aadc:	ea000000 	b	aae4 <_doprnt.constprop.1+0x37c>
    aae0:	e4551001 	ldrb	r1, [r5], #-1
    aae4:	e1520005 	cmp	r2, r5
    aae8:	e4c31001 	strb	r1, [r3], #1
    aaec:	1afffffb 	bne	aae0 <_doprnt.constprop.1+0x378>
    aaf0:	e28d0038 	add	r0, sp, #56	; 0x38
    aaf4:	eb001cf6 	bl	11ed4 <strlen>
    aaf8:	e59d3010 	ldr	r3, [sp, #16]
    aafc:	e58d000c 	str	r0, [sp, #12]
    ab00:	e3530000 	cmp	r3, #0
    ab04:	ba000135 	blt	afe0 <_doprnt.constprop.1+0x878>
    ab08:	e59d2010 	ldr	r2, [sp, #16]
    ab0c:	e1a03000 	mov	r3, r0
    ab10:	e1500002 	cmp	r0, r2
    ab14:	a3a01000 	movge	r1, #0
    ab18:	b28d3038 	addlt	r3, sp, #56	; 0x38
    ab1c:	a28d3038 	addge	r3, sp, #56	; 0x38
    ab20:	b58d3024 	strlt	r3, [sp, #36]	; 0x24
    ab24:	a58d3024 	strge	r3, [sp, #36]	; 0x24
    ab28:	e3a03020 	mov	r3, #32
    ab2c:	b3a01000 	movlt	r1, #0
    ab30:	a1a02001 	movge	r2, r1
    ab34:	e58d3004 	str	r3, [sp, #4]
    ab38:	e59d300c 	ldr	r3, [sp, #12]
    ab3c:	b0422000 	sublt	r2, r2, r0
    ab40:	e59d0018 	ldr	r0, [sp, #24]
    ab44:	e0833002 	add	r3, r3, r2
    ab48:	e0833000 	add	r3, r3, r0
    ab4c:	e59d0014 	ldr	r0, [sp, #20]
    ab50:	e1530000 	cmp	r3, r0
    ab54:	a3a03000 	movge	r3, #0
    ab58:	b0403003 	sublt	r3, r0, r3
    ab5c:	e3510000 	cmp	r1, #0
    ab60:	e58d3010 	str	r3, [sp, #16]
    ab64:	0a0000ef 	beq	af28 <_doprnt.constprop.1+0x7c0>
    ab68:	e3560000 	cmp	r6, #0
    ab6c:	058d6014 	streq	r6, [sp, #20]
    ab70:	0a00001c 	beq	abe8 <_doprnt.constprop.1+0x480>
    ab74:	e3a03000 	mov	r3, #0
    ab78:	e58d3014 	str	r3, [sp, #20]
    ab7c:	e3a05000 	mov	r5, #0
    ab80:	e5973000 	ldr	r3, [r7]
    ab84:	e5990000 	ldr	r0, [r9]
    ab88:	e6ef2073 	uxtb	r2, r3
    ab8c:	e1530000 	cmp	r3, r0
    ab90:	e2831001 	add	r1, r3, #1
    ab94:	aa00000c 	bge	abcc <_doprnt.constprop.1+0x464>
    ab98:	e2733000 	rsbs	r3, r3, #0
    ab9c:	e6ef3073 	uxtb	r3, r3
    aba0:	52632000 	rsbpl	r2, r3, #0
    aba4:	e28d3034 	add	r3, sp, #52	; 0x34
    aba8:	e7d33005 	ldrb	r3, [r3, r5]
    abac:	e0872002 	add	r2, r7, r2
    abb0:	e21100ff 	ands	r0, r1, #255	; 0xff
    abb4:	e5871000 	str	r1, [r7]
    abb8:	e5c23004 	strb	r3, [r2, #4]
    abbc:	1a000002 	bne	abcc <_doprnt.constprop.1+0x464>
    abc0:	e5c70104 	strb	r0, [r7, #260]	; 0x104
    abc4:	e1a0000b 	mov	r0, fp
    abc8:	e12fff38 	blx	r8
    abcc:	e2855001 	add	r5, r5, #1
    abd0:	e1550006 	cmp	r5, r6
    abd4:	1affffe9 	bne	ab80 <_doprnt.constprop.1+0x418>
    abd8:	e085a00a 	add	sl, r5, sl
    abdc:	e59d3008 	ldr	r3, [sp, #8]
    abe0:	e3530000 	cmp	r3, #0
    abe4:	0a000107 	beq	b008 <_doprnt.constprop.1+0x8a0>
    abe8:	e59d0020 	ldr	r0, [sp, #32]
    abec:	e3500000 	cmp	r0, #0
    abf0:	0a000011 	beq	ac3c <_doprnt.constprop.1+0x4d4>
    abf4:	e5973000 	ldr	r3, [r7]
    abf8:	e5992000 	ldr	r2, [r9]
    abfc:	e1530002 	cmp	r3, r2
    ac00:	aa00000c 	bge	ac38 <_doprnt.constprop.1+0x4d0>
    ac04:	e2731000 	rsbs	r1, r3, #0
    ac08:	e6ef1071 	uxtb	r1, r1
    ac0c:	e6ef2073 	uxtb	r2, r3
    ac10:	52612000 	rsbpl	r2, r1, #0
    ac14:	e2833001 	add	r3, r3, #1
    ac18:	e0872002 	add	r2, r7, r2
    ac1c:	e21310ff 	ands	r1, r3, #255	; 0xff
    ac20:	e5c20004 	strb	r0, [r2, #4]
    ac24:	e5873000 	str	r3, [r7]
    ac28:	1a000002 	bne	ac38 <_doprnt.constprop.1+0x4d0>
    ac2c:	e5c71104 	strb	r1, [r7, #260]	; 0x104
    ac30:	e1a0000b 	mov	r0, fp
    ac34:	e12fff38 	blx	r8
    ac38:	e28aa001 	add	sl, sl, #1
    ac3c:	e59d3010 	ldr	r3, [sp, #16]
    ac40:	e3530000 	cmp	r3, #0
    ac44:	da000019 	ble	acb0 <_doprnt.constprop.1+0x548>
    ac48:	e3a06000 	mov	r6, #0
    ac4c:	e3a05030 	mov	r5, #48	; 0x30
    ac50:	e58d4018 	str	r4, [sp, #24]
    ac54:	e59d4010 	ldr	r4, [sp, #16]
    ac58:	e5973000 	ldr	r3, [r7]
    ac5c:	e599c000 	ldr	ip, [r9]
    ac60:	e6ef1073 	uxtb	r1, r3
    ac64:	e153000c 	cmp	r3, ip
    ac68:	e2866001 	add	r6, r6, #1
    ac6c:	e2830001 	add	r0, r3, #1
    ac70:	aa00000a 	bge	aca0 <_doprnt.constprop.1+0x538>
    ac74:	e2733000 	rsbs	r3, r3, #0
    ac78:	e6ef3073 	uxtb	r3, r3
    ac7c:	52631000 	rsbpl	r1, r3, #0
    ac80:	e0871001 	add	r1, r7, r1
    ac84:	e21030ff 	ands	r3, r0, #255	; 0xff
    ac88:	e5c15004 	strb	r5, [r1, #4]
    ac8c:	e5870000 	str	r0, [r7]
    ac90:	1a000002 	bne	aca0 <_doprnt.constprop.1+0x538>
    ac94:	e5c73104 	strb	r3, [r7, #260]	; 0x104
    ac98:	e1a0000b 	mov	r0, fp
    ac9c:	e12fff38 	blx	r8
    aca0:	e1560004 	cmp	r6, r4
    aca4:	1affffeb 	bne	ac58 <_doprnt.constprop.1+0x4f0>
    aca8:	e59d4018 	ldr	r4, [sp, #24]
    acac:	e08aa006 	add	sl, sl, r6
    acb0:	e59d300c 	ldr	r3, [sp, #12]
    acb4:	e3530000 	cmp	r3, #0
    acb8:	da000018 	ble	ad20 <_doprnt.constprop.1+0x5b8>
    acbc:	e59d5024 	ldr	r5, [sp, #36]	; 0x24
    acc0:	e0856003 	add	r6, r5, r3
    acc4:	e5973000 	ldr	r3, [r7]
    acc8:	e5990000 	ldr	r0, [r9]
    accc:	e6ef2073 	uxtb	r2, r3
    acd0:	e1530000 	cmp	r3, r0
    acd4:	e2831001 	add	r1, r3, #1
    acd8:	aa00000b 	bge	ad0c <_doprnt.constprop.1+0x5a4>
    acdc:	e2733000 	rsbs	r3, r3, #0
    ace0:	e6ef3073 	uxtb	r3, r3
    ace4:	52632000 	rsbpl	r2, r3, #0
    ace8:	e5d53000 	ldrb	r3, [r5]
    acec:	e0872002 	add	r2, r7, r2
    acf0:	e21100ff 	ands	r0, r1, #255	; 0xff
    acf4:	e5871000 	str	r1, [r7]
    acf8:	e5c23004 	strb	r3, [r2, #4]
    acfc:	1a000002 	bne	ad0c <_doprnt.constprop.1+0x5a4>
    ad00:	e5c70104 	strb	r0, [r7, #260]	; 0x104
    ad04:	e1a0000b 	mov	r0, fp
    ad08:	e12fff38 	blx	r8
    ad0c:	e2855001 	add	r5, r5, #1
    ad10:	e1560005 	cmp	r6, r5
    ad14:	1affffea 	bne	acc4 <_doprnt.constprop.1+0x55c>
    ad18:	e59d300c 	ldr	r3, [sp, #12]
    ad1c:	e08aa003 	add	sl, sl, r3
    ad20:	e59d3008 	ldr	r3, [sp, #8]
    ad24:	e3530000 	cmp	r3, #0
    ad28:	1a0000da 	bne	b098 <_doprnt.constprop.1+0x930>
    ad2c:	e59d6028 	ldr	r6, [sp, #40]	; 0x28
    ad30:	eafffea9 	b	a7dc <_doprnt.constprop.1+0x74>
    ad34:	e3a01001 	mov	r1, #1
    ad38:	e3a00010 	mov	r0, #16
    ad3c:	e35c0001 	cmp	ip, #1
    ad40:	e3a0e004 	mov	lr, #4
    ad44:	e3a03000 	mov	r3, #0
    ad48:	e58d000c 	str	r0, [sp, #12]
    ad4c:	03a0c003 	moveq	ip, #3
    ad50:	eaffff27 	b	a9f4 <_doprnt.constprop.1+0x28c>
    ad54:	e3a01000 	mov	r1, #0
    ad58:	eafffff6 	b	ad38 <_doprnt.constprop.1+0x5d0>
    ad5c:	e3a0e000 	mov	lr, #0
    ad60:	e3a0300a 	mov	r3, #10
    ad64:	e1a0100e 	mov	r1, lr
    ad68:	e58d300c 	str	r3, [sp, #12]
    ad6c:	e1a0300e 	mov	r3, lr
    ad70:	eaffff1f 	b	a9f4 <_doprnt.constprop.1+0x28c>
    ad74:	e5963000 	ldr	r3, [r6]
    ad78:	e59f13e0 	ldr	r1, [pc, #992]	; b160 <_doprnt.constprop.1+0x9f8>
    ad7c:	e2862004 	add	r2, r6, #4
    ad80:	e3530000 	cmp	r3, #0
    ad84:	e58d2028 	str	r2, [sp, #40]	; 0x28
    ad88:	e1a02003 	mov	r2, r3
    ad8c:	01a02001 	moveq	r2, r1
    ad90:	e1a00002 	mov	r0, r2
    ad94:	e58d2024 	str	r2, [sp, #36]	; 0x24
    ad98:	eb001c4d 	bl	11ed4 <strlen>
    ad9c:	e59d3004 	ldr	r3, [sp, #4]
    ada0:	e59d101c 	ldr	r1, [sp, #28]
    ada4:	e2844001 	add	r4, r4, #1
    ada8:	e3530030 	cmp	r3, #48	; 0x30
    adac:	13a01000 	movne	r1, #0
    adb0:	02011001 	andeq	r1, r1, #1
    adb4:	e59d3010 	ldr	r3, [sp, #16]
    adb8:	e58d000c 	str	r0, [sp, #12]
    adbc:	e3530000 	cmp	r3, #0
    adc0:	ba000080 	blt	afc8 <_doprnt.constprop.1+0x860>
    adc4:	e1a02000 	mov	r2, r0
    adc8:	e59d0010 	ldr	r0, [sp, #16]
    adcc:	e3a03000 	mov	r3, #0
    add0:	e1520000 	cmp	r2, r0
    add4:	a1a02000 	movge	r2, r0
    add8:	e58d200c 	str	r2, [sp, #12]
    addc:	e58d3018 	str	r3, [sp, #24]
    ade0:	e1a06003 	mov	r6, r3
    ade4:	e1a02003 	mov	r2, r3
    ade8:	e58d3020 	str	r3, [sp, #32]
    adec:	e59d300c 	ldr	r3, [sp, #12]
    adf0:	eaffff52 	b	ab40 <_doprnt.constprop.1+0x3d8>
    adf4:	e3a0e004 	mov	lr, #4
    adf8:	e086300e 	add	r3, r6, lr
    adfc:	e58d3028 	str	r3, [sp, #40]	; 0x28
    ae00:	e3a03010 	mov	r3, #16
    ae04:	e58d300c 	str	r3, [sp, #12]
    ae08:	e3a03030 	mov	r3, #48	; 0x30
    ae0c:	e3a01000 	mov	r1, #0
    ae10:	e5960000 	ldr	r0, [r6]
    ae14:	e2844001 	add	r4, r4, #1
    ae18:	e58de014 	str	lr, [sp, #20]
    ae1c:	e58d3004 	str	r3, [sp, #4]
    ae20:	e3a03000 	mov	r3, #0
    ae24:	e1a02003 	mov	r2, r3
    ae28:	e58d3018 	str	r3, [sp, #24]
    ae2c:	e59f3330 	ldr	r3, [pc, #816]	; b164 <_doprnt.constprop.1+0x9fc>
    ae30:	e58d2020 	str	r2, [sp, #32]
    ae34:	e1cd33b4 	strh	r3, [sp, #52]	; 0x34
    ae38:	e3a06002 	mov	r6, #2
    ae3c:	eaffff00 	b	aa44 <_doprnt.constprop.1+0x2dc>
    ae40:	e3520004 	cmp	r2, #4
    ae44:	02863007 	addeq	r3, r6, #7
    ae48:	03c33007 	biceq	r3, r3, #7
    ae4c:	02832008 	addeq	r2, r3, #8
    ae50:	058d2028 	streq	r2, [sp, #40]	; 0x28
    ae54:	15962000 	ldrne	r2, [r6]
    ae58:	05932000 	ldreq	r2, [r3]
    ae5c:	12863004 	addne	r3, r6, #4
    ae60:	158d3028 	strne	r3, [sp, #40]	; 0x28
    ae64:	e2520000 	subs	r0, r2, #0
    ae68:	a3a03000 	movge	r3, #0
    ae6c:	a58d3018 	strge	r3, [sp, #24]
    ae70:	a58d3020 	strge	r3, [sp, #32]
    ae74:	ba000081 	blt	b080 <_doprnt.constprop.1+0x918>
    ae78:	e3a0e000 	mov	lr, #0
    ae7c:	e3a0300a 	mov	r3, #10
    ae80:	e1a0600e 	mov	r6, lr
    ae84:	e2844001 	add	r4, r4, #1
    ae88:	e58d300c 	str	r3, [sp, #12]
    ae8c:	e3a02000 	mov	r2, #0
    ae90:	e15e0002 	cmp	lr, r2
    ae94:	e59f32cc 	ldr	r3, [pc, #716]	; b168 <_doprnt.constprop.1+0xa00>
    ae98:	e5cd205c 	strb	r2, [sp, #92]	; 0x5c
    ae9c:	0afffeef 	beq	aa60 <_doprnt.constprop.1+0x2f8>
    aea0:	e3e0c000 	mvn	ip, #0
    aea4:	e1e0ce1c 	mvn	ip, ip, lsl lr
    aea8:	e000200c 	and	r2, r0, ip
    aeac:	e7d31002 	ldrb	r1, [r3, r2]
    aeb0:	e1b02e30 	lsrs	r2, r0, lr
    aeb4:	e3a05001 	mov	r5, #1
    aeb8:	e5cd105d 	strb	r1, [sp, #93]	; 0x5d
    aebc:	0affff01 	beq	aac8 <_doprnt.constprop.1+0x360>
    aec0:	e28d005e 	add	r0, sp, #94	; 0x5e
    aec4:	e00c1002 	and	r1, ip, r2
    aec8:	e7d31001 	ldrb	r1, [r3, r1]
    aecc:	e1b02e32 	lsrs	r2, r2, lr
    aed0:	e2855001 	add	r5, r5, #1
    aed4:	e4c01001 	strb	r1, [r0], #1
    aed8:	1afffff9 	bne	aec4 <_doprnt.constprop.1+0x75c>
    aedc:	eafffef9 	b	aac8 <_doprnt.constprop.1+0x360>
    aee0:	e3a02000 	mov	r2, #0
    aee4:	e5963000 	ldr	r3, [r6]
    aee8:	e5cd2039 	strb	r2, [sp, #57]	; 0x39
    aeec:	e5cd3038 	strb	r3, [sp, #56]	; 0x38
    aef0:	e2863004 	add	r3, r6, #4
    aef4:	e58d3028 	str	r3, [sp, #40]	; 0x28
    aef8:	e28d3038 	add	r3, sp, #56	; 0x38
    aefc:	e58d3024 	str	r3, [sp, #36]	; 0x24
    af00:	e1a00003 	mov	r0, r3
    af04:	eaffffa3 	b	ad98 <_doprnt.constprop.1+0x630>
    af08:	e35c0001 	cmp	ip, #1
    af0c:	0a000083 	beq	b120 <_doprnt.constprop.1+0x9b8>
    af10:	e3a03000 	mov	r3, #0
    af14:	e3a00008 	mov	r0, #8
    af18:	e3a0e003 	mov	lr, #3
    af1c:	e1a01003 	mov	r1, r3
    af20:	e58d000c 	str	r0, [sp, #12]
    af24:	eafffeb2 	b	a9f4 <_doprnt.constprop.1+0x28c>
    af28:	e59d3010 	ldr	r3, [sp, #16]
    af2c:	e3560000 	cmp	r6, #0
    af30:	e58d3014 	str	r3, [sp, #20]
    af34:	e58d2010 	str	r2, [sp, #16]
    af38:	1affff0f 	bne	ab7c <_doprnt.constprop.1+0x414>
    af3c:	eaffff26 	b	abdc <_doprnt.constprop.1+0x474>
    af40:	e5d41001 	ldrb	r1, [r4, #1]
    af44:	e351002a 	cmp	r1, #42	; 0x2a
    af48:	0a000018 	beq	afb0 <_doprnt.constprop.1+0x848>
    af4c:	e2412030 	sub	r2, r1, #48	; 0x30
    af50:	e6ef0072 	uxtb	r0, r2
    af54:	e3500009 	cmp	r0, #9
    af58:	83a02000 	movhi	r2, #0
    af5c:	e2844001 	add	r4, r4, #1
    af60:	858d2010 	strhi	r2, [sp, #16]
    af64:	8afffe4e 	bhi	a8a4 <_doprnt.constprop.1+0x13c>
    af68:	e3a00000 	mov	r0, #0
    af6c:	e5f41001 	ldrb	r1, [r4, #1]!
    af70:	e0800100 	add	r0, r0, r0, lsl #2
    af74:	e0820080 	add	r0, r2, r0, lsl #1
    af78:	e2412030 	sub	r2, r1, #48	; 0x30
    af7c:	e6efe072 	uxtb	lr, r2
    af80:	e35e0009 	cmp	lr, #9
    af84:	9afffff8 	bls	af6c <_doprnt.constprop.1+0x804>
    af88:	e58d0010 	str	r0, [sp, #16]
    af8c:	eafffe44 	b	a8a4 <_doprnt.constprop.1+0x13c>
    af90:	e5d41001 	ldrb	r1, [r4, #1]
    af94:	e351006c 	cmp	r1, #108	; 0x6c
    af98:	05d41002 	ldrbeq	r1, [r4, #2]
    af9c:	12844001 	addne	r4, r4, #1
    afa0:	13a02003 	movne	r2, #3
    afa4:	03a02004 	moveq	r2, #4
    afa8:	02844002 	addeq	r4, r4, #2
    afac:	eafffe48 	b	a8d4 <_doprnt.constprop.1+0x16c>
    afb0:	e5962000 	ldr	r2, [r6]
    afb4:	e5d41002 	ldrb	r1, [r4, #2]
    afb8:	e58d2010 	str	r2, [sp, #16]
    afbc:	e2866004 	add	r6, r6, #4
    afc0:	e2844002 	add	r4, r4, #2
    afc4:	eafffe36 	b	a8a4 <_doprnt.constprop.1+0x13c>
    afc8:	e3a02000 	mov	r2, #0
    afcc:	e1a03000 	mov	r3, r0
    afd0:	e58d2018 	str	r2, [sp, #24]
    afd4:	e1a06002 	mov	r6, r2
    afd8:	e58d2020 	str	r2, [sp, #32]
    afdc:	eafffed7 	b	ab40 <_doprnt.constprop.1+0x3d8>
    afe0:	e59d3004 	ldr	r3, [sp, #4]
    afe4:	e59d101c 	ldr	r1, [sp, #28]
    afe8:	e3a02000 	mov	r2, #0
    afec:	e3530030 	cmp	r3, #48	; 0x30
    aff0:	13a01000 	movne	r1, #0
    aff4:	02011001 	andeq	r1, r1, #1
    aff8:	e28d3038 	add	r3, sp, #56	; 0x38
    affc:	e58d3024 	str	r3, [sp, #36]	; 0x24
    b000:	e1a03000 	mov	r3, r0
    b004:	eafffecd 	b	ab40 <_doprnt.constprop.1+0x3d8>
    b008:	e59d6014 	ldr	r6, [sp, #20]
    b00c:	e3560000 	cmp	r6, #0
    b010:	0afffef4 	beq	abe8 <_doprnt.constprop.1+0x480>
    b014:	e58d4018 	str	r4, [sp, #24]
    b018:	e1a04003 	mov	r4, r3
    b01c:	e59d5004 	ldr	r5, [sp, #4]
    b020:	e5973000 	ldr	r3, [r7]
    b024:	e599c000 	ldr	ip, [r9]
    b028:	e6ef1073 	uxtb	r1, r3
    b02c:	e153000c 	cmp	r3, ip
    b030:	e2844001 	add	r4, r4, #1
    b034:	e2830001 	add	r0, r3, #1
    b038:	aa00000a 	bge	b068 <_doprnt.constprop.1+0x900>
    b03c:	e2733000 	rsbs	r3, r3, #0
    b040:	e6ef3073 	uxtb	r3, r3
    b044:	52631000 	rsbpl	r1, r3, #0
    b048:	e0871001 	add	r1, r7, r1
    b04c:	e21030ff 	ands	r3, r0, #255	; 0xff
    b050:	e5c15004 	strb	r5, [r1, #4]
    b054:	e5870000 	str	r0, [r7]
    b058:	1a000002 	bne	b068 <_doprnt.constprop.1+0x900>
    b05c:	e5c73104 	strb	r3, [r7, #260]	; 0x104
    b060:	e1a0000b 	mov	r0, fp
    b064:	e12fff38 	blx	r8
    b068:	e1540006 	cmp	r4, r6
    b06c:	1affffeb 	bne	b020 <_doprnt.constprop.1+0x8b8>
    b070:	e59d3014 	ldr	r3, [sp, #20]
    b074:	e59d4018 	ldr	r4, [sp, #24]
    b078:	e08aa003 	add	sl, sl, r3
    b07c:	eafffed9 	b	abe8 <_doprnt.constprop.1+0x480>
    b080:	e3a03001 	mov	r3, #1
    b084:	e58d3018 	str	r3, [sp, #24]
    b088:	e3a0302d 	mov	r3, #45	; 0x2d
    b08c:	e2600000 	rsb	r0, r0, #0
    b090:	e58d3020 	str	r3, [sp, #32]
    b094:	eaffff77 	b	ae78 <_doprnt.constprop.1+0x710>
    b098:	e59d6014 	ldr	r6, [sp, #20]
    b09c:	e3560000 	cmp	r6, #0
    b0a0:	0affff21 	beq	ad2c <_doprnt.constprop.1+0x5c4>
    b0a4:	e3a05000 	mov	r5, #0
    b0a8:	e1a03004 	mov	r3, r4
    b0ac:	e1a04005 	mov	r4, r5
    b0b0:	e1a05003 	mov	r5, r3
    b0b4:	e5973000 	ldr	r3, [r7]
    b0b8:	e599c000 	ldr	ip, [r9]
    b0bc:	e6ef1073 	uxtb	r1, r3
    b0c0:	e153000c 	cmp	r3, ip
    b0c4:	e2844001 	add	r4, r4, #1
    b0c8:	e2830001 	add	r0, r3, #1
    b0cc:	aa00000b 	bge	b100 <_doprnt.constprop.1+0x998>
    b0d0:	e2733000 	rsbs	r3, r3, #0
    b0d4:	e6ef3073 	uxtb	r3, r3
    b0d8:	52631000 	rsbpl	r1, r3, #0
    b0dc:	e59d2004 	ldr	r2, [sp, #4]
    b0e0:	e0871001 	add	r1, r7, r1
    b0e4:	e21030ff 	ands	r3, r0, #255	; 0xff
    b0e8:	e5c12004 	strb	r2, [r1, #4]
    b0ec:	e5870000 	str	r0, [r7]
    b0f0:	1a000002 	bne	b100 <_doprnt.constprop.1+0x998>
    b0f4:	e5c73104 	strb	r3, [r7, #260]	; 0x104
    b0f8:	e1a0000b 	mov	r0, fp
    b0fc:	e12fff38 	blx	r8
    b100:	e1540006 	cmp	r4, r6
    b104:	1affffea 	bne	b0b4 <_doprnt.constprop.1+0x94c>
    b108:	e1a03005 	mov	r3, r5
    b10c:	e1a05004 	mov	r5, r4
    b110:	e59d6028 	ldr	r6, [sp, #40]	; 0x28
    b114:	e1a04003 	mov	r4, r3
    b118:	e08aa005 	add	sl, sl, r5
    b11c:	eafffdae 	b	a7dc <_doprnt.constprop.1+0x74>
    b120:	e3a01008 	mov	r1, #8
    b124:	e1a0300c 	mov	r3, ip
    b128:	e58d100c 	str	r1, [sp, #12]
    b12c:	e3a0e003 	mov	lr, #3
    b130:	e3a01000 	mov	r1, #0
    b134:	e3a0c002 	mov	ip, #2
    b138:	eafffe2d 	b	a9f4 <_doprnt.constprop.1+0x28c>
    b13c:	e35c0003 	cmp	ip, #3
    b140:	0affff36 	beq	ae20 <_doprnt.constprop.1+0x6b8>
    b144:	e1a06003 	mov	r6, r3
    b148:	e58d3018 	str	r3, [sp, #24]
    b14c:	e58d3020 	str	r3, [sp, #32]
    b150:	eafffe3b 	b	aa44 <_doprnt.constprop.1+0x2dc>
    b154:	0001d8e4 	.word	0x0001d8e4
    b158:	0001d8c4 	.word	0x0001d8c4
    b15c:	00015544 	.word	0x00015544
    b160:	00015564 	.word	0x00015564
    b164:	00007830 	.word	0x00007830
    b168:	00015554 	.word	0x00015554

0000b16c <_doprnt>:
    b16c:	e92d4ff0 	push	{r4, r5, r6, r7, r8, r9, sl, fp, lr}
    b170:	e1a08000 	mov	r8, r0
    b174:	e24dd07c 	sub	sp, sp, #124	; 0x7c
    b178:	e1a09002 	mov	r9, r2
    b17c:	e1a0b003 	mov	fp, r3
    b180:	e1a06001 	mov	r6, r1
    b184:	e3a0a000 	mov	sl, #0
    b188:	ea000005 	b	b1a4 <_doprnt+0x38>
    b18c:	e1a0100b 	mov	r1, fp
    b190:	e12fff39 	blx	r9
    b194:	e3700001 	cmn	r0, #1
    b198:	0a0000ce 	beq	b4d8 <_doprnt+0x36c>
    b19c:	e28aa001 	add	sl, sl, #1
    b1a0:	e2888001 	add	r8, r8, #1
    b1a4:	e5d80000 	ldrb	r0, [r8]
    b1a8:	e3500000 	cmp	r0, #0
    b1ac:	0a0000ca 	beq	b4dc <_doprnt+0x370>
    b1b0:	e3500025 	cmp	r0, #37	; 0x25
    b1b4:	1afffff4 	bne	b18c <_doprnt+0x20>
    b1b8:	e5d81001 	ldrb	r1, [r8, #1]
    b1bc:	e2883001 	add	r3, r8, #1
    b1c0:	e3510025 	cmp	r1, #37	; 0x25
    b1c4:	0a0000c7 	beq	b4e8 <_doprnt+0x37c>
    b1c8:	e3a02000 	mov	r2, #0
    b1cc:	e3a0c020 	mov	ip, #32
    b1d0:	e58d2008 	str	r2, [sp, #8]
    b1d4:	e58dc004 	str	ip, [sp, #4]
    b1d8:	e351002d 	cmp	r1, #45	; 0x2d
    b1dc:	0a0000c3 	beq	b4f0 <_doprnt+0x384>
    b1e0:	e3510030 	cmp	r1, #48	; 0x30
    b1e4:	0a0000c7 	beq	b508 <_doprnt+0x39c>
    b1e8:	e3510023 	cmp	r1, #35	; 0x23
    b1ec:	0a0000c3 	beq	b500 <_doprnt+0x394>
    b1f0:	e351002a 	cmp	r1, #42	; 0x2a
    b1f4:	0a0000c5 	beq	b510 <_doprnt+0x3a4>
    b1f8:	e241c030 	sub	ip, r1, #48	; 0x30
    b1fc:	e6efe07c 	uxtb	lr, ip
    b200:	e35e0009 	cmp	lr, #9
    b204:	e3a04000 	mov	r4, #0
    b208:	8a000006 	bhi	b228 <_doprnt+0xbc>
    b20c:	e5f31001 	ldrb	r1, [r3, #1]!
    b210:	e0844104 	add	r4, r4, r4, lsl #2
    b214:	e08c4084 	add	r4, ip, r4, lsl #1
    b218:	e241c030 	sub	ip, r1, #48	; 0x30
    b21c:	e6efe07c 	uxtb	lr, ip
    b220:	e35e0009 	cmp	lr, #9
    b224:	9afffff8 	bls	b20c <_doprnt+0xa0>
    b228:	e59dc008 	ldr	ip, [sp, #8]
    b22c:	e35c0000 	cmp	ip, #0
    b230:	e59dc004 	ldr	ip, [sp, #4]
    b234:	13a0c020 	movne	ip, #32
    b238:	e58dc004 	str	ip, [sp, #4]
    b23c:	03a0c001 	moveq	ip, #1
    b240:	13a0c000 	movne	ip, #0
    b244:	e58dc010 	str	ip, [sp, #16]
    b248:	e351002e 	cmp	r1, #46	; 0x2e
    b24c:	13e07000 	mvnne	r7, #0
    b250:	0a000155 	beq	b7ac <_doprnt+0x640>
    b254:	e351006c 	cmp	r1, #108	; 0x6c
    b258:	0a000164 	beq	b7f0 <_doprnt+0x684>
    b25c:	e3510068 	cmp	r1, #104	; 0x68
    b260:	13a0e002 	movne	lr, #2
    b264:	1a000006 	bne	b284 <_doprnt+0x118>
    b268:	e5d31001 	ldrb	r1, [r3, #1]
    b26c:	e3510068 	cmp	r1, #104	; 0x68
    b270:	13a0e001 	movne	lr, #1
    b274:	03a0e000 	moveq	lr, #0
    b278:	05d31002 	ldrbeq	r1, [r3, #2]
    b27c:	12833001 	addne	r3, r3, #1
    b280:	02833002 	addeq	r3, r3, #2
    b284:	e2411058 	sub	r1, r1, #88	; 0x58
    b288:	e3510020 	cmp	r1, #32
    b28c:	979ff101 	ldrls	pc, [pc, r1, lsl #2]
    b290:	eaffffbd 	b	b18c <_doprnt+0x20>
    b294:	0000b54c 	.word	0x0000b54c
    b298:	0000b18c 	.word	0x0000b18c
    b29c:	0000b18c 	.word	0x0000b18c
    b2a0:	0000b18c 	.word	0x0000b18c
    b2a4:	0000b18c 	.word	0x0000b18c
    b2a8:	0000b18c 	.word	0x0000b18c
    b2ac:	0000b18c 	.word	0x0000b18c
    b2b0:	0000b18c 	.word	0x0000b18c
    b2b4:	0000b18c 	.word	0x0000b18c
    b2b8:	0000b18c 	.word	0x0000b18c
    b2bc:	0000b318 	.word	0x0000b318
    b2c0:	0000b610 	.word	0x0000b610
    b2c4:	0000b574 	.word	0x0000b574
    b2c8:	0000b18c 	.word	0x0000b18c
    b2cc:	0000b18c 	.word	0x0000b18c
    b2d0:	0000b18c 	.word	0x0000b18c
    b2d4:	0000b18c 	.word	0x0000b18c
    b2d8:	0000b574 	.word	0x0000b574
    b2dc:	0000b18c 	.word	0x0000b18c
    b2e0:	0000b18c 	.word	0x0000b18c
    b2e4:	0000b18c 	.word	0x0000b18c
    b2e8:	0000b18c 	.word	0x0000b18c
    b2ec:	0000b18c 	.word	0x0000b18c
    b2f0:	0000b70c 	.word	0x0000b70c
    b2f4:	0000b6c4 	.word	0x0000b6c4
    b2f8:	0000b18c 	.word	0x0000b18c
    b2fc:	0000b18c 	.word	0x0000b18c
    b300:	0000b69c 	.word	0x0000b69c
    b304:	0000b18c 	.word	0x0000b18c
    b308:	0000b684 	.word	0x0000b684
    b30c:	0000b18c 	.word	0x0000b18c
    b310:	0000b18c 	.word	0x0000b18c
    b314:	0000b56c 	.word	0x0000b56c
    b318:	e3a01000 	mov	r1, #0
    b31c:	e3a00002 	mov	r0, #2
    b320:	e3a0c001 	mov	ip, #1
    b324:	e1a05001 	mov	r5, r1
    b328:	e58d0018 	str	r0, [sp, #24]
    b32c:	e35e0004 	cmp	lr, #4
    b330:	02860007 	addeq	r0, r6, #7
    b334:	03c00007 	biceq	r0, r0, #7
    b338:	12860004 	addne	r0, r6, #4
    b33c:	0280e008 	addeq	lr, r0, #8
    b340:	158d001c 	strne	r0, [sp, #28]
    b344:	05900000 	ldreq	r0, [r0]
    b348:	15960000 	ldrne	r0, [r6]
    b34c:	058de01c 	streq	lr, [sp, #28]
    b350:	e3500000 	cmp	r0, #0
    b354:	03a01000 	moveq	r1, #0
    b358:	e3510000 	cmp	r1, #0
    b35c:	e2838001 	add	r8, r3, #1
    b360:	0a00017d 	beq	b95c <_doprnt+0x7f0>
    b364:	e3a03030 	mov	r3, #48	; 0x30
    b368:	e3a06000 	mov	r6, #0
    b36c:	e5cd302c 	strb	r3, [sp, #44]	; 0x2c
    b370:	e3a03001 	mov	r3, #1
    b374:	e58d6014 	str	r6, [sp, #20]
    b378:	e58d300c 	str	r3, [sp, #12]
    b37c:	e3550000 	cmp	r5, #0
    b380:	0a00008d 	beq	b5bc <_doprnt+0x450>
    b384:	e3a02000 	mov	r2, #0
    b388:	e15c0002 	cmp	ip, r2
    b38c:	e59f35e0 	ldr	r3, [pc, #1504]	; b974 <_doprnt+0x808>
    b390:	e5cd2054 	strb	r2, [sp, #84]	; 0x54
    b394:	1a00008d 	bne	b5d0 <_doprnt+0x464>
    b398:	e59d1018 	ldr	r1, [sp, #24]
    b39c:	e58d3020 	str	r3, [sp, #32]
    b3a0:	eb001b20 	bl	12028 <__aeabi_uidivmod>
    b3a4:	e59d3020 	ldr	r3, [sp, #32]
    b3a8:	e3500000 	cmp	r0, #0
    b3ac:	e7d31001 	ldrb	r1, [r3, r1]
    b3b0:	e3a05001 	mov	r5, #1
    b3b4:	e5cd1055 	strb	r1, [sp, #85]	; 0x55
    b3b8:	0a000012 	beq	b408 <_doprnt+0x29c>
    b3bc:	e28d2056 	add	r2, sp, #86	; 0x56
    b3c0:	e58d4020 	str	r4, [sp, #32]
    b3c4:	e58d6024 	str	r6, [sp, #36]	; 0x24
    b3c8:	e59d4018 	ldr	r4, [sp, #24]
    b3cc:	e1a06005 	mov	r6, r5
    b3d0:	e58d7018 	str	r7, [sp, #24]
    b3d4:	e1a05003 	mov	r5, r3
    b3d8:	e1a07002 	mov	r7, r2
    b3dc:	e1a01004 	mov	r1, r4
    b3e0:	eb001b10 	bl	12028 <__aeabi_uidivmod>
    b3e4:	e7d51001 	ldrb	r1, [r5, r1]
    b3e8:	e3500000 	cmp	r0, #0
    b3ec:	e2866001 	add	r6, r6, #1
    b3f0:	e4c71001 	strb	r1, [r7], #1
    b3f4:	1afffff8 	bne	b3dc <_doprnt+0x270>
    b3f8:	e1a05006 	mov	r5, r6
    b3fc:	e59d4020 	ldr	r4, [sp, #32]
    b400:	e59d7018 	ldr	r7, [sp, #24]
    b404:	e59d6024 	ldr	r6, [sp, #36]	; 0x24
    b408:	e28d2078 	add	r2, sp, #120	; 0x78
    b40c:	e0825005 	add	r5, r2, r5
    b410:	e28d3030 	add	r3, sp, #48	; 0x30
    b414:	e2455025 	sub	r5, r5, #37	; 0x25
    b418:	e28d2053 	add	r2, sp, #83	; 0x53
    b41c:	ea000000 	b	b424 <_doprnt+0x2b8>
    b420:	e4551001 	ldrb	r1, [r5], #-1
    b424:	e1520005 	cmp	r2, r5
    b428:	e4c31001 	strb	r1, [r3], #1
    b42c:	1afffffb 	bne	b420 <_doprnt+0x2b4>
    b430:	e28d0030 	add	r0, sp, #48	; 0x30
    b434:	eb001aa6 	bl	11ed4 <strlen>
    b438:	e3570000 	cmp	r7, #0
    b43c:	e1a05000 	mov	r5, r0
    b440:	ba000108 	blt	b868 <_doprnt+0x6fc>
    b444:	e1570000 	cmp	r7, r0
    b448:	d3a01000 	movle	r1, #0
    b44c:	c28d3030 	addgt	r3, sp, #48	; 0x30
    b450:	d28d3030 	addle	r3, sp, #48	; 0x30
    b454:	c58d3018 	strgt	r3, [sp, #24]
    b458:	d58d3018 	strle	r3, [sp, #24]
    b45c:	e3a03020 	mov	r3, #32
    b460:	c3a01000 	movgt	r1, #0
    b464:	d1a02001 	movle	r2, r1
    b468:	c0472000 	subgt	r2, r7, r0
    b46c:	e58d3004 	str	r3, [sp, #4]
    b470:	e0853002 	add	r3, r5, r2
    b474:	e0836006 	add	r6, r3, r6
    b478:	e1560004 	cmp	r6, r4
    b47c:	b0444006 	sublt	r4, r4, r6
    b480:	a3a04000 	movge	r4, #0
    b484:	e3510000 	cmp	r1, #0
    b488:	e59d300c 	ldr	r3, [sp, #12]
    b48c:	0a0000a6 	beq	b72c <_doprnt+0x5c0>
    b490:	e3530000 	cmp	r3, #0
    b494:	058d3010 	streq	r3, [sp, #16]
    b498:	01a0700a 	moveq	r7, sl
    b49c:	0a0000ab 	beq	b750 <_doprnt+0x5e4>
    b4a0:	e3a03000 	mov	r3, #0
    b4a4:	e58d3010 	str	r3, [sp, #16]
    b4a8:	e59d300c 	ldr	r3, [sp, #12]
    b4ac:	e083700a 	add	r7, r3, sl
    b4b0:	e28d602c 	add	r6, sp, #44	; 0x2c
    b4b4:	ea000001 	b	b4c0 <_doprnt+0x354>
    b4b8:	e15a0007 	cmp	sl, r7
    b4bc:	0a0000a0 	beq	b744 <_doprnt+0x5d8>
    b4c0:	e1a0100b 	mov	r1, fp
    b4c4:	e4d60001 	ldrb	r0, [r6], #1
    b4c8:	e12fff39 	blx	r9
    b4cc:	e3700001 	cmn	r0, #1
    b4d0:	e28aa001 	add	sl, sl, #1
    b4d4:	1afffff7 	bne	b4b8 <_doprnt+0x34c>
    b4d8:	e3e0a000 	mvn	sl, #0
    b4dc:	e1a0000a 	mov	r0, sl
    b4e0:	e28dd07c 	add	sp, sp, #124	; 0x7c
    b4e4:	e8bd8ff0 	pop	{r4, r5, r6, r7, r8, r9, sl, fp, pc}
    b4e8:	e1a08003 	mov	r8, r3
    b4ec:	eaffff26 	b	b18c <_doprnt+0x20>
    b4f0:	e3a01001 	mov	r1, #1
    b4f4:	e58d1008 	str	r1, [sp, #8]
    b4f8:	e5f31001 	ldrb	r1, [r3, #1]!
    b4fc:	eaffff35 	b	b1d8 <_doprnt+0x6c>
    b500:	e3a02001 	mov	r2, #1
    b504:	eafffffb 	b	b4f8 <_doprnt+0x38c>
    b508:	e58d1004 	str	r1, [sp, #4]
    b50c:	eafffff9 	b	b4f8 <_doprnt+0x38c>
    b510:	e5964000 	ldr	r4, [r6]
    b514:	e283c001 	add	ip, r3, #1
    b518:	e3540000 	cmp	r4, #0
    b51c:	e5d31001 	ldrb	r1, [r3, #1]
    b520:	e2866004 	add	r6, r6, #4
    b524:	a1a0300c 	movge	r3, ip
    b528:	aaffff3e 	bge	b228 <_doprnt+0xbc>
    b52c:	e1a0300c 	mov	r3, ip
    b530:	e3a0c000 	mov	ip, #0
    b534:	e3a0e001 	mov	lr, #1
    b538:	e58dc010 	str	ip, [sp, #16]
    b53c:	e3a0c020 	mov	ip, #32
    b540:	e2644000 	rsb	r4, r4, #0
    b544:	e98d5000 	stmib	sp, {ip, lr}
    b548:	eaffff3e 	b	b248 <_doprnt+0xdc>
    b54c:	e3a05001 	mov	r5, #1
    b550:	e3520001 	cmp	r2, #1
    b554:	e3a0c004 	mov	ip, #4
    b558:	e3a01000 	mov	r1, #0
    b55c:	0a0000fa 	beq	b94c <_doprnt+0x7e0>
    b560:	e3a00010 	mov	r0, #16
    b564:	e58d0018 	str	r0, [sp, #24]
    b568:	eaffff6f 	b	b32c <_doprnt+0x1c0>
    b56c:	e3a05000 	mov	r5, #0
    b570:	eafffff6 	b	b550 <_doprnt+0x3e4>
    b574:	e35e0004 	cmp	lr, #4
    b578:	02862007 	addeq	r2, r6, #7
    b57c:	03c22007 	biceq	r2, r2, #7
    b580:	02821008 	addeq	r1, r2, #8
    b584:	15962000 	ldrne	r2, [r6]
    b588:	05922000 	ldreq	r2, [r2]
    b58c:	12861004 	addne	r1, r6, #4
    b590:	058d101c 	streq	r1, [sp, #28]
    b594:	158d101c 	strne	r1, [sp, #28]
    b598:	e2520000 	subs	r0, r2, #0
    b59c:	a3a06000 	movge	r6, #0
    b5a0:	a58d6014 	strge	r6, [sp, #20]
    b5a4:	ba0000cd 	blt	b8e0 <_doprnt+0x774>
    b5a8:	e3a0c000 	mov	ip, #0
    b5ac:	e2838001 	add	r8, r3, #1
    b5b0:	e3a0300a 	mov	r3, #10
    b5b4:	e58dc00c 	str	ip, [sp, #12]
    b5b8:	e58d3018 	str	r3, [sp, #24]
    b5bc:	e3a02000 	mov	r2, #0
    b5c0:	e15c0002 	cmp	ip, r2
    b5c4:	e59f33ac 	ldr	r3, [pc, #940]	; b978 <_doprnt+0x80c>
    b5c8:	e5cd2054 	strb	r2, [sp, #84]	; 0x54
    b5cc:	0affff71 	beq	b398 <_doprnt+0x22c>
    b5d0:	e3e0e000 	mvn	lr, #0
    b5d4:	e1e0ec1e 	mvn	lr, lr, lsl ip
    b5d8:	e000200e 	and	r2, r0, lr
    b5dc:	e7d31002 	ldrb	r1, [r3, r2]
    b5e0:	e1b02c30 	lsrs	r2, r0, ip
    b5e4:	e3a05001 	mov	r5, #1
    b5e8:	e5cd1055 	strb	r1, [sp, #85]	; 0x55
    b5ec:	0affff85 	beq	b408 <_doprnt+0x29c>
    b5f0:	e28d0056 	add	r0, sp, #86	; 0x56
    b5f4:	e00e1002 	and	r1, lr, r2
    b5f8:	e7d31001 	ldrb	r1, [r3, r1]
    b5fc:	e1b02c32 	lsrs	r2, r2, ip
    b600:	e2855001 	add	r5, r5, #1
    b604:	e4c01001 	strb	r1, [r0], #1
    b608:	1afffff9 	bne	b5f4 <_doprnt+0x488>
    b60c:	eaffff7d 	b	b408 <_doprnt+0x29c>
    b610:	e5962000 	ldr	r2, [r6]
    b614:	e3a01000 	mov	r1, #0
    b618:	e5cd2030 	strb	r2, [sp, #48]	; 0x30
    b61c:	e2862004 	add	r2, r6, #4
    b620:	e58d201c 	str	r2, [sp, #28]
    b624:	e28d2030 	add	r2, sp, #48	; 0x30
    b628:	e1a00002 	mov	r0, r2
    b62c:	e5cd1031 	strb	r1, [sp, #49]	; 0x31
    b630:	e58d2018 	str	r2, [sp, #24]
    b634:	e3a06000 	mov	r6, #0
    b638:	e2838001 	add	r8, r3, #1
    b63c:	eb001a24 	bl	11ed4 <strlen>
    b640:	e59d1010 	ldr	r1, [sp, #16]
    b644:	e59d3004 	ldr	r3, [sp, #4]
    b648:	e1a05000 	mov	r5, r0
    b64c:	e3530030 	cmp	r3, #48	; 0x30
    b650:	13a01000 	movne	r1, #0
    b654:	02011001 	andeq	r1, r1, #1
    b658:	e3570000 	cmp	r7, #0
    b65c:	b58d600c 	strlt	r6, [sp, #12]
    b660:	b58d6014 	strlt	r6, [sp, #20]
    b664:	b1a02006 	movlt	r2, r6
    b668:	baffff80 	blt	b470 <_doprnt+0x304>
    b66c:	e1550007 	cmp	r5, r7
    b670:	a1a05007 	movge	r5, r7
    b674:	e58d600c 	str	r6, [sp, #12]
    b678:	e58d6014 	str	r6, [sp, #20]
    b67c:	e1a02006 	mov	r2, r6
    b680:	eaffff7a 	b	b470 <_doprnt+0x304>
    b684:	e3a0c000 	mov	ip, #0
    b688:	e3a0100a 	mov	r1, #10
    b68c:	e1a0500c 	mov	r5, ip
    b690:	e58d1018 	str	r1, [sp, #24]
    b694:	e1a0100c 	mov	r1, ip
    b698:	eaffff23 	b	b32c <_doprnt+0x1c0>
    b69c:	e5962000 	ldr	r2, [r6]
    b6a0:	e59f02d4 	ldr	r0, [pc, #724]	; b97c <_doprnt+0x810>
    b6a4:	e2861004 	add	r1, r6, #4
    b6a8:	e3520000 	cmp	r2, #0
    b6ac:	e58d101c 	str	r1, [sp, #28]
    b6b0:	e1a01002 	mov	r1, r2
    b6b4:	01a01000 	moveq	r1, r0
    b6b8:	e58d1018 	str	r1, [sp, #24]
    b6bc:	e1a00001 	mov	r0, r1
    b6c0:	eaffffdb 	b	b634 <_doprnt+0x4c8>
    b6c4:	e3a0c004 	mov	ip, #4
    b6c8:	e2838001 	add	r8, r3, #1
    b6cc:	e086300c 	add	r3, r6, ip
    b6d0:	e58d301c 	str	r3, [sp, #28]
    b6d4:	e3a03010 	mov	r3, #16
    b6d8:	e58d3018 	str	r3, [sp, #24]
    b6dc:	e3a03030 	mov	r3, #48	; 0x30
    b6e0:	e1a0400c 	mov	r4, ip
    b6e4:	e3a05000 	mov	r5, #0
    b6e8:	e5960000 	ldr	r0, [r6]
    b6ec:	e58d3004 	str	r3, [sp, #4]
    b6f0:	e59f3288 	ldr	r3, [pc, #648]	; b980 <_doprnt+0x814>
    b6f4:	e3a06000 	mov	r6, #0
    b6f8:	e1cd32bc 	strh	r3, [sp, #44]	; 0x2c
    b6fc:	e3a03002 	mov	r3, #2
    b700:	e58d6014 	str	r6, [sp, #20]
    b704:	e58d300c 	str	r3, [sp, #12]
    b708:	eaffff1b 	b	b37c <_doprnt+0x210>
    b70c:	e3520001 	cmp	r2, #1
    b710:	0a000077 	beq	b8f4 <_doprnt+0x788>
    b714:	e3a01000 	mov	r1, #0
    b718:	e3a00008 	mov	r0, #8
    b71c:	e3a0c003 	mov	ip, #3
    b720:	e1a05001 	mov	r5, r1
    b724:	e58d0018 	str	r0, [sp, #24]
    b728:	eafffeff 	b	b32c <_doprnt+0x1c0>
    b72c:	e3530000 	cmp	r3, #0
    b730:	e58d4010 	str	r4, [sp, #16]
    b734:	11a04002 	movne	r4, r2
    b738:	1affff5b 	bne	b4ac <_doprnt+0x340>
    b73c:	e1a0700a 	mov	r7, sl
    b740:	e1a04002 	mov	r4, r2
    b744:	e59d3008 	ldr	r3, [sp, #8]
    b748:	e3530000 	cmp	r3, #0
    b74c:	0a00004e 	beq	b88c <_doprnt+0x720>
    b750:	e59d3014 	ldr	r3, [sp, #20]
    b754:	e3530000 	cmp	r3, #0
    b758:	0a000005 	beq	b774 <_doprnt+0x608>
    b75c:	e1a00003 	mov	r0, r3
    b760:	e1a0100b 	mov	r1, fp
    b764:	e12fff39 	blx	r9
    b768:	e3700001 	cmn	r0, #1
    b76c:	0affff59 	beq	b4d8 <_doprnt+0x36c>
    b770:	e2877001 	add	r7, r7, #1
    b774:	e3540000 	cmp	r4, #0
    b778:	10874004 	addne	r4, r7, r4
    b77c:	1a000002 	bne	b78c <_doprnt+0x620>
    b780:	ea000022 	b	b810 <_doprnt+0x6a4>
    b784:	e1570004 	cmp	r7, r4
    b788:	0a000021 	beq	b814 <_doprnt+0x6a8>
    b78c:	e1a0100b 	mov	r1, fp
    b790:	e3a00030 	mov	r0, #48	; 0x30
    b794:	e12fff39 	blx	r9
    b798:	e3700001 	cmn	r0, #1
    b79c:	e2877001 	add	r7, r7, #1
    b7a0:	1afffff7 	bne	b784 <_doprnt+0x618>
    b7a4:	e3e0a000 	mvn	sl, #0
    b7a8:	eaffff4b 	b	b4dc <_doprnt+0x370>
    b7ac:	e5d31001 	ldrb	r1, [r3, #1]
    b7b0:	e351002a 	cmp	r1, #42	; 0x2a
    b7b4:	0a000026 	beq	b854 <_doprnt+0x6e8>
    b7b8:	e241c030 	sub	ip, r1, #48	; 0x30
    b7bc:	e6efe07c 	uxtb	lr, ip
    b7c0:	e35e0009 	cmp	lr, #9
    b7c4:	e3a07000 	mov	r7, #0
    b7c8:	e2833001 	add	r3, r3, #1
    b7cc:	8afffea0 	bhi	b254 <_doprnt+0xe8>
    b7d0:	e5f31001 	ldrb	r1, [r3, #1]!
    b7d4:	e0877107 	add	r7, r7, r7, lsl #2
    b7d8:	e08c7087 	add	r7, ip, r7, lsl #1
    b7dc:	e241c030 	sub	ip, r1, #48	; 0x30
    b7e0:	e6efe07c 	uxtb	lr, ip
    b7e4:	e35e0009 	cmp	lr, #9
    b7e8:	9afffff8 	bls	b7d0 <_doprnt+0x664>
    b7ec:	eafffe98 	b	b254 <_doprnt+0xe8>
    b7f0:	e5d31001 	ldrb	r1, [r3, #1]
    b7f4:	e351006c 	cmp	r1, #108	; 0x6c
    b7f8:	05d31002 	ldrbeq	r1, [r3, #2]
    b7fc:	12833001 	addne	r3, r3, #1
    b800:	13a0e003 	movne	lr, #3
    b804:	03a0e004 	moveq	lr, #4
    b808:	02833002 	addeq	r3, r3, #2
    b80c:	eafffe9c 	b	b284 <_doprnt+0x118>
    b810:	e1a04007 	mov	r4, r7
    b814:	e3550000 	cmp	r5, #0
    b818:	da00002a 	ble	b8c8 <_doprnt+0x75c>
    b81c:	e59d3018 	ldr	r3, [sp, #24]
    b820:	e1a07003 	mov	r7, r3
    b824:	e0835005 	add	r5, r3, r5
    b828:	e0444003 	sub	r4, r4, r3
    b82c:	ea000002 	b	b83c <_doprnt+0x6d0>
    b830:	e1550007 	cmp	r5, r7
    b834:	e084a007 	add	sl, r4, r7
    b838:	0a000023 	beq	b8cc <_doprnt+0x760>
    b83c:	e1a0100b 	mov	r1, fp
    b840:	e4d70001 	ldrb	r0, [r7], #1
    b844:	e12fff39 	blx	r9
    b848:	e3700001 	cmn	r0, #1
    b84c:	1afffff7 	bne	b830 <_doprnt+0x6c4>
    b850:	eaffff20 	b	b4d8 <_doprnt+0x36c>
    b854:	e5967000 	ldr	r7, [r6]
    b858:	e5d31002 	ldrb	r1, [r3, #2]
    b85c:	e2866004 	add	r6, r6, #4
    b860:	e2833002 	add	r3, r3, #2
    b864:	eafffe7a 	b	b254 <_doprnt+0xe8>
    b868:	e59d3004 	ldr	r3, [sp, #4]
    b86c:	e59d1010 	ldr	r1, [sp, #16]
    b870:	e3a02000 	mov	r2, #0
    b874:	e3530030 	cmp	r3, #48	; 0x30
    b878:	13a01000 	movne	r1, #0
    b87c:	02011001 	andeq	r1, r1, #1
    b880:	e28d3030 	add	r3, sp, #48	; 0x30
    b884:	e58d3018 	str	r3, [sp, #24]
    b888:	eafffef8 	b	b470 <_doprnt+0x304>
    b88c:	e59d3010 	ldr	r3, [sp, #16]
    b890:	e3530000 	cmp	r3, #0
    b894:	0affffad 	beq	b750 <_doprnt+0x5e4>
    b898:	e087a003 	add	sl, r7, r3
    b89c:	e59d6004 	ldr	r6, [sp, #4]
    b8a0:	ea000001 	b	b8ac <_doprnt+0x740>
    b8a4:	e157000a 	cmp	r7, sl
    b8a8:	0affffa8 	beq	b750 <_doprnt+0x5e4>
    b8ac:	e1a0100b 	mov	r1, fp
    b8b0:	e1a00006 	mov	r0, r6
    b8b4:	e12fff39 	blx	r9
    b8b8:	e3700001 	cmn	r0, #1
    b8bc:	e2877001 	add	r7, r7, #1
    b8c0:	1afffff7 	bne	b8a4 <_doprnt+0x738>
    b8c4:	eaffff03 	b	b4d8 <_doprnt+0x36c>
    b8c8:	e1a0a004 	mov	sl, r4
    b8cc:	e59d3008 	ldr	r3, [sp, #8]
    b8d0:	e3530000 	cmp	r3, #0
    b8d4:	1a00000d 	bne	b910 <_doprnt+0x7a4>
    b8d8:	e59d601c 	ldr	r6, [sp, #28]
    b8dc:	eafffe30 	b	b1a4 <_doprnt+0x38>
    b8e0:	e3a0202d 	mov	r2, #45	; 0x2d
    b8e4:	e2600000 	rsb	r0, r0, #0
    b8e8:	e3a06001 	mov	r6, #1
    b8ec:	e58d2014 	str	r2, [sp, #20]
    b8f0:	eaffff2c 	b	b5a8 <_doprnt+0x43c>
    b8f4:	e1a01002 	mov	r1, r2
    b8f8:	e3a02008 	mov	r2, #8
    b8fc:	e3a0c003 	mov	ip, #3
    b900:	e58d2018 	str	r2, [sp, #24]
    b904:	e3a05000 	mov	r5, #0
    b908:	e3a02002 	mov	r2, #2
    b90c:	eafffe86 	b	b32c <_doprnt+0x1c0>
    b910:	e59d3010 	ldr	r3, [sp, #16]
    b914:	e3530000 	cmp	r3, #0
    b918:	0affffee 	beq	b8d8 <_doprnt+0x76c>
    b91c:	e083600a 	add	r6, r3, sl
    b920:	e59d4004 	ldr	r4, [sp, #4]
    b924:	ea000001 	b	b930 <_doprnt+0x7c4>
    b928:	e15a0006 	cmp	sl, r6
    b92c:	0affffe9 	beq	b8d8 <_doprnt+0x76c>
    b930:	e1a0100b 	mov	r1, fp
    b934:	e1a00004 	mov	r0, r4
    b938:	e12fff39 	blx	r9
    b93c:	e3700001 	cmn	r0, #1
    b940:	e28aa001 	add	sl, sl, #1
    b944:	1afffff7 	bne	b928 <_doprnt+0x7bc>
    b948:	eafffee2 	b	b4d8 <_doprnt+0x36c>
    b94c:	e3a02010 	mov	r2, #16
    b950:	e58d2018 	str	r2, [sp, #24]
    b954:	e3a02003 	mov	r2, #3
    b958:	eafffe73 	b	b32c <_doprnt+0x1c0>
    b95c:	e3520003 	cmp	r2, #3
    b960:	0affff62 	beq	b6f0 <_doprnt+0x584>
    b964:	e1a06001 	mov	r6, r1
    b968:	e58d1014 	str	r1, [sp, #20]
    b96c:	e58d100c 	str	r1, [sp, #12]
    b970:	eafffe81 	b	b37c <_doprnt+0x210>
    b974:	00015544 	.word	0x00015544
    b978:	00015554 	.word	0x00015554
    b97c:	00015564 	.word	0x00015564
    b980:	00007830 	.word	0x00007830

0000b984 <Init_EmbStdio>:
    b984:	e59f3004 	ldr	r3, [pc, #4]	; b990 <Init_EmbStdio+0xc>
    b988:	e5830108 	str	r0, [r3, #264]	; 0x108
    b98c:	e12fff1e 	bx	lr
    b990:	0001d8e4 	.word	0x0001d8e4

0000b994 <printf>:
    b994:	e92d000f 	push	{r0, r1, r2, r3}
    b998:	e92d4070 	push	{r4, r5, r6, lr}
    b99c:	e59f4084 	ldr	r4, [pc, #132]	; ba28 <printf+0x94>
    b9a0:	e24dd008 	sub	sp, sp, #8
    b9a4:	e5942108 	ldr	r2, [r4, #264]	; 0x108
    b9a8:	e3520000 	cmp	r2, #0
    b9ac:	0a00001b 	beq	ba20 <printf+0x8c>
    b9b0:	e3e00102 	mvn	r0, #-2147483648	; 0x80000000
    b9b4:	e3a05000 	mov	r5, #0
    b9b8:	e59f106c 	ldr	r1, [pc, #108]	; ba2c <printf+0x98>
    b9bc:	e28d301c 	add	r3, sp, #28
    b9c0:	e5810000 	str	r0, [r1]
    b9c4:	e1a01003 	mov	r1, r3
    b9c8:	e59d0018 	ldr	r0, [sp, #24]
    b9cc:	e58d3004 	str	r3, [sp, #4]
    b9d0:	e5845000 	str	r5, [r4]
    b9d4:	ebfffb63 	bl	a768 <_doprnt.constprop.1>
    b9d8:	e5943000 	ldr	r3, [r4]
    b9dc:	e1a06000 	mov	r6, r0
    b9e0:	e0552003 	subs	r2, r5, r3
    b9e4:	e6ef2072 	uxtb	r2, r2
    b9e8:	e6ef3073 	uxtb	r3, r3
    b9ec:	52623000 	rsbpl	r3, r2, #0
    b9f0:	e1530005 	cmp	r3, r5
    b9f4:	da000004 	ble	ba0c <printf+0x78>
    b9f8:	e0843003 	add	r3, r4, r3
    b9fc:	e5c35004 	strb	r5, [r3, #4]
    ba00:	e2840004 	add	r0, r4, #4
    ba04:	e5943108 	ldr	r3, [r4, #264]	; 0x108
    ba08:	e12fff33 	blx	r3
    ba0c:	e1a00006 	mov	r0, r6
    ba10:	e28dd008 	add	sp, sp, #8
    ba14:	e8bd4070 	pop	{r4, r5, r6, lr}
    ba18:	e28dd010 	add	sp, sp, #16
    ba1c:	e12fff1e 	bx	lr
    ba20:	e3e06000 	mvn	r6, #0
    ba24:	eafffff8 	b	ba0c <printf+0x78>
    ba28:	0001d8e4 	.word	0x0001d8e4
    ba2c:	0001d8c4 	.word	0x0001d8c4

0000ba30 <sprintf>:
    ba30:	e92d000e 	push	{r1, r2, r3}
    ba34:	e92d4030 	push	{r4, r5, lr}
    ba38:	e1a04000 	mov	r4, r0
    ba3c:	e3a05000 	mov	r5, #0
    ba40:	e3e00102 	mvn	r0, #-2147483648	; 0x80000000
    ba44:	e24dd008 	sub	sp, sp, #8
    ba48:	e59f1048 	ldr	r1, [pc, #72]	; ba98 <sprintf+0x68>
    ba4c:	e59f2048 	ldr	r2, [pc, #72]	; ba9c <sprintf+0x6c>
    ba50:	e28d3018 	add	r3, sp, #24
    ba54:	e5815000 	str	r5, [r1]
    ba58:	e5820000 	str	r0, [r2]
    ba5c:	e1a01003 	mov	r1, r3
    ba60:	e28d2004 	add	r2, sp, #4
    ba64:	e59d0014 	ldr	r0, [sp, #20]
    ba68:	e58d3000 	str	r3, [sp]
    ba6c:	e58d4004 	str	r4, [sp, #4]
    ba70:	ebfff8f9 	bl	9e5c <_doprnt.constprop.2>
    ba74:	e59d3004 	ldr	r3, [sp, #4]
    ba78:	e5c35000 	strb	r5, [r3]
    ba7c:	e59d0004 	ldr	r0, [sp, #4]
    ba80:	e0400004 	sub	r0, r0, r4
    ba84:	e2400001 	sub	r0, r0, #1
    ba88:	e28dd008 	add	sp, sp, #8
    ba8c:	e8bd4030 	pop	{r4, r5, lr}
    ba90:	e28dd00c 	add	sp, sp, #12
    ba94:	e12fff1e 	bx	lr
    ba98:	0001d8e4 	.word	0x0001d8e4
    ba9c:	0001d8c4 	.word	0x0001d8c4

0000baa0 <snprintf>:
    baa0:	e92d000c 	push	{r2, r3}
    baa4:	e92d4010 	push	{r4, lr}
    baa8:	e1a04000 	mov	r4, r0
    baac:	e3a00000 	mov	r0, #0
    bab0:	e59f2058 	ldr	r2, [pc, #88]	; bb10 <snprintf+0x70>
    bab4:	e24dd008 	sub	sp, sp, #8
    bab8:	e2513000 	subs	r3, r1, #0
    babc:	e5820000 	str	r0, [r2]
    bac0:	e59f004c 	ldr	r0, [pc, #76]	; bb14 <snprintf+0x74>
    bac4:	12433001 	subne	r3, r3, #1
    bac8:	e28dc014 	add	ip, sp, #20
    bacc:	e28d2004 	add	r2, sp, #4
    bad0:	e5803000 	str	r3, [r0]
    bad4:	e1a0100c 	mov	r1, ip
    bad8:	e59d0010 	ldr	r0, [sp, #16]
    badc:	e58d4004 	str	r4, [sp, #4]
    bae0:	e58dc000 	str	ip, [sp]
    bae4:	ebfff8dc 	bl	9e5c <_doprnt.constprop.2>
    bae8:	e3a02000 	mov	r2, #0
    baec:	e59d3004 	ldr	r3, [sp, #4]
    baf0:	e5c32000 	strb	r2, [r3]
    baf4:	e59d0004 	ldr	r0, [sp, #4]
    baf8:	e0400004 	sub	r0, r0, r4
    bafc:	e2400001 	sub	r0, r0, #1
    bb00:	e28dd008 	add	sp, sp, #8
    bb04:	e8bd4010 	pop	{r4, lr}
    bb08:	e28dd008 	add	sp, sp, #8
    bb0c:	e12fff1e 	bx	lr
    bb10:	0001d8e4 	.word	0x0001d8e4
    bb14:	0001d8c4 	.word	0x0001d8c4

0000bb18 <vprintf>:
    bb18:	e92d4070 	push	{r4, r5, r6, lr}
    bb1c:	e59f4064 	ldr	r4, [pc, #100]	; bb88 <vprintf+0x70>
    bb20:	e5942108 	ldr	r2, [r4, #264]	; 0x108
    bb24:	e3520000 	cmp	r2, #0
    bb28:	0a000014 	beq	bb80 <vprintf+0x68>
    bb2c:	e3a05000 	mov	r5, #0
    bb30:	e3e0c102 	mvn	ip, #-2147483648	; 0x80000000
    bb34:	e59f3050 	ldr	r3, [pc, #80]	; bb8c <vprintf+0x74>
    bb38:	e5845000 	str	r5, [r4]
    bb3c:	e583c000 	str	ip, [r3]
    bb40:	ebfffb08 	bl	a768 <_doprnt.constprop.1>
    bb44:	e5943000 	ldr	r3, [r4]
    bb48:	e1a06000 	mov	r6, r0
    bb4c:	e0552003 	subs	r2, r5, r3
    bb50:	e6ef2072 	uxtb	r2, r2
    bb54:	e6ef3073 	uxtb	r3, r3
    bb58:	52623000 	rsbpl	r3, r2, #0
    bb5c:	e1530005 	cmp	r3, r5
    bb60:	da000004 	ble	bb78 <vprintf+0x60>
    bb64:	e0843003 	add	r3, r4, r3
    bb68:	e5c35004 	strb	r5, [r3, #4]
    bb6c:	e2840004 	add	r0, r4, #4
    bb70:	e5943108 	ldr	r3, [r4, #264]	; 0x108
    bb74:	e12fff33 	blx	r3
    bb78:	e1a00006 	mov	r0, r6
    bb7c:	e8bd8070 	pop	{r4, r5, r6, pc}
    bb80:	e3e06000 	mvn	r6, #0
    bb84:	eafffffb 	b	bb78 <vprintf+0x60>
    bb88:	0001d8e4 	.word	0x0001d8e4
    bb8c:	0001d8c4 	.word	0x0001d8c4

0000bb90 <vsprintf>:
    bb90:	e92d4070 	push	{r4, r5, r6, lr}
    bb94:	e3a05000 	mov	r5, #0
    bb98:	e3e0e102 	mvn	lr, #-2147483648	; 0x80000000
    bb9c:	e24dd008 	sub	sp, sp, #8
    bba0:	e28d3008 	add	r3, sp, #8
    bba4:	e5230004 	str	r0, [r3, #-4]!
    bba8:	e1a04000 	mov	r4, r0
    bbac:	e59fc034 	ldr	ip, [pc, #52]	; bbe8 <vsprintf+0x58>
    bbb0:	e59f6034 	ldr	r6, [pc, #52]	; bbec <vsprintf+0x5c>
    bbb4:	e1a00001 	mov	r0, r1
    bbb8:	e1a01002 	mov	r1, r2
    bbbc:	e1a02003 	mov	r2, r3
    bbc0:	e5865000 	str	r5, [r6]
    bbc4:	e58ce000 	str	lr, [ip]
    bbc8:	ebfff8a3 	bl	9e5c <_doprnt.constprop.2>
    bbcc:	e59d3004 	ldr	r3, [sp, #4]
    bbd0:	e5c35000 	strb	r5, [r3]
    bbd4:	e59d0004 	ldr	r0, [sp, #4]
    bbd8:	e0400004 	sub	r0, r0, r4
    bbdc:	e2400001 	sub	r0, r0, #1
    bbe0:	e28dd008 	add	sp, sp, #8
    bbe4:	e8bd8070 	pop	{r4, r5, r6, pc}
    bbe8:	0001d8c4 	.word	0x0001d8c4
    bbec:	0001d8e4 	.word	0x0001d8e4

0000bbf0 <vsnprintf>:
    bbf0:	e92d4010 	push	{r4, lr}
    bbf4:	e3a0e000 	mov	lr, #0
    bbf8:	e1a04000 	mov	r4, r0
    bbfc:	e59f0048 	ldr	r0, [pc, #72]	; bc4c <vsnprintf+0x5c>
    bc00:	e24dd008 	sub	sp, sp, #8
    bc04:	e251c000 	subs	ip, r1, #0
    bc08:	e580e000 	str	lr, [r0]
    bc0c:	e59fe03c 	ldr	lr, [pc, #60]	; bc50 <vsnprintf+0x60>
    bc10:	124cc001 	subne	ip, ip, #1
    bc14:	e1a01003 	mov	r1, r3
    bc18:	e1a00002 	mov	r0, r2
    bc1c:	e28d2004 	add	r2, sp, #4
    bc20:	e58d4004 	str	r4, [sp, #4]
    bc24:	e58ec000 	str	ip, [lr]
    bc28:	ebfff88b 	bl	9e5c <_doprnt.constprop.2>
    bc2c:	e3a02000 	mov	r2, #0
    bc30:	e59d3004 	ldr	r3, [sp, #4]
    bc34:	e5c32000 	strb	r2, [r3]
    bc38:	e59d0004 	ldr	r0, [sp, #4]
    bc3c:	e0400004 	sub	r0, r0, r4
    bc40:	e2400001 	sub	r0, r0, #1
    bc44:	e28dd008 	add	sp, sp, #8
    bc48:	e8bd8010 	pop	{r4, pc}
    bc4c:	0001d8e4 	.word	0x0001d8e4
    bc50:	0001d8c4 	.word	0x0001d8c4

0000bc54 <spi_one_byte.constprop.6>:
    bc54:	e92d4070 	push	{r4, r5, r6, lr}
    bc58:	e59f406c 	ldr	r4, [pc, #108]	; bccc <spi_one_byte.constprop.6+0x78>
    bc5c:	e3a01001 	mov	r1, #1
    bc60:	e1a05000 	mov	r5, r0
    bc64:	e3a00019 	mov	r0, #25
    bc68:	ebfff371 	bl	8a34 <gpio_output>
    bc6c:	e5940000 	ldr	r0, [r4]
    bc70:	e3a010b0 	mov	r1, #176	; 0xb0
    bc74:	e2800981 	add	r0, r0, #2113536	; 0x204000
    bc78:	ebfff224 	bl	8510 <PUT32>
    bc7c:	e5940000 	ldr	r0, [r4]
    bc80:	e2800981 	add	r0, r0, #2113536	; 0x204000
    bc84:	ebfff223 	bl	8518 <GET32>
    bc88:	e3100701 	tst	r0, #262144	; 0x40000
    bc8c:	0afffffa 	beq	bc7c <spi_one_byte.constprop.6+0x28>
    bc90:	e5940000 	ldr	r0, [r4]
    bc94:	e1a01005 	mov	r1, r5
    bc98:	e2800981 	add	r0, r0, #2113536	; 0x204000
    bc9c:	e2800004 	add	r0, r0, #4
    bca0:	ebfff21a 	bl	8510 <PUT32>
    bca4:	e5940000 	ldr	r0, [r4]
    bca8:	e2800981 	add	r0, r0, #2113536	; 0x204000
    bcac:	ebfff219 	bl	8518 <GET32>
    bcb0:	e3100801 	tst	r0, #65536	; 0x10000
    bcb4:	0afffffa 	beq	bca4 <spi_one_byte.constprop.6+0x50>
    bcb8:	e5940000 	ldr	r0, [r4]
    bcbc:	e3a01000 	mov	r1, #0
    bcc0:	e8bd4070 	pop	{r4, r5, r6, lr}
    bcc4:	e2800981 	add	r0, r0, #2113536	; 0x204000
    bcc8:	eafff210 	b	8510 <PUT32>
    bccc:	0001b88c 	.word	0x0001b88c

0000bcd0 <DisplayBitmap.part.2>:
    bcd0:	e92d4ff0 	push	{r4, r5, r6, r7, r8, r9, sl, fp, lr}
    bcd4:	e1a05002 	mov	r5, r2
    bcd8:	e24dde52 	sub	sp, sp, #1312	; 0x520
    bcdc:	e24dd004 	sub	sp, sp, #4
    bce0:	e58d0008 	str	r0, [sp, #8]
    bce4:	e58d1018 	str	r1, [sp, #24]
    bce8:	e3a02c05 	mov	r2, #1280	; 0x500
    bcec:	e3a01000 	mov	r1, #0
    bcf0:	e28d0020 	add	r0, sp, #32
    bcf4:	eb001831 	bl	11dc0 <memset>
    bcf8:	e5d5101d 	ldrb	r1, [r5, #29]
    bcfc:	e5d5201c 	ldrb	r2, [r5, #28]
    bd00:	e5d53012 	ldrb	r3, [r5, #18]
    bd04:	e1822401 	orr	r2, r2, r1, lsl #8
    bd08:	e3520018 	cmp	r2, #24
    bd0c:	13a02004 	movne	r2, #4
    bd10:	03a02003 	moveq	r2, #3
    bd14:	e5d51013 	ldrb	r1, [r5, #19]
    bd18:	e5d50014 	ldrb	r0, [r5, #20]
    bd1c:	e1833401 	orr	r3, r3, r1, lsl #8
    bd20:	e5d51015 	ldrb	r1, [r5, #21]
    bd24:	e1833800 	orr	r3, r3, r0, lsl #16
    bd28:	e1833c01 	orr	r3, r3, r1, lsl #24
    bd2c:	e0020392 	mul	r2, r2, r3
    bd30:	e2123003 	ands	r3, r2, #3
    bd34:	e58d2004 	str	r2, [sp, #4]
    bd38:	12822004 	addne	r2, r2, #4
    bd3c:	10423003 	subne	r3, r2, r3
    bd40:	158d3004 	strne	r3, [sp, #4]
    bd44:	e5d52017 	ldrb	r2, [r5, #23]
    bd48:	e5d5e016 	ldrb	lr, [r5, #22]
    bd4c:	e5d53018 	ldrb	r3, [r5, #24]
    bd50:	e18ee402 	orr	lr, lr, r2, lsl #8
    bd54:	e5d5a00a 	ldrb	sl, [r5, #10]
    bd58:	e5d5200b 	ldrb	r2, [r5, #11]
    bd5c:	e18ee803 	orr	lr, lr, r3, lsl #16
    bd60:	e5d53019 	ldrb	r3, [r5, #25]
    bd64:	e18aa402 	orr	sl, sl, r2, lsl #8
    bd68:	e5d5200c 	ldrb	r2, [r5, #12]
    bd6c:	e19eec03 	orrs	lr, lr, r3, lsl #24
    bd70:	e5d5300d 	ldrb	r3, [r5, #13]
    bd74:	e18aa802 	orr	sl, sl, r2, lsl #16
    bd78:	e18aac03 	orr	sl, sl, r3, lsl #24
    bd7c:	0a0001af 	beq	c440 <DisplayBitmap.part.2+0x770>
    bd80:	e3a0b000 	mov	fp, #0
    bd84:	e1dd30b4 	ldrh	r3, [sp, #4]
    bd88:	e59f46bc 	ldr	r4, [pc, #1724]	; c44c <DisplayBitmap.part.2+0x77c>
    bd8c:	e58d300c 	str	r3, [sp, #12]
    bd90:	e2433001 	sub	r3, r3, #1
    bd94:	e6ff3073 	uxth	r3, r3
    bd98:	e0833083 	add	r3, r3, r3, lsl #1
    bd9c:	e2833003 	add	r3, r3, #3
    bda0:	e58d301c 	str	r3, [sp, #28]
    bda4:	e59d3008 	ldr	r3, [sp, #8]
    bda8:	e085a00a 	add	sl, r5, sl
    bdac:	e1a02423 	lsr	r2, r3, #8
    bdb0:	e6ef3073 	uxtb	r3, r3
    bdb4:	e58d2010 	str	r2, [sp, #16]
    bdb8:	e58d3014 	str	r3, [sp, #20]
    bdbc:	e59d300c 	ldr	r3, [sp, #12]
    bdc0:	e3530000 	cmp	r3, #0
    bdc4:	0a000017 	beq	be28 <DisplayBitmap.part.2+0x158>
    bdc8:	e1a0c00a 	mov	ip, sl
    bdcc:	e59d301c 	ldr	r3, [sp, #28]
    bdd0:	e28d0020 	add	r0, sp, #32
    bdd4:	e083600a 	add	r6, r3, sl
    bdd8:	e28cc003 	add	ip, ip, #3
    bddc:	e5d03000 	ldrb	r3, [r0]
    bde0:	e55c2003 	ldrb	r2, [ip, #-3]
    bde4:	e3c3301f 	bic	r3, r3, #31
    bde8:	e18331a2 	orr	r3, r3, r2, lsr #3
    bdec:	e5c03000 	strb	r3, [r0]
    bdf0:	e1d030b0 	ldrh	r3, [r0]
    bdf4:	e55c1002 	ldrb	r1, [ip, #-2]
    bdf8:	e55c2001 	ldrb	r2, [ip, #-1]
    bdfc:	e1a01121 	lsr	r1, r1, #2
    be00:	e3c33e7e 	bic	r3, r3, #2016	; 0x7e0
    be04:	e1833281 	orr	r3, r3, r1, lsl #5
    be08:	e20220f8 	and	r2, r2, #248	; 0xf8
    be0c:	e1a01a83 	lsl	r1, r3, #21
    be10:	e1822ea1 	orr	r2, r2, r1, lsr #29
    be14:	e15c0006 	cmp	ip, r6
    be18:	e1c030b0 	strh	r3, [r0]
    be1c:	e5c02001 	strb	r2, [r0, #1]
    be20:	e2800002 	add	r0, r0, #2
    be24:	1affffeb 	bne	bdd8 <DisplayBitmap.part.2+0x108>
    be28:	e59f3620 	ldr	r3, [pc, #1568]	; c450 <DisplayBitmap.part.2+0x780>
    be2c:	e3a01000 	mov	r1, #0
    be30:	e1d360b0 	ldrh	r6, [r3]
    be34:	e59d3018 	ldr	r3, [sp, #24]
    be38:	e3a00019 	mov	r0, #25
    be3c:	e0466003 	sub	r6, r6, r3
    be40:	e086600b 	add	r6, r6, fp
    be44:	e046600e 	sub	r6, r6, lr
    be48:	ebfff2f9 	bl	8a34 <gpio_output>
    be4c:	e5940000 	ldr	r0, [r4]
    be50:	e3a010b0 	mov	r1, #176	; 0xb0
    be54:	e2800981 	add	r0, r0, #2113536	; 0x204000
    be58:	e6ff6076 	uxth	r6, r6
    be5c:	ebfff1ab 	bl	8510 <PUT32>
    be60:	e5940000 	ldr	r0, [r4]
    be64:	e2800981 	add	r0, r0, #2113536	; 0x204000
    be68:	ebfff1aa 	bl	8518 <GET32>
    be6c:	e3100701 	tst	r0, #262144	; 0x40000
    be70:	0afffffa 	beq	be60 <DisplayBitmap.part.2+0x190>
    be74:	e5940000 	ldr	r0, [r4]
    be78:	e3a0102a 	mov	r1, #42	; 0x2a
    be7c:	e2800981 	add	r0, r0, #2113536	; 0x204000
    be80:	e2800004 	add	r0, r0, #4
    be84:	ebfff1a1 	bl	8510 <PUT32>
    be88:	e5940000 	ldr	r0, [r4]
    be8c:	e2800981 	add	r0, r0, #2113536	; 0x204000
    be90:	ebfff1a0 	bl	8518 <GET32>
    be94:	e3100801 	tst	r0, #65536	; 0x10000
    be98:	0afffffa 	beq	be88 <DisplayBitmap.part.2+0x1b8>
    be9c:	e5940000 	ldr	r0, [r4]
    bea0:	e3a01000 	mov	r1, #0
    bea4:	e2800981 	add	r0, r0, #2113536	; 0x204000
    bea8:	ebfff198 	bl	8510 <PUT32>
    beac:	e3a01001 	mov	r1, #1
    beb0:	e3a00019 	mov	r0, #25
    beb4:	ebfff2de 	bl	8a34 <gpio_output>
    beb8:	e5940000 	ldr	r0, [r4]
    bebc:	e3a010b0 	mov	r1, #176	; 0xb0
    bec0:	e2800981 	add	r0, r0, #2113536	; 0x204000
    bec4:	e1a07426 	lsr	r7, r6, #8
    bec8:	e6ef6076 	uxtb	r6, r6
    becc:	ebfff18f 	bl	8510 <PUT32>
    bed0:	e5940000 	ldr	r0, [r4]
    bed4:	e2800981 	add	r0, r0, #2113536	; 0x204000
    bed8:	ebfff18e 	bl	8518 <GET32>
    bedc:	e3100701 	tst	r0, #262144	; 0x40000
    bee0:	0afffffa 	beq	bed0 <DisplayBitmap.part.2+0x200>
    bee4:	e5940000 	ldr	r0, [r4]
    bee8:	e1a01007 	mov	r1, r7
    beec:	e2800981 	add	r0, r0, #2113536	; 0x204000
    bef0:	e2800004 	add	r0, r0, #4
    bef4:	ebfff185 	bl	8510 <PUT32>
    bef8:	e5940000 	ldr	r0, [r4]
    befc:	e2800981 	add	r0, r0, #2113536	; 0x204000
    bf00:	ebfff184 	bl	8518 <GET32>
    bf04:	e3100801 	tst	r0, #65536	; 0x10000
    bf08:	0afffffa 	beq	bef8 <DisplayBitmap.part.2+0x228>
    bf0c:	e5940000 	ldr	r0, [r4]
    bf10:	e3a01000 	mov	r1, #0
    bf14:	e2800981 	add	r0, r0, #2113536	; 0x204000
    bf18:	ebfff17c 	bl	8510 <PUT32>
    bf1c:	e3a01001 	mov	r1, #1
    bf20:	e3a00019 	mov	r0, #25
    bf24:	ebfff2c2 	bl	8a34 <gpio_output>
    bf28:	e5940000 	ldr	r0, [r4]
    bf2c:	e3a010b0 	mov	r1, #176	; 0xb0
    bf30:	e2800981 	add	r0, r0, #2113536	; 0x204000
    bf34:	ebfff175 	bl	8510 <PUT32>
    bf38:	e5940000 	ldr	r0, [r4]
    bf3c:	e2800981 	add	r0, r0, #2113536	; 0x204000
    bf40:	ebfff174 	bl	8518 <GET32>
    bf44:	e3100701 	tst	r0, #262144	; 0x40000
    bf48:	0afffffa 	beq	bf38 <DisplayBitmap.part.2+0x268>
    bf4c:	e5940000 	ldr	r0, [r4]
    bf50:	e1a01006 	mov	r1, r6
    bf54:	e2800981 	add	r0, r0, #2113536	; 0x204000
    bf58:	e2800004 	add	r0, r0, #4
    bf5c:	ebfff16b 	bl	8510 <PUT32>
    bf60:	e5940000 	ldr	r0, [r4]
    bf64:	e2800981 	add	r0, r0, #2113536	; 0x204000
    bf68:	ebfff16a 	bl	8518 <GET32>
    bf6c:	e3100801 	tst	r0, #65536	; 0x10000
    bf70:	0afffffa 	beq	bf60 <DisplayBitmap.part.2+0x290>
    bf74:	e5940000 	ldr	r0, [r4]
    bf78:	e3a01000 	mov	r1, #0
    bf7c:	e2800981 	add	r0, r0, #2113536	; 0x204000
    bf80:	ebfff162 	bl	8510 <PUT32>
    bf84:	e3a01001 	mov	r1, #1
    bf88:	e3a00019 	mov	r0, #25
    bf8c:	ebfff2a8 	bl	8a34 <gpio_output>
    bf90:	e5940000 	ldr	r0, [r4]
    bf94:	e3a010b0 	mov	r1, #176	; 0xb0
    bf98:	e2800981 	add	r0, r0, #2113536	; 0x204000
    bf9c:	ebfff15b 	bl	8510 <PUT32>
    bfa0:	e5940000 	ldr	r0, [r4]
    bfa4:	e2800981 	add	r0, r0, #2113536	; 0x204000
    bfa8:	ebfff15a 	bl	8518 <GET32>
    bfac:	e3100701 	tst	r0, #262144	; 0x40000
    bfb0:	0afffffa 	beq	bfa0 <DisplayBitmap.part.2+0x2d0>
    bfb4:	e5940000 	ldr	r0, [r4]
    bfb8:	e1a01007 	mov	r1, r7
    bfbc:	e2800981 	add	r0, r0, #2113536	; 0x204000
    bfc0:	e2800004 	add	r0, r0, #4
    bfc4:	ebfff151 	bl	8510 <PUT32>
    bfc8:	e5940000 	ldr	r0, [r4]
    bfcc:	e2800981 	add	r0, r0, #2113536	; 0x204000
    bfd0:	ebfff150 	bl	8518 <GET32>
    bfd4:	e3100801 	tst	r0, #65536	; 0x10000
    bfd8:	0afffffa 	beq	bfc8 <DisplayBitmap.part.2+0x2f8>
    bfdc:	e5940000 	ldr	r0, [r4]
    bfe0:	e3a01000 	mov	r1, #0
    bfe4:	e2800981 	add	r0, r0, #2113536	; 0x204000
    bfe8:	ebfff148 	bl	8510 <PUT32>
    bfec:	e3a01001 	mov	r1, #1
    bff0:	e3a00019 	mov	r0, #25
    bff4:	ebfff28e 	bl	8a34 <gpio_output>
    bff8:	e5940000 	ldr	r0, [r4]
    bffc:	e3a010b0 	mov	r1, #176	; 0xb0
    c000:	e2800981 	add	r0, r0, #2113536	; 0x204000
    c004:	ebfff141 	bl	8510 <PUT32>
    c008:	e5940000 	ldr	r0, [r4]
    c00c:	e2800981 	add	r0, r0, #2113536	; 0x204000
    c010:	ebfff140 	bl	8518 <GET32>
    c014:	e3100701 	tst	r0, #262144	; 0x40000
    c018:	0afffffa 	beq	c008 <DisplayBitmap.part.2+0x338>
    c01c:	e5940000 	ldr	r0, [r4]
    c020:	e1a01006 	mov	r1, r6
    c024:	e2800981 	add	r0, r0, #2113536	; 0x204000
    c028:	e2800004 	add	r0, r0, #4
    c02c:	ebfff137 	bl	8510 <PUT32>
    c030:	e5940000 	ldr	r0, [r4]
    c034:	e2800981 	add	r0, r0, #2113536	; 0x204000
    c038:	ebfff136 	bl	8518 <GET32>
    c03c:	e3100801 	tst	r0, #65536	; 0x10000
    c040:	0afffffa 	beq	c030 <DisplayBitmap.part.2+0x360>
    c044:	e5940000 	ldr	r0, [r4]
    c048:	e3a01000 	mov	r1, #0
    c04c:	e2800981 	add	r0, r0, #2113536	; 0x204000
    c050:	ebfff12e 	bl	8510 <PUT32>
    c054:	e5d53013 	ldrb	r3, [r5, #19]
    c058:	e5d56012 	ldrb	r6, [r5, #18]
    c05c:	e3a01000 	mov	r1, #0
    c060:	e1866403 	orr	r6, r6, r3, lsl #8
    c064:	e59d3008 	ldr	r3, [sp, #8]
    c068:	e3a00019 	mov	r0, #25
    c06c:	e0866003 	add	r6, r6, r3
    c070:	ebfff26f 	bl	8a34 <gpio_output>
    c074:	e5940000 	ldr	r0, [r4]
    c078:	e3a010b0 	mov	r1, #176	; 0xb0
    c07c:	e2800981 	add	r0, r0, #2113536	; 0x204000
    c080:	e6ff6076 	uxth	r6, r6
    c084:	ebfff121 	bl	8510 <PUT32>
    c088:	e5940000 	ldr	r0, [r4]
    c08c:	e2800981 	add	r0, r0, #2113536	; 0x204000
    c090:	ebfff120 	bl	8518 <GET32>
    c094:	e3100701 	tst	r0, #262144	; 0x40000
    c098:	0afffffa 	beq	c088 <DisplayBitmap.part.2+0x3b8>
    c09c:	e5940000 	ldr	r0, [r4]
    c0a0:	e3a0102b 	mov	r1, #43	; 0x2b
    c0a4:	e2800981 	add	r0, r0, #2113536	; 0x204000
    c0a8:	e2800004 	add	r0, r0, #4
    c0ac:	ebfff117 	bl	8510 <PUT32>
    c0b0:	e5940000 	ldr	r0, [r4]
    c0b4:	e2800981 	add	r0, r0, #2113536	; 0x204000
    c0b8:	ebfff116 	bl	8518 <GET32>
    c0bc:	e3100801 	tst	r0, #65536	; 0x10000
    c0c0:	0afffffa 	beq	c0b0 <DisplayBitmap.part.2+0x3e0>
    c0c4:	e5940000 	ldr	r0, [r4]
    c0c8:	e3a01000 	mov	r1, #0
    c0cc:	e2800981 	add	r0, r0, #2113536	; 0x204000
    c0d0:	ebfff10e 	bl	8510 <PUT32>
    c0d4:	e3a01001 	mov	r1, #1
    c0d8:	e3a00019 	mov	r0, #25
    c0dc:	ebfff254 	bl	8a34 <gpio_output>
    c0e0:	e5940000 	ldr	r0, [r4]
    c0e4:	e3a010b0 	mov	r1, #176	; 0xb0
    c0e8:	e2800981 	add	r0, r0, #2113536	; 0x204000
    c0ec:	ebfff107 	bl	8510 <PUT32>
    c0f0:	e5940000 	ldr	r0, [r4]
    c0f4:	e2800981 	add	r0, r0, #2113536	; 0x204000
    c0f8:	ebfff106 	bl	8518 <GET32>
    c0fc:	e3100701 	tst	r0, #262144	; 0x40000
    c100:	0afffffa 	beq	c0f0 <DisplayBitmap.part.2+0x420>
    c104:	e5940000 	ldr	r0, [r4]
    c108:	e59d1010 	ldr	r1, [sp, #16]
    c10c:	e2800981 	add	r0, r0, #2113536	; 0x204000
    c110:	e2800004 	add	r0, r0, #4
    c114:	ebfff0fd 	bl	8510 <PUT32>
    c118:	e5940000 	ldr	r0, [r4]
    c11c:	e2800981 	add	r0, r0, #2113536	; 0x204000
    c120:	ebfff0fc 	bl	8518 <GET32>
    c124:	e3100801 	tst	r0, #65536	; 0x10000
    c128:	0afffffa 	beq	c118 <DisplayBitmap.part.2+0x448>
    c12c:	e5940000 	ldr	r0, [r4]
    c130:	e3a01000 	mov	r1, #0
    c134:	e2800981 	add	r0, r0, #2113536	; 0x204000
    c138:	ebfff0f4 	bl	8510 <PUT32>
    c13c:	e3a01001 	mov	r1, #1
    c140:	e3a00019 	mov	r0, #25
    c144:	ebfff23a 	bl	8a34 <gpio_output>
    c148:	e5940000 	ldr	r0, [r4]
    c14c:	e3a010b0 	mov	r1, #176	; 0xb0
    c150:	e2800981 	add	r0, r0, #2113536	; 0x204000
    c154:	ebfff0ed 	bl	8510 <PUT32>
    c158:	e5940000 	ldr	r0, [r4]
    c15c:	e2800981 	add	r0, r0, #2113536	; 0x204000
    c160:	ebfff0ec 	bl	8518 <GET32>
    c164:	e3100701 	tst	r0, #262144	; 0x40000
    c168:	0afffffa 	beq	c158 <DisplayBitmap.part.2+0x488>
    c16c:	e5940000 	ldr	r0, [r4]
    c170:	e59d1014 	ldr	r1, [sp, #20]
    c174:	e2800981 	add	r0, r0, #2113536	; 0x204000
    c178:	e2800004 	add	r0, r0, #4
    c17c:	ebfff0e3 	bl	8510 <PUT32>
    c180:	e5940000 	ldr	r0, [r4]
    c184:	e2800981 	add	r0, r0, #2113536	; 0x204000
    c188:	ebfff0e2 	bl	8518 <GET32>
    c18c:	e3100801 	tst	r0, #65536	; 0x10000
    c190:	0afffffa 	beq	c180 <DisplayBitmap.part.2+0x4b0>
    c194:	e5940000 	ldr	r0, [r4]
    c198:	e3a01000 	mov	r1, #0
    c19c:	e2800981 	add	r0, r0, #2113536	; 0x204000
    c1a0:	ebfff0da 	bl	8510 <PUT32>
    c1a4:	e3a01001 	mov	r1, #1
    c1a8:	e3a00019 	mov	r0, #25
    c1ac:	ebfff220 	bl	8a34 <gpio_output>
    c1b0:	e5940000 	ldr	r0, [r4]
    c1b4:	e3a010b0 	mov	r1, #176	; 0xb0
    c1b8:	e2800981 	add	r0, r0, #2113536	; 0x204000
    c1bc:	e1a07426 	lsr	r7, r6, #8
    c1c0:	e6ef6076 	uxtb	r6, r6
    c1c4:	ebfff0d1 	bl	8510 <PUT32>
    c1c8:	e5940000 	ldr	r0, [r4]
    c1cc:	e2800981 	add	r0, r0, #2113536	; 0x204000
    c1d0:	ebfff0d0 	bl	8518 <GET32>
    c1d4:	e3100701 	tst	r0, #262144	; 0x40000
    c1d8:	0afffffa 	beq	c1c8 <DisplayBitmap.part.2+0x4f8>
    c1dc:	e5940000 	ldr	r0, [r4]
    c1e0:	e1a01007 	mov	r1, r7
    c1e4:	e2800981 	add	r0, r0, #2113536	; 0x204000
    c1e8:	e2800004 	add	r0, r0, #4
    c1ec:	ebfff0c7 	bl	8510 <PUT32>
    c1f0:	e5940000 	ldr	r0, [r4]
    c1f4:	e2800981 	add	r0, r0, #2113536	; 0x204000
    c1f8:	ebfff0c6 	bl	8518 <GET32>
    c1fc:	e3100801 	tst	r0, #65536	; 0x10000
    c200:	0afffffa 	beq	c1f0 <DisplayBitmap.part.2+0x520>
    c204:	e5940000 	ldr	r0, [r4]
    c208:	e3a01000 	mov	r1, #0
    c20c:	e2800981 	add	r0, r0, #2113536	; 0x204000
    c210:	ebfff0be 	bl	8510 <PUT32>
    c214:	e3a01001 	mov	r1, #1
    c218:	e3a00019 	mov	r0, #25
    c21c:	ebfff204 	bl	8a34 <gpio_output>
    c220:	e5940000 	ldr	r0, [r4]
    c224:	e3a010b0 	mov	r1, #176	; 0xb0
    c228:	e2800981 	add	r0, r0, #2113536	; 0x204000
    c22c:	ebfff0b7 	bl	8510 <PUT32>
    c230:	e5940000 	ldr	r0, [r4]
    c234:	e2800981 	add	r0, r0, #2113536	; 0x204000
    c238:	ebfff0b6 	bl	8518 <GET32>
    c23c:	e3100701 	tst	r0, #262144	; 0x40000
    c240:	0afffffa 	beq	c230 <DisplayBitmap.part.2+0x560>
    c244:	e5940000 	ldr	r0, [r4]
    c248:	e1a01006 	mov	r1, r6
    c24c:	e2800981 	add	r0, r0, #2113536	; 0x204000
    c250:	e2800004 	add	r0, r0, #4
    c254:	ebfff0ad 	bl	8510 <PUT32>
    c258:	e5940000 	ldr	r0, [r4]
    c25c:	e2800981 	add	r0, r0, #2113536	; 0x204000
    c260:	ebfff0ac 	bl	8518 <GET32>
    c264:	e3100801 	tst	r0, #65536	; 0x10000
    c268:	0afffffa 	beq	c258 <DisplayBitmap.part.2+0x588>
    c26c:	e5940000 	ldr	r0, [r4]
    c270:	e3a01000 	mov	r1, #0
    c274:	e2800981 	add	r0, r0, #2113536	; 0x204000
    c278:	ebfff0a4 	bl	8510 <PUT32>
    c27c:	e3a01000 	mov	r1, #0
    c280:	e3a00019 	mov	r0, #25
    c284:	ebfff1ea 	bl	8a34 <gpio_output>
    c288:	e5940000 	ldr	r0, [r4]
    c28c:	e3a010b0 	mov	r1, #176	; 0xb0
    c290:	e2800981 	add	r0, r0, #2113536	; 0x204000
    c294:	ebfff09d 	bl	8510 <PUT32>
    c298:	e5940000 	ldr	r0, [r4]
    c29c:	e2800981 	add	r0, r0, #2113536	; 0x204000
    c2a0:	ebfff09c 	bl	8518 <GET32>
    c2a4:	e3100701 	tst	r0, #262144	; 0x40000
    c2a8:	0afffffa 	beq	c298 <DisplayBitmap.part.2+0x5c8>
    c2ac:	e5940000 	ldr	r0, [r4]
    c2b0:	e3a0102c 	mov	r1, #44	; 0x2c
    c2b4:	e2800981 	add	r0, r0, #2113536	; 0x204000
    c2b8:	e2800004 	add	r0, r0, #4
    c2bc:	ebfff093 	bl	8510 <PUT32>
    c2c0:	e5940000 	ldr	r0, [r4]
    c2c4:	e2800981 	add	r0, r0, #2113536	; 0x204000
    c2c8:	ebfff092 	bl	8518 <GET32>
    c2cc:	e3100801 	tst	r0, #65536	; 0x10000
    c2d0:	0afffffa 	beq	c2c0 <DisplayBitmap.part.2+0x5f0>
    c2d4:	e5940000 	ldr	r0, [r4]
    c2d8:	e3a01000 	mov	r1, #0
    c2dc:	e2800981 	add	r0, r0, #2113536	; 0x204000
    c2e0:	ebfff08a 	bl	8510 <PUT32>
    c2e4:	e5d52013 	ldrb	r2, [r5, #19]
    c2e8:	e5d53012 	ldrb	r3, [r5, #18]
    c2ec:	e5d51014 	ldrb	r1, [r5, #20]
    c2f0:	e1833402 	orr	r3, r3, r2, lsl #8
    c2f4:	e5d52015 	ldrb	r2, [r5, #21]
    c2f8:	e1833801 	orr	r3, r3, r1, lsl #16
    c2fc:	e1933c02 	orrs	r3, r3, r2, lsl #24
    c300:	0a000042 	beq	c410 <DisplayBitmap.part.2+0x740>
    c304:	e3a07000 	mov	r7, #0
    c308:	e28d801e 	add	r8, sp, #30
    c30c:	e3a01001 	mov	r1, #1
    c310:	e3a00019 	mov	r0, #25
    c314:	e1f860b2 	ldrh	r6, [r8, #2]!
    c318:	ebfff1c5 	bl	8a34 <gpio_output>
    c31c:	e5940000 	ldr	r0, [r4]
    c320:	e3a010b0 	mov	r1, #176	; 0xb0
    c324:	e2800981 	add	r0, r0, #2113536	; 0x204000
    c328:	e1a09426 	lsr	r9, r6, #8
    c32c:	e6ef6076 	uxtb	r6, r6
    c330:	ebfff076 	bl	8510 <PUT32>
    c334:	e5940000 	ldr	r0, [r4]
    c338:	e2800981 	add	r0, r0, #2113536	; 0x204000
    c33c:	ebfff075 	bl	8518 <GET32>
    c340:	e3100701 	tst	r0, #262144	; 0x40000
    c344:	0afffffa 	beq	c334 <DisplayBitmap.part.2+0x664>
    c348:	e5940000 	ldr	r0, [r4]
    c34c:	e1a01009 	mov	r1, r9
    c350:	e2800981 	add	r0, r0, #2113536	; 0x204000
    c354:	e2800004 	add	r0, r0, #4
    c358:	ebfff06c 	bl	8510 <PUT32>
    c35c:	e5940000 	ldr	r0, [r4]
    c360:	e2800981 	add	r0, r0, #2113536	; 0x204000
    c364:	ebfff06b 	bl	8518 <GET32>
    c368:	e3100801 	tst	r0, #65536	; 0x10000
    c36c:	0afffffa 	beq	c35c <DisplayBitmap.part.2+0x68c>
    c370:	e5940000 	ldr	r0, [r4]
    c374:	e3a01000 	mov	r1, #0
    c378:	e2800981 	add	r0, r0, #2113536	; 0x204000
    c37c:	ebfff063 	bl	8510 <PUT32>
    c380:	e3a01001 	mov	r1, #1
    c384:	e3a00019 	mov	r0, #25
    c388:	ebfff1a9 	bl	8a34 <gpio_output>
    c38c:	e5940000 	ldr	r0, [r4]
    c390:	e3a010b0 	mov	r1, #176	; 0xb0
    c394:	e2800981 	add	r0, r0, #2113536	; 0x204000
    c398:	ebfff05c 	bl	8510 <PUT32>
    c39c:	e5940000 	ldr	r0, [r4]
    c3a0:	e2800981 	add	r0, r0, #2113536	; 0x204000
    c3a4:	ebfff05b 	bl	8518 <GET32>
    c3a8:	e3100701 	tst	r0, #262144	; 0x40000
    c3ac:	0afffffa 	beq	c39c <DisplayBitmap.part.2+0x6cc>
    c3b0:	e5940000 	ldr	r0, [r4]
    c3b4:	e1a01006 	mov	r1, r6
    c3b8:	e2800981 	add	r0, r0, #2113536	; 0x204000
    c3bc:	e2800004 	add	r0, r0, #4
    c3c0:	ebfff052 	bl	8510 <PUT32>
    c3c4:	e5940000 	ldr	r0, [r4]
    c3c8:	e2800981 	add	r0, r0, #2113536	; 0x204000
    c3cc:	ebfff051 	bl	8518 <GET32>
    c3d0:	e3100801 	tst	r0, #65536	; 0x10000
    c3d4:	0afffffa 	beq	c3c4 <DisplayBitmap.part.2+0x6f4>
    c3d8:	e5940000 	ldr	r0, [r4]
    c3dc:	e3a01000 	mov	r1, #0
    c3e0:	e2800981 	add	r0, r0, #2113536	; 0x204000
    c3e4:	ebfff049 	bl	8510 <PUT32>
    c3e8:	e5d52013 	ldrb	r2, [r5, #19]
    c3ec:	e5d53012 	ldrb	r3, [r5, #18]
    c3f0:	e5d51014 	ldrb	r1, [r5, #20]
    c3f4:	e1833402 	orr	r3, r3, r2, lsl #8
    c3f8:	e5d52015 	ldrb	r2, [r5, #21]
    c3fc:	e1833801 	orr	r3, r3, r1, lsl #16
    c400:	e2877001 	add	r7, r7, #1
    c404:	e1833c02 	orr	r3, r3, r2, lsl #24
    c408:	e1530007 	cmp	r3, r7
    c40c:	8affffbe 	bhi	c30c <DisplayBitmap.part.2+0x63c>
    c410:	e5d5e016 	ldrb	lr, [r5, #22]
    c414:	e5d52017 	ldrb	r2, [r5, #23]
    c418:	e5d53018 	ldrb	r3, [r5, #24]
    c41c:	e18ee402 	orr	lr, lr, r2, lsl #8
    c420:	e5d56019 	ldrb	r6, [r5, #25]
    c424:	e18ee803 	orr	lr, lr, r3, lsl #16
    c428:	e28bb001 	add	fp, fp, #1
    c42c:	e18eec06 	orr	lr, lr, r6, lsl #24
    c430:	e59d3004 	ldr	r3, [sp, #4]
    c434:	e15b000e 	cmp	fp, lr
    c438:	e08aa003 	add	sl, sl, r3
    c43c:	3afffe5e 	bcc	bdbc <DisplayBitmap.part.2+0xec>
    c440:	e28dde52 	add	sp, sp, #1312	; 0x520
    c444:	e28dd004 	add	sp, sp, #4
    c448:	e8bd8ff0 	pop	{r4, r5, r6, r7, r8, r9, sl, fp, pc}
    c44c:	0001b88c 	.word	0x0001b88c
    c450:	0001d8c8 	.word	0x0001d8c8

0000c454 <spi_one_byte>:
    c454:	e92d4070 	push	{r4, r5, r6, lr}
    c458:	e59f406c 	ldr	r4, [pc, #108]	; c4cc <spi_one_byte+0x78>
    c45c:	e1a05001 	mov	r5, r1
    c460:	e1a01000 	mov	r1, r0
    c464:	e3a00019 	mov	r0, #25
    c468:	ebfff171 	bl	8a34 <gpio_output>
    c46c:	e5940000 	ldr	r0, [r4]
    c470:	e3a010b0 	mov	r1, #176	; 0xb0
    c474:	e2800981 	add	r0, r0, #2113536	; 0x204000
    c478:	ebfff024 	bl	8510 <PUT32>
    c47c:	e5940000 	ldr	r0, [r4]
    c480:	e2800981 	add	r0, r0, #2113536	; 0x204000
    c484:	ebfff023 	bl	8518 <GET32>
    c488:	e3100701 	tst	r0, #262144	; 0x40000
    c48c:	0afffffa 	beq	c47c <spi_one_byte+0x28>
    c490:	e5940000 	ldr	r0, [r4]
    c494:	e1a01005 	mov	r1, r5
    c498:	e2800981 	add	r0, r0, #2113536	; 0x204000
    c49c:	e2800004 	add	r0, r0, #4
    c4a0:	ebfff01a 	bl	8510 <PUT32>
    c4a4:	e5940000 	ldr	r0, [r4]
    c4a8:	e2800981 	add	r0, r0, #2113536	; 0x204000
    c4ac:	ebfff019 	bl	8518 <GET32>
    c4b0:	e3100801 	tst	r0, #65536	; 0x10000
    c4b4:	0afffffa 	beq	c4a4 <spi_one_byte+0x50>
    c4b8:	e5940000 	ldr	r0, [r4]
    c4bc:	e3a01000 	mov	r1, #0
    c4c0:	e8bd4070 	pop	{r4, r5, r6, lr}
    c4c4:	e2800981 	add	r0, r0, #2113536	; 0x204000
    c4c8:	eafff010 	b	8510 <PUT32>
    c4cc:	0001b88c 	.word	0x0001b88c

0000c4d0 <spi_data16>:
    c4d0:	e92d4070 	push	{r4, r5, r6, lr}
    c4d4:	e1a05000 	mov	r5, r0
    c4d8:	e59f40d8 	ldr	r4, [pc, #216]	; c5b8 <spi_data16+0xe8>
    c4dc:	e3a01001 	mov	r1, #1
    c4e0:	e3a00019 	mov	r0, #25
    c4e4:	ebfff152 	bl	8a34 <gpio_output>
    c4e8:	e5940000 	ldr	r0, [r4]
    c4ec:	e3a010b0 	mov	r1, #176	; 0xb0
    c4f0:	e2800981 	add	r0, r0, #2113536	; 0x204000
    c4f4:	e1a06425 	lsr	r6, r5, #8
    c4f8:	e6ef5075 	uxtb	r5, r5
    c4fc:	ebfff003 	bl	8510 <PUT32>
    c500:	e5940000 	ldr	r0, [r4]
    c504:	e2800981 	add	r0, r0, #2113536	; 0x204000
    c508:	ebfff002 	bl	8518 <GET32>
    c50c:	e3100701 	tst	r0, #262144	; 0x40000
    c510:	0afffffa 	beq	c500 <spi_data16+0x30>
    c514:	e5940000 	ldr	r0, [r4]
    c518:	e1a01006 	mov	r1, r6
    c51c:	e2800981 	add	r0, r0, #2113536	; 0x204000
    c520:	e2800004 	add	r0, r0, #4
    c524:	ebffeff9 	bl	8510 <PUT32>
    c528:	e5940000 	ldr	r0, [r4]
    c52c:	e2800981 	add	r0, r0, #2113536	; 0x204000
    c530:	ebffeff8 	bl	8518 <GET32>
    c534:	e3100801 	tst	r0, #65536	; 0x10000
    c538:	0afffffa 	beq	c528 <spi_data16+0x58>
    c53c:	e5940000 	ldr	r0, [r4]
    c540:	e3a01000 	mov	r1, #0
    c544:	e2800981 	add	r0, r0, #2113536	; 0x204000
    c548:	ebffeff0 	bl	8510 <PUT32>
    c54c:	e3a01001 	mov	r1, #1
    c550:	e3a00019 	mov	r0, #25
    c554:	ebfff136 	bl	8a34 <gpio_output>
    c558:	e5940000 	ldr	r0, [r4]
    c55c:	e3a010b0 	mov	r1, #176	; 0xb0
    c560:	e2800981 	add	r0, r0, #2113536	; 0x204000
    c564:	ebffefe9 	bl	8510 <PUT32>
    c568:	e5940000 	ldr	r0, [r4]
    c56c:	e2800981 	add	r0, r0, #2113536	; 0x204000
    c570:	ebffefe8 	bl	8518 <GET32>
    c574:	e3100701 	tst	r0, #262144	; 0x40000
    c578:	0afffffa 	beq	c568 <spi_data16+0x98>
    c57c:	e5940000 	ldr	r0, [r4]
    c580:	e1a01005 	mov	r1, r5
    c584:	e2800981 	add	r0, r0, #2113536	; 0x204000
    c588:	e2800004 	add	r0, r0, #4
    c58c:	ebffefdf 	bl	8510 <PUT32>
    c590:	e5940000 	ldr	r0, [r4]
    c594:	e2800981 	add	r0, r0, #2113536	; 0x204000
    c598:	ebffefde 	bl	8518 <GET32>
    c59c:	e3100801 	tst	r0, #65536	; 0x10000
    c5a0:	0afffffa 	beq	c590 <spi_data16+0xc0>
    c5a4:	e5940000 	ldr	r0, [r4]
    c5a8:	e3a01000 	mov	r1, #0
    c5ac:	e8bd4070 	pop	{r4, r5, r6, lr}
    c5b0:	e2800981 	add	r0, r0, #2113536	; 0x204000
    c5b4:	eaffefd5 	b	8510 <PUT32>
    c5b8:	0001b88c 	.word	0x0001b88c

0000c5bc <glcd_setX>:
    c5bc:	e92d41f0 	push	{r4, r5, r6, r7, r8, lr}
    c5c0:	e59f4220 	ldr	r4, [pc, #544]	; c7e8 <glcd_setX+0x22c>
    c5c4:	e1a06000 	mov	r6, r0
    c5c8:	e1a05001 	mov	r5, r1
    c5cc:	e3a00019 	mov	r0, #25
    c5d0:	e3a01000 	mov	r1, #0
    c5d4:	ebfff116 	bl	8a34 <gpio_output>
    c5d8:	e5940000 	ldr	r0, [r4]
    c5dc:	e3a010b0 	mov	r1, #176	; 0xb0
    c5e0:	e2800981 	add	r0, r0, #2113536	; 0x204000
    c5e4:	ebffefc9 	bl	8510 <PUT32>
    c5e8:	e5940000 	ldr	r0, [r4]
    c5ec:	e2800981 	add	r0, r0, #2113536	; 0x204000
    c5f0:	ebffefc8 	bl	8518 <GET32>
    c5f4:	e3100701 	tst	r0, #262144	; 0x40000
    c5f8:	0afffffa 	beq	c5e8 <glcd_setX+0x2c>
    c5fc:	e5940000 	ldr	r0, [r4]
    c600:	e3a0102a 	mov	r1, #42	; 0x2a
    c604:	e2800981 	add	r0, r0, #2113536	; 0x204000
    c608:	e2800004 	add	r0, r0, #4
    c60c:	ebffefbf 	bl	8510 <PUT32>
    c610:	e5940000 	ldr	r0, [r4]
    c614:	e2800981 	add	r0, r0, #2113536	; 0x204000
    c618:	ebffefbe 	bl	8518 <GET32>
    c61c:	e3100801 	tst	r0, #65536	; 0x10000
    c620:	0afffffa 	beq	c610 <glcd_setX+0x54>
    c624:	e5940000 	ldr	r0, [r4]
    c628:	e3a01000 	mov	r1, #0
    c62c:	e2800981 	add	r0, r0, #2113536	; 0x204000
    c630:	ebffefb6 	bl	8510 <PUT32>
    c634:	e3a01001 	mov	r1, #1
    c638:	e3a00019 	mov	r0, #25
    c63c:	ebfff0fc 	bl	8a34 <gpio_output>
    c640:	e5940000 	ldr	r0, [r4]
    c644:	e3a010b0 	mov	r1, #176	; 0xb0
    c648:	e2800981 	add	r0, r0, #2113536	; 0x204000
    c64c:	e1a07426 	lsr	r7, r6, #8
    c650:	e6ef6076 	uxtb	r6, r6
    c654:	ebffefad 	bl	8510 <PUT32>
    c658:	e5940000 	ldr	r0, [r4]
    c65c:	e2800981 	add	r0, r0, #2113536	; 0x204000
    c660:	ebffefac 	bl	8518 <GET32>
    c664:	e3100701 	tst	r0, #262144	; 0x40000
    c668:	0afffffa 	beq	c658 <glcd_setX+0x9c>
    c66c:	e5940000 	ldr	r0, [r4]
    c670:	e1a01007 	mov	r1, r7
    c674:	e2800981 	add	r0, r0, #2113536	; 0x204000
    c678:	e2800004 	add	r0, r0, #4
    c67c:	ebffefa3 	bl	8510 <PUT32>
    c680:	e5940000 	ldr	r0, [r4]
    c684:	e2800981 	add	r0, r0, #2113536	; 0x204000
    c688:	ebffefa2 	bl	8518 <GET32>
    c68c:	e3100801 	tst	r0, #65536	; 0x10000
    c690:	0afffffa 	beq	c680 <glcd_setX+0xc4>
    c694:	e5940000 	ldr	r0, [r4]
    c698:	e3a01000 	mov	r1, #0
    c69c:	e2800981 	add	r0, r0, #2113536	; 0x204000
    c6a0:	ebffef9a 	bl	8510 <PUT32>
    c6a4:	e3a01001 	mov	r1, #1
    c6a8:	e3a00019 	mov	r0, #25
    c6ac:	ebfff0e0 	bl	8a34 <gpio_output>
    c6b0:	e5940000 	ldr	r0, [r4]
    c6b4:	e3a010b0 	mov	r1, #176	; 0xb0
    c6b8:	e2800981 	add	r0, r0, #2113536	; 0x204000
    c6bc:	ebffef93 	bl	8510 <PUT32>
    c6c0:	e5940000 	ldr	r0, [r4]
    c6c4:	e2800981 	add	r0, r0, #2113536	; 0x204000
    c6c8:	ebffef92 	bl	8518 <GET32>
    c6cc:	e3100701 	tst	r0, #262144	; 0x40000
    c6d0:	0afffffa 	beq	c6c0 <glcd_setX+0x104>
    c6d4:	e5940000 	ldr	r0, [r4]
    c6d8:	e1a01006 	mov	r1, r6
    c6dc:	e2800981 	add	r0, r0, #2113536	; 0x204000
    c6e0:	e2800004 	add	r0, r0, #4
    c6e4:	ebffef89 	bl	8510 <PUT32>
    c6e8:	e5940000 	ldr	r0, [r4]
    c6ec:	e2800981 	add	r0, r0, #2113536	; 0x204000
    c6f0:	ebffef88 	bl	8518 <GET32>
    c6f4:	e3100801 	tst	r0, #65536	; 0x10000
    c6f8:	0afffffa 	beq	c6e8 <glcd_setX+0x12c>
    c6fc:	e5940000 	ldr	r0, [r4]
    c700:	e3a01000 	mov	r1, #0
    c704:	e2800981 	add	r0, r0, #2113536	; 0x204000
    c708:	ebffef80 	bl	8510 <PUT32>
    c70c:	e3a01001 	mov	r1, #1
    c710:	e3a00019 	mov	r0, #25
    c714:	ebfff0c6 	bl	8a34 <gpio_output>
    c718:	e5940000 	ldr	r0, [r4]
    c71c:	e3a010b0 	mov	r1, #176	; 0xb0
    c720:	e2800981 	add	r0, r0, #2113536	; 0x204000
    c724:	e1a06425 	lsr	r6, r5, #8
    c728:	e6ef5075 	uxtb	r5, r5
    c72c:	ebffef77 	bl	8510 <PUT32>
    c730:	e5940000 	ldr	r0, [r4]
    c734:	e2800981 	add	r0, r0, #2113536	; 0x204000
    c738:	ebffef76 	bl	8518 <GET32>
    c73c:	e3100701 	tst	r0, #262144	; 0x40000
    c740:	0afffffa 	beq	c730 <glcd_setX+0x174>
    c744:	e5940000 	ldr	r0, [r4]
    c748:	e1a01006 	mov	r1, r6
    c74c:	e2800981 	add	r0, r0, #2113536	; 0x204000
    c750:	e2800004 	add	r0, r0, #4
    c754:	ebffef6d 	bl	8510 <PUT32>
    c758:	e5940000 	ldr	r0, [r4]
    c75c:	e2800981 	add	r0, r0, #2113536	; 0x204000
    c760:	ebffef6c 	bl	8518 <GET32>
    c764:	e3100801 	tst	r0, #65536	; 0x10000
    c768:	0afffffa 	beq	c758 <glcd_setX+0x19c>
    c76c:	e5940000 	ldr	r0, [r4]
    c770:	e3a01000 	mov	r1, #0
    c774:	e2800981 	add	r0, r0, #2113536	; 0x204000
    c778:	ebffef64 	bl	8510 <PUT32>
    c77c:	e3a01001 	mov	r1, #1
    c780:	e3a00019 	mov	r0, #25
    c784:	ebfff0aa 	bl	8a34 <gpio_output>
    c788:	e5940000 	ldr	r0, [r4]
    c78c:	e3a010b0 	mov	r1, #176	; 0xb0
    c790:	e2800981 	add	r0, r0, #2113536	; 0x204000
    c794:	ebffef5d 	bl	8510 <PUT32>
    c798:	e5940000 	ldr	r0, [r4]
    c79c:	e2800981 	add	r0, r0, #2113536	; 0x204000
    c7a0:	ebffef5c 	bl	8518 <GET32>
    c7a4:	e3100701 	tst	r0, #262144	; 0x40000
    c7a8:	0afffffa 	beq	c798 <glcd_setX+0x1dc>
    c7ac:	e5940000 	ldr	r0, [r4]
    c7b0:	e1a01005 	mov	r1, r5
    c7b4:	e2800981 	add	r0, r0, #2113536	; 0x204000
    c7b8:	e2800004 	add	r0, r0, #4
    c7bc:	ebffef53 	bl	8510 <PUT32>
    c7c0:	e5940000 	ldr	r0, [r4]
    c7c4:	e2800981 	add	r0, r0, #2113536	; 0x204000
    c7c8:	ebffef52 	bl	8518 <GET32>
    c7cc:	e3100801 	tst	r0, #65536	; 0x10000
    c7d0:	0afffffa 	beq	c7c0 <glcd_setX+0x204>
    c7d4:	e5940000 	ldr	r0, [r4]
    c7d8:	e3a01000 	mov	r1, #0
    c7dc:	e8bd41f0 	pop	{r4, r5, r6, r7, r8, lr}
    c7e0:	e2800981 	add	r0, r0, #2113536	; 0x204000
    c7e4:	eaffef49 	b	8510 <PUT32>
    c7e8:	0001b88c 	.word	0x0001b88c

0000c7ec <glcd_setY>:
    c7ec:	e92d41f0 	push	{r4, r5, r6, r7, r8, lr}
    c7f0:	e59f4220 	ldr	r4, [pc, #544]	; ca18 <glcd_setY+0x22c>
    c7f4:	e1a06000 	mov	r6, r0
    c7f8:	e1a05001 	mov	r5, r1
    c7fc:	e3a00019 	mov	r0, #25
    c800:	e3a01000 	mov	r1, #0
    c804:	ebfff08a 	bl	8a34 <gpio_output>
    c808:	e5940000 	ldr	r0, [r4]
    c80c:	e3a010b0 	mov	r1, #176	; 0xb0
    c810:	e2800981 	add	r0, r0, #2113536	; 0x204000
    c814:	ebffef3d 	bl	8510 <PUT32>
    c818:	e5940000 	ldr	r0, [r4]
    c81c:	e2800981 	add	r0, r0, #2113536	; 0x204000
    c820:	ebffef3c 	bl	8518 <GET32>
    c824:	e3100701 	tst	r0, #262144	; 0x40000
    c828:	0afffffa 	beq	c818 <glcd_setY+0x2c>
    c82c:	e5940000 	ldr	r0, [r4]
    c830:	e3a0102b 	mov	r1, #43	; 0x2b
    c834:	e2800981 	add	r0, r0, #2113536	; 0x204000
    c838:	e2800004 	add	r0, r0, #4
    c83c:	ebffef33 	bl	8510 <PUT32>
    c840:	e5940000 	ldr	r0, [r4]
    c844:	e2800981 	add	r0, r0, #2113536	; 0x204000
    c848:	ebffef32 	bl	8518 <GET32>
    c84c:	e3100801 	tst	r0, #65536	; 0x10000
    c850:	0afffffa 	beq	c840 <glcd_setY+0x54>
    c854:	e5940000 	ldr	r0, [r4]
    c858:	e3a01000 	mov	r1, #0
    c85c:	e2800981 	add	r0, r0, #2113536	; 0x204000
    c860:	ebffef2a 	bl	8510 <PUT32>
    c864:	e3a01001 	mov	r1, #1
    c868:	e3a00019 	mov	r0, #25
    c86c:	ebfff070 	bl	8a34 <gpio_output>
    c870:	e5940000 	ldr	r0, [r4]
    c874:	e3a010b0 	mov	r1, #176	; 0xb0
    c878:	e2800981 	add	r0, r0, #2113536	; 0x204000
    c87c:	e1a07426 	lsr	r7, r6, #8
    c880:	e6ef6076 	uxtb	r6, r6
    c884:	ebffef21 	bl	8510 <PUT32>
    c888:	e5940000 	ldr	r0, [r4]
    c88c:	e2800981 	add	r0, r0, #2113536	; 0x204000
    c890:	ebffef20 	bl	8518 <GET32>
    c894:	e3100701 	tst	r0, #262144	; 0x40000
    c898:	0afffffa 	beq	c888 <glcd_setY+0x9c>
    c89c:	e5940000 	ldr	r0, [r4]
    c8a0:	e1a01007 	mov	r1, r7
    c8a4:	e2800981 	add	r0, r0, #2113536	; 0x204000
    c8a8:	e2800004 	add	r0, r0, #4
    c8ac:	ebffef17 	bl	8510 <PUT32>
    c8b0:	e5940000 	ldr	r0, [r4]
    c8b4:	e2800981 	add	r0, r0, #2113536	; 0x204000
    c8b8:	ebffef16 	bl	8518 <GET32>
    c8bc:	e3100801 	tst	r0, #65536	; 0x10000
    c8c0:	0afffffa 	beq	c8b0 <glcd_setY+0xc4>
    c8c4:	e5940000 	ldr	r0, [r4]
    c8c8:	e3a01000 	mov	r1, #0
    c8cc:	e2800981 	add	r0, r0, #2113536	; 0x204000
    c8d0:	ebffef0e 	bl	8510 <PUT32>
    c8d4:	e3a01001 	mov	r1, #1
    c8d8:	e3a00019 	mov	r0, #25
    c8dc:	ebfff054 	bl	8a34 <gpio_output>
    c8e0:	e5940000 	ldr	r0, [r4]
    c8e4:	e3a010b0 	mov	r1, #176	; 0xb0
    c8e8:	e2800981 	add	r0, r0, #2113536	; 0x204000
    c8ec:	ebffef07 	bl	8510 <PUT32>
    c8f0:	e5940000 	ldr	r0, [r4]
    c8f4:	e2800981 	add	r0, r0, #2113536	; 0x204000
    c8f8:	ebffef06 	bl	8518 <GET32>
    c8fc:	e3100701 	tst	r0, #262144	; 0x40000
    c900:	0afffffa 	beq	c8f0 <glcd_setY+0x104>
    c904:	e5940000 	ldr	r0, [r4]
    c908:	e1a01006 	mov	r1, r6
    c90c:	e2800981 	add	r0, r0, #2113536	; 0x204000
    c910:	e2800004 	add	r0, r0, #4
    c914:	ebffeefd 	bl	8510 <PUT32>
    c918:	e5940000 	ldr	r0, [r4]
    c91c:	e2800981 	add	r0, r0, #2113536	; 0x204000
    c920:	ebffeefc 	bl	8518 <GET32>
    c924:	e3100801 	tst	r0, #65536	; 0x10000
    c928:	0afffffa 	beq	c918 <glcd_setY+0x12c>
    c92c:	e5940000 	ldr	r0, [r4]
    c930:	e3a01000 	mov	r1, #0
    c934:	e2800981 	add	r0, r0, #2113536	; 0x204000
    c938:	ebffeef4 	bl	8510 <PUT32>
    c93c:	e3a01001 	mov	r1, #1
    c940:	e3a00019 	mov	r0, #25
    c944:	ebfff03a 	bl	8a34 <gpio_output>
    c948:	e5940000 	ldr	r0, [r4]
    c94c:	e3a010b0 	mov	r1, #176	; 0xb0
    c950:	e2800981 	add	r0, r0, #2113536	; 0x204000
    c954:	e1a06425 	lsr	r6, r5, #8
    c958:	e6ef5075 	uxtb	r5, r5
    c95c:	ebffeeeb 	bl	8510 <PUT32>
    c960:	e5940000 	ldr	r0, [r4]
    c964:	e2800981 	add	r0, r0, #2113536	; 0x204000
    c968:	ebffeeea 	bl	8518 <GET32>
    c96c:	e3100701 	tst	r0, #262144	; 0x40000
    c970:	0afffffa 	beq	c960 <glcd_setY+0x174>
    c974:	e5940000 	ldr	r0, [r4]
    c978:	e1a01006 	mov	r1, r6
    c97c:	e2800981 	add	r0, r0, #2113536	; 0x204000
    c980:	e2800004 	add	r0, r0, #4
    c984:	ebffeee1 	bl	8510 <PUT32>
    c988:	e5940000 	ldr	r0, [r4]
    c98c:	e2800981 	add	r0, r0, #2113536	; 0x204000
    c990:	ebffeee0 	bl	8518 <GET32>
    c994:	e3100801 	tst	r0, #65536	; 0x10000
    c998:	0afffffa 	beq	c988 <glcd_setY+0x19c>
    c99c:	e5940000 	ldr	r0, [r4]
    c9a0:	e3a01000 	mov	r1, #0
    c9a4:	e2800981 	add	r0, r0, #2113536	; 0x204000
    c9a8:	ebffeed8 	bl	8510 <PUT32>
    c9ac:	e3a01001 	mov	r1, #1
    c9b0:	e3a00019 	mov	r0, #25
    c9b4:	ebfff01e 	bl	8a34 <gpio_output>
    c9b8:	e5940000 	ldr	r0, [r4]
    c9bc:	e3a010b0 	mov	r1, #176	; 0xb0
    c9c0:	e2800981 	add	r0, r0, #2113536	; 0x204000
    c9c4:	ebffeed1 	bl	8510 <PUT32>
    c9c8:	e5940000 	ldr	r0, [r4]
    c9cc:	e2800981 	add	r0, r0, #2113536	; 0x204000
    c9d0:	ebffeed0 	bl	8518 <GET32>
    c9d4:	e3100701 	tst	r0, #262144	; 0x40000
    c9d8:	0afffffa 	beq	c9c8 <glcd_setY+0x1dc>
    c9dc:	e5940000 	ldr	r0, [r4]
    c9e0:	e1a01005 	mov	r1, r5
    c9e4:	e2800981 	add	r0, r0, #2113536	; 0x204000
    c9e8:	e2800004 	add	r0, r0, #4
    c9ec:	ebffeec7 	bl	8510 <PUT32>
    c9f0:	e5940000 	ldr	r0, [r4]
    c9f4:	e2800981 	add	r0, r0, #2113536	; 0x204000
    c9f8:	ebffeec6 	bl	8518 <GET32>
    c9fc:	e3100801 	tst	r0, #65536	; 0x10000
    ca00:	0afffffa 	beq	c9f0 <glcd_setY+0x204>
    ca04:	e5940000 	ldr	r0, [r4]
    ca08:	e3a01000 	mov	r1, #0
    ca0c:	e8bd41f0 	pop	{r4, r5, r6, r7, r8, lr}
    ca10:	e2800981 	add	r0, r0, #2113536	; 0x204000
    ca14:	eaffeebd 	b	8510 <PUT32>
    ca18:	0001b88c 	.word	0x0001b88c

0000ca1c <glcd_hline>:
    ca1c:	e92d47f0 	push	{r4, r5, r6, r7, r8, r9, sl, lr}
    ca20:	e59f8b4c 	ldr	r8, [pc, #2892]	; d574 <glcd_hline+0xb58>
    ca24:	e1a09000 	mov	r9, r0
    ca28:	e5980004 	ldr	r0, [r8, #4]
    ca2c:	e1a05001 	mov	r5, r1
    ca30:	e3500000 	cmp	r0, #0
    ca34:	e1a07002 	mov	r7, r2
    ca38:	e1a06003 	mov	r6, r3
    ca3c:	0a000168 	beq	cfe4 <glcd_hline+0x5c8>
    ca40:	e3500001 	cmp	r0, #1
    ca44:	18bd87f0 	popne	{r4, r5, r6, r7, r8, r9, sl, pc}
    ca48:	e59f4b28 	ldr	r4, [pc, #2856]	; d578 <glcd_hline+0xb5c>
    ca4c:	e3a01000 	mov	r1, #0
    ca50:	e3a00019 	mov	r0, #25
    ca54:	ebffeff6 	bl	8a34 <gpio_output>
    ca58:	e5940000 	ldr	r0, [r4]
    ca5c:	e3a010b0 	mov	r1, #176	; 0xb0
    ca60:	e2800981 	add	r0, r0, #2113536	; 0x204000
    ca64:	ebffeea9 	bl	8510 <PUT32>
    ca68:	e5940000 	ldr	r0, [r4]
    ca6c:	e2800981 	add	r0, r0, #2113536	; 0x204000
    ca70:	ebffeea8 	bl	8518 <GET32>
    ca74:	e3100701 	tst	r0, #262144	; 0x40000
    ca78:	0afffffa 	beq	ca68 <glcd_hline+0x4c>
    ca7c:	e5940000 	ldr	r0, [r4]
    ca80:	e3a0102a 	mov	r1, #42	; 0x2a
    ca84:	e2800981 	add	r0, r0, #2113536	; 0x204000
    ca88:	e2800004 	add	r0, r0, #4
    ca8c:	ebffee9f 	bl	8510 <PUT32>
    ca90:	e5940000 	ldr	r0, [r4]
    ca94:	e2800981 	add	r0, r0, #2113536	; 0x204000
    ca98:	ebffee9e 	bl	8518 <GET32>
    ca9c:	e3100801 	tst	r0, #65536	; 0x10000
    caa0:	0afffffa 	beq	ca90 <glcd_hline+0x74>
    caa4:	e5940000 	ldr	r0, [r4]
    caa8:	e3a01000 	mov	r1, #0
    caac:	e2800981 	add	r0, r0, #2113536	; 0x204000
    cab0:	ebffee96 	bl	8510 <PUT32>
    cab4:	e3a01001 	mov	r1, #1
    cab8:	e3a00019 	mov	r0, #25
    cabc:	ebffefdc 	bl	8a34 <gpio_output>
    cac0:	e5940000 	ldr	r0, [r4]
    cac4:	e3a010b0 	mov	r1, #176	; 0xb0
    cac8:	e2800981 	add	r0, r0, #2113536	; 0x204000
    cacc:	e1a0a425 	lsr	sl, r5, #8
    cad0:	e6ef5075 	uxtb	r5, r5
    cad4:	ebffee8d 	bl	8510 <PUT32>
    cad8:	e5940000 	ldr	r0, [r4]
    cadc:	e2800981 	add	r0, r0, #2113536	; 0x204000
    cae0:	ebffee8c 	bl	8518 <GET32>
    cae4:	e3100701 	tst	r0, #262144	; 0x40000
    cae8:	0afffffa 	beq	cad8 <glcd_hline+0xbc>
    caec:	e5940000 	ldr	r0, [r4]
    caf0:	e1a0100a 	mov	r1, sl
    caf4:	e2800981 	add	r0, r0, #2113536	; 0x204000
    caf8:	e2800004 	add	r0, r0, #4
    cafc:	ebffee83 	bl	8510 <PUT32>
    cb00:	e5940000 	ldr	r0, [r4]
    cb04:	e2800981 	add	r0, r0, #2113536	; 0x204000
    cb08:	ebffee82 	bl	8518 <GET32>
    cb0c:	e3100801 	tst	r0, #65536	; 0x10000
    cb10:	0afffffa 	beq	cb00 <glcd_hline+0xe4>
    cb14:	e5940000 	ldr	r0, [r4]
    cb18:	e3a01000 	mov	r1, #0
    cb1c:	e2800981 	add	r0, r0, #2113536	; 0x204000
    cb20:	ebffee7a 	bl	8510 <PUT32>
    cb24:	e3a01001 	mov	r1, #1
    cb28:	e3a00019 	mov	r0, #25
    cb2c:	ebffefc0 	bl	8a34 <gpio_output>
    cb30:	e5940000 	ldr	r0, [r4]
    cb34:	e3a010b0 	mov	r1, #176	; 0xb0
    cb38:	e2800981 	add	r0, r0, #2113536	; 0x204000
    cb3c:	ebffee73 	bl	8510 <PUT32>
    cb40:	e5940000 	ldr	r0, [r4]
    cb44:	e2800981 	add	r0, r0, #2113536	; 0x204000
    cb48:	ebffee72 	bl	8518 <GET32>
    cb4c:	e3100701 	tst	r0, #262144	; 0x40000
    cb50:	0afffffa 	beq	cb40 <glcd_hline+0x124>
    cb54:	e5940000 	ldr	r0, [r4]
    cb58:	e1a01005 	mov	r1, r5
    cb5c:	e2800981 	add	r0, r0, #2113536	; 0x204000
    cb60:	e2800004 	add	r0, r0, #4
    cb64:	ebffee69 	bl	8510 <PUT32>
    cb68:	e5940000 	ldr	r0, [r4]
    cb6c:	e2800981 	add	r0, r0, #2113536	; 0x204000
    cb70:	ebffee68 	bl	8518 <GET32>
    cb74:	e3100801 	tst	r0, #65536	; 0x10000
    cb78:	0afffffa 	beq	cb68 <glcd_hline+0x14c>
    cb7c:	e5940000 	ldr	r0, [r4]
    cb80:	e3a01000 	mov	r1, #0
    cb84:	e2800981 	add	r0, r0, #2113536	; 0x204000
    cb88:	ebffee60 	bl	8510 <PUT32>
    cb8c:	e3a01001 	mov	r1, #1
    cb90:	e3a00019 	mov	r0, #25
    cb94:	ebffefa6 	bl	8a34 <gpio_output>
    cb98:	e5940000 	ldr	r0, [r4]
    cb9c:	e3a010b0 	mov	r1, #176	; 0xb0
    cba0:	e2800981 	add	r0, r0, #2113536	; 0x204000
    cba4:	ebffee59 	bl	8510 <PUT32>
    cba8:	e5940000 	ldr	r0, [r4]
    cbac:	e2800981 	add	r0, r0, #2113536	; 0x204000
    cbb0:	ebffee58 	bl	8518 <GET32>
    cbb4:	e3100701 	tst	r0, #262144	; 0x40000
    cbb8:	0afffffa 	beq	cba8 <glcd_hline+0x18c>
    cbbc:	e5940000 	ldr	r0, [r4]
    cbc0:	e1a0100a 	mov	r1, sl
    cbc4:	e2800981 	add	r0, r0, #2113536	; 0x204000
    cbc8:	e2800004 	add	r0, r0, #4
    cbcc:	ebffee4f 	bl	8510 <PUT32>
    cbd0:	e5940000 	ldr	r0, [r4]
    cbd4:	e2800981 	add	r0, r0, #2113536	; 0x204000
    cbd8:	ebffee4e 	bl	8518 <GET32>
    cbdc:	e3100801 	tst	r0, #65536	; 0x10000
    cbe0:	0afffffa 	beq	cbd0 <glcd_hline+0x1b4>
    cbe4:	e5940000 	ldr	r0, [r4]
    cbe8:	e3a01000 	mov	r1, #0
    cbec:	e2800981 	add	r0, r0, #2113536	; 0x204000
    cbf0:	ebffee46 	bl	8510 <PUT32>
    cbf4:	e3a01001 	mov	r1, #1
    cbf8:	e3a00019 	mov	r0, #25
    cbfc:	ebffef8c 	bl	8a34 <gpio_output>
    cc00:	e5940000 	ldr	r0, [r4]
    cc04:	e3a010b0 	mov	r1, #176	; 0xb0
    cc08:	e2800981 	add	r0, r0, #2113536	; 0x204000
    cc0c:	ebffee3f 	bl	8510 <PUT32>
    cc10:	e5940000 	ldr	r0, [r4]
    cc14:	e2800981 	add	r0, r0, #2113536	; 0x204000
    cc18:	ebffee3e 	bl	8518 <GET32>
    cc1c:	e3100701 	tst	r0, #262144	; 0x40000
    cc20:	0afffffa 	beq	cc10 <glcd_hline+0x1f4>
    cc24:	e5940000 	ldr	r0, [r4]
    cc28:	e1a01005 	mov	r1, r5
    cc2c:	e2800981 	add	r0, r0, #2113536	; 0x204000
    cc30:	e2800004 	add	r0, r0, #4
    cc34:	ebffee35 	bl	8510 <PUT32>
    cc38:	e5940000 	ldr	r0, [r4]
    cc3c:	e2800981 	add	r0, r0, #2113536	; 0x204000
    cc40:	ebffee34 	bl	8518 <GET32>
    cc44:	e3100801 	tst	r0, #65536	; 0x10000
    cc48:	0afffffa 	beq	cc38 <glcd_hline+0x21c>
    cc4c:	e5940000 	ldr	r0, [r4]
    cc50:	e3a01000 	mov	r1, #0
    cc54:	e2800981 	add	r0, r0, #2113536	; 0x204000
    cc58:	ebffee2c 	bl	8510 <PUT32>
    cc5c:	e1d850b8 	ldrh	r5, [r8, #8]
    cc60:	e3a01000 	mov	r1, #0
    cc64:	e3a00019 	mov	r0, #25
    cc68:	ebffef71 	bl	8a34 <gpio_output>
    cc6c:	e0459009 	sub	r9, r5, r9
    cc70:	e5940000 	ldr	r0, [r4]
    cc74:	e6ff5079 	uxth	r5, r9
    cc78:	e0458007 	sub	r8, r5, r7
    cc7c:	e3a010b0 	mov	r1, #176	; 0xb0
    cc80:	e2800981 	add	r0, r0, #2113536	; 0x204000
    cc84:	e6ff8078 	uxth	r8, r8
    cc88:	ebffee20 	bl	8510 <PUT32>
    cc8c:	e5940000 	ldr	r0, [r4]
    cc90:	e2800981 	add	r0, r0, #2113536	; 0x204000
    cc94:	ebffee1f 	bl	8518 <GET32>
    cc98:	e3100701 	tst	r0, #262144	; 0x40000
    cc9c:	0afffffa 	beq	cc8c <glcd_hline+0x270>
    cca0:	e5940000 	ldr	r0, [r4]
    cca4:	e3a0102b 	mov	r1, #43	; 0x2b
    cca8:	e2800981 	add	r0, r0, #2113536	; 0x204000
    ccac:	e2800004 	add	r0, r0, #4
    ccb0:	ebffee16 	bl	8510 <PUT32>
    ccb4:	e5940000 	ldr	r0, [r4]
    ccb8:	e2800981 	add	r0, r0, #2113536	; 0x204000
    ccbc:	ebffee15 	bl	8518 <GET32>
    ccc0:	e3100801 	tst	r0, #65536	; 0x10000
    ccc4:	0afffffa 	beq	ccb4 <glcd_hline+0x298>
    ccc8:	e5940000 	ldr	r0, [r4]
    cccc:	e3a01000 	mov	r1, #0
    ccd0:	e2800981 	add	r0, r0, #2113536	; 0x204000
    ccd4:	ebffee0d 	bl	8510 <PUT32>
    ccd8:	e3a01001 	mov	r1, #1
    ccdc:	e3a00019 	mov	r0, #25
    cce0:	ebffef53 	bl	8a34 <gpio_output>
    cce4:	e5940000 	ldr	r0, [r4]
    cce8:	e3a010b0 	mov	r1, #176	; 0xb0
    ccec:	e2800981 	add	r0, r0, #2113536	; 0x204000
    ccf0:	e1a09428 	lsr	r9, r8, #8
    ccf4:	e6ef8078 	uxtb	r8, r8
    ccf8:	ebffee04 	bl	8510 <PUT32>
    ccfc:	e5940000 	ldr	r0, [r4]
    cd00:	e2800981 	add	r0, r0, #2113536	; 0x204000
    cd04:	ebffee03 	bl	8518 <GET32>
    cd08:	e3100701 	tst	r0, #262144	; 0x40000
    cd0c:	0afffffa 	beq	ccfc <glcd_hline+0x2e0>
    cd10:	e5940000 	ldr	r0, [r4]
    cd14:	e1a01009 	mov	r1, r9
    cd18:	e2800981 	add	r0, r0, #2113536	; 0x204000
    cd1c:	e2800004 	add	r0, r0, #4
    cd20:	ebffedfa 	bl	8510 <PUT32>
    cd24:	e5940000 	ldr	r0, [r4]
    cd28:	e2800981 	add	r0, r0, #2113536	; 0x204000
    cd2c:	ebffedf9 	bl	8518 <GET32>
    cd30:	e3100801 	tst	r0, #65536	; 0x10000
    cd34:	0afffffa 	beq	cd24 <glcd_hline+0x308>
    cd38:	e5940000 	ldr	r0, [r4]
    cd3c:	e3a01000 	mov	r1, #0
    cd40:	e2800981 	add	r0, r0, #2113536	; 0x204000
    cd44:	ebffedf1 	bl	8510 <PUT32>
    cd48:	e3a01001 	mov	r1, #1
    cd4c:	e3a00019 	mov	r0, #25
    cd50:	ebffef37 	bl	8a34 <gpio_output>
    cd54:	e5940000 	ldr	r0, [r4]
    cd58:	e3a010b0 	mov	r1, #176	; 0xb0
    cd5c:	e2800981 	add	r0, r0, #2113536	; 0x204000
    cd60:	ebffedea 	bl	8510 <PUT32>
    cd64:	e5940000 	ldr	r0, [r4]
    cd68:	e2800981 	add	r0, r0, #2113536	; 0x204000
    cd6c:	ebffede9 	bl	8518 <GET32>
    cd70:	e3100701 	tst	r0, #262144	; 0x40000
    cd74:	0afffffa 	beq	cd64 <glcd_hline+0x348>
    cd78:	e5940000 	ldr	r0, [r4]
    cd7c:	e1a01008 	mov	r1, r8
    cd80:	e2800981 	add	r0, r0, #2113536	; 0x204000
    cd84:	e2800004 	add	r0, r0, #4
    cd88:	ebffede0 	bl	8510 <PUT32>
    cd8c:	e5940000 	ldr	r0, [r4]
    cd90:	e2800981 	add	r0, r0, #2113536	; 0x204000
    cd94:	ebffeddf 	bl	8518 <GET32>
    cd98:	e3100801 	tst	r0, #65536	; 0x10000
    cd9c:	0afffffa 	beq	cd8c <glcd_hline+0x370>
    cda0:	e5940000 	ldr	r0, [r4]
    cda4:	e3a01000 	mov	r1, #0
    cda8:	e2800981 	add	r0, r0, #2113536	; 0x204000
    cdac:	ebffedd7 	bl	8510 <PUT32>
    cdb0:	e3a01001 	mov	r1, #1
    cdb4:	e3a00019 	mov	r0, #25
    cdb8:	ebffef1d 	bl	8a34 <gpio_output>
    cdbc:	e5940000 	ldr	r0, [r4]
    cdc0:	e3a010b0 	mov	r1, #176	; 0xb0
    cdc4:	e2800981 	add	r0, r0, #2113536	; 0x204000
    cdc8:	e1a08425 	lsr	r8, r5, #8
    cdcc:	e6ef5075 	uxtb	r5, r5
    cdd0:	ebffedce 	bl	8510 <PUT32>
    cdd4:	e5940000 	ldr	r0, [r4]
    cdd8:	e2800981 	add	r0, r0, #2113536	; 0x204000
    cddc:	ebffedcd 	bl	8518 <GET32>
    cde0:	e3100701 	tst	r0, #262144	; 0x40000
    cde4:	0afffffa 	beq	cdd4 <glcd_hline+0x3b8>
    cde8:	e5940000 	ldr	r0, [r4]
    cdec:	e1a01008 	mov	r1, r8
    cdf0:	e2800981 	add	r0, r0, #2113536	; 0x204000
    cdf4:	e2800004 	add	r0, r0, #4
    cdf8:	ebffedc4 	bl	8510 <PUT32>
    cdfc:	e5940000 	ldr	r0, [r4]
    ce00:	e2800981 	add	r0, r0, #2113536	; 0x204000
    ce04:	ebffedc3 	bl	8518 <GET32>
    ce08:	e3100801 	tst	r0, #65536	; 0x10000
    ce0c:	0afffffa 	beq	cdfc <glcd_hline+0x3e0>
    ce10:	e5940000 	ldr	r0, [r4]
    ce14:	e3a01000 	mov	r1, #0
    ce18:	e2800981 	add	r0, r0, #2113536	; 0x204000
    ce1c:	ebffedbb 	bl	8510 <PUT32>
    ce20:	e3a01001 	mov	r1, #1
    ce24:	e3a00019 	mov	r0, #25
    ce28:	ebffef01 	bl	8a34 <gpio_output>
    ce2c:	e5940000 	ldr	r0, [r4]
    ce30:	e3a010b0 	mov	r1, #176	; 0xb0
    ce34:	e2800981 	add	r0, r0, #2113536	; 0x204000
    ce38:	ebffedb4 	bl	8510 <PUT32>
    ce3c:	e5940000 	ldr	r0, [r4]
    ce40:	e2800981 	add	r0, r0, #2113536	; 0x204000
    ce44:	ebffedb3 	bl	8518 <GET32>
    ce48:	e3100701 	tst	r0, #262144	; 0x40000
    ce4c:	0afffffa 	beq	ce3c <glcd_hline+0x420>
    ce50:	e5940000 	ldr	r0, [r4]
    ce54:	e1a01005 	mov	r1, r5
    ce58:	e2800981 	add	r0, r0, #2113536	; 0x204000
    ce5c:	e2800004 	add	r0, r0, #4
    ce60:	ebffedaa 	bl	8510 <PUT32>
    ce64:	e5940000 	ldr	r0, [r4]
    ce68:	e2800981 	add	r0, r0, #2113536	; 0x204000
    ce6c:	ebffeda9 	bl	8518 <GET32>
    ce70:	e3100801 	tst	r0, #65536	; 0x10000
    ce74:	0afffffa 	beq	ce64 <glcd_hline+0x448>
    ce78:	e5940000 	ldr	r0, [r4]
    ce7c:	e3a01000 	mov	r1, #0
    ce80:	e2800981 	add	r0, r0, #2113536	; 0x204000
    ce84:	ebffeda1 	bl	8510 <PUT32>
    ce88:	e3a01000 	mov	r1, #0
    ce8c:	e3a00019 	mov	r0, #25
    ce90:	ebffeee7 	bl	8a34 <gpio_output>
    ce94:	e5940000 	ldr	r0, [r4]
    ce98:	e3a010b0 	mov	r1, #176	; 0xb0
    ce9c:	e2800981 	add	r0, r0, #2113536	; 0x204000
    cea0:	ebffed9a 	bl	8510 <PUT32>
    cea4:	e5940000 	ldr	r0, [r4]
    cea8:	e2800981 	add	r0, r0, #2113536	; 0x204000
    ceac:	ebffed99 	bl	8518 <GET32>
    ceb0:	e3100701 	tst	r0, #262144	; 0x40000
    ceb4:	0afffffa 	beq	cea4 <glcd_hline+0x488>
    ceb8:	e5940000 	ldr	r0, [r4]
    cebc:	e3a0102c 	mov	r1, #44	; 0x2c
    cec0:	e2800981 	add	r0, r0, #2113536	; 0x204000
    cec4:	e2800004 	add	r0, r0, #4
    cec8:	ebffed90 	bl	8510 <PUT32>
    cecc:	e5940000 	ldr	r0, [r4]
    ced0:	e2800981 	add	r0, r0, #2113536	; 0x204000
    ced4:	ebffed8f 	bl	8518 <GET32>
    ced8:	e3100801 	tst	r0, #65536	; 0x10000
    cedc:	0afffffa 	beq	cecc <glcd_hline+0x4b0>
    cee0:	e5940000 	ldr	r0, [r4]
    cee4:	e3a01000 	mov	r1, #0
    cee8:	e2800981 	add	r0, r0, #2113536	; 0x204000
    ceec:	ebffed87 	bl	8510 <PUT32>
    cef0:	e3570000 	cmp	r7, #0
    cef4:	08bd87f0 	popeq	{r4, r5, r6, r7, r8, r9, sl, pc}
    cef8:	e3a08000 	mov	r8, #0
    cefc:	e1a09426 	lsr	r9, r6, #8
    cf00:	e6ef6076 	uxtb	r6, r6
    cf04:	e3a01001 	mov	r1, #1
    cf08:	e3a00019 	mov	r0, #25
    cf0c:	ebffeec8 	bl	8a34 <gpio_output>
    cf10:	e5940000 	ldr	r0, [r4]
    cf14:	e3a010b0 	mov	r1, #176	; 0xb0
    cf18:	e2800981 	add	r0, r0, #2113536	; 0x204000
    cf1c:	ebffed7b 	bl	8510 <PUT32>
    cf20:	e5940000 	ldr	r0, [r4]
    cf24:	e2800981 	add	r0, r0, #2113536	; 0x204000
    cf28:	ebffed7a 	bl	8518 <GET32>
    cf2c:	e3100701 	tst	r0, #262144	; 0x40000
    cf30:	0afffffa 	beq	cf20 <glcd_hline+0x504>
    cf34:	e5940000 	ldr	r0, [r4]
    cf38:	e1a01009 	mov	r1, r9
    cf3c:	e2800981 	add	r0, r0, #2113536	; 0x204000
    cf40:	e2800004 	add	r0, r0, #4
    cf44:	ebffed71 	bl	8510 <PUT32>
    cf48:	e5940000 	ldr	r0, [r4]
    cf4c:	e2800981 	add	r0, r0, #2113536	; 0x204000
    cf50:	ebffed70 	bl	8518 <GET32>
    cf54:	e3100801 	tst	r0, #65536	; 0x10000
    cf58:	0afffffa 	beq	cf48 <glcd_hline+0x52c>
    cf5c:	e5940000 	ldr	r0, [r4]
    cf60:	e3a01000 	mov	r1, #0
    cf64:	e2800981 	add	r0, r0, #2113536	; 0x204000
    cf68:	ebffed68 	bl	8510 <PUT32>
    cf6c:	e3a01001 	mov	r1, #1
    cf70:	e3a00019 	mov	r0, #25
    cf74:	ebffeeae 	bl	8a34 <gpio_output>
    cf78:	e5940000 	ldr	r0, [r4]
    cf7c:	e3a010b0 	mov	r1, #176	; 0xb0
    cf80:	e2800981 	add	r0, r0, #2113536	; 0x204000
    cf84:	ebffed61 	bl	8510 <PUT32>
    cf88:	e5940000 	ldr	r0, [r4]
    cf8c:	e2800981 	add	r0, r0, #2113536	; 0x204000
    cf90:	ebffed60 	bl	8518 <GET32>
    cf94:	e3100701 	tst	r0, #262144	; 0x40000
    cf98:	0afffffa 	beq	cf88 <glcd_hline+0x56c>
    cf9c:	e5940000 	ldr	r0, [r4]
    cfa0:	e1a01006 	mov	r1, r6
    cfa4:	e2800981 	add	r0, r0, #2113536	; 0x204000
    cfa8:	e2800004 	add	r0, r0, #4
    cfac:	ebffed57 	bl	8510 <PUT32>
    cfb0:	e5940000 	ldr	r0, [r4]
    cfb4:	e2800981 	add	r0, r0, #2113536	; 0x204000
    cfb8:	ebffed56 	bl	8518 <GET32>
    cfbc:	e3100801 	tst	r0, #65536	; 0x10000
    cfc0:	0afffffa 	beq	cfb0 <glcd_hline+0x594>
    cfc4:	e5940000 	ldr	r0, [r4]
    cfc8:	e2888001 	add	r8, r8, #1
    cfcc:	e2800981 	add	r0, r0, #2113536	; 0x204000
    cfd0:	e3a01000 	mov	r1, #0
    cfd4:	ebffed4d 	bl	8510 <PUT32>
    cfd8:	e1580007 	cmp	r8, r7
    cfdc:	1affffc8 	bne	cf04 <glcd_hline+0x4e8>
    cfe0:	e8bd87f0 	pop	{r4, r5, r6, r7, r8, r9, sl, pc}
    cfe4:	e59f458c 	ldr	r4, [pc, #1420]	; d578 <glcd_hline+0xb5c>
    cfe8:	e1a01000 	mov	r1, r0
    cfec:	e3a00019 	mov	r0, #25
    cff0:	e0898002 	add	r8, r9, r2
    cff4:	ebffee8e 	bl	8a34 <gpio_output>
    cff8:	e5940000 	ldr	r0, [r4]
    cffc:	e3a010b0 	mov	r1, #176	; 0xb0
    d000:	e2800981 	add	r0, r0, #2113536	; 0x204000
    d004:	e6ff8078 	uxth	r8, r8
    d008:	ebffed40 	bl	8510 <PUT32>
    d00c:	e5940000 	ldr	r0, [r4]
    d010:	e2800981 	add	r0, r0, #2113536	; 0x204000
    d014:	ebffed3f 	bl	8518 <GET32>
    d018:	e3100701 	tst	r0, #262144	; 0x40000
    d01c:	0afffffa 	beq	d00c <glcd_hline+0x5f0>
    d020:	e5940000 	ldr	r0, [r4]
    d024:	e3a0102a 	mov	r1, #42	; 0x2a
    d028:	e2800981 	add	r0, r0, #2113536	; 0x204000
    d02c:	e2800004 	add	r0, r0, #4
    d030:	ebffed36 	bl	8510 <PUT32>
    d034:	e5940000 	ldr	r0, [r4]
    d038:	e2800981 	add	r0, r0, #2113536	; 0x204000
    d03c:	ebffed35 	bl	8518 <GET32>
    d040:	e3100801 	tst	r0, #65536	; 0x10000
    d044:	0afffffa 	beq	d034 <glcd_hline+0x618>
    d048:	e5940000 	ldr	r0, [r4]
    d04c:	e3a01000 	mov	r1, #0
    d050:	e2800981 	add	r0, r0, #2113536	; 0x204000
    d054:	ebffed2d 	bl	8510 <PUT32>
    d058:	e3a01001 	mov	r1, #1
    d05c:	e3a00019 	mov	r0, #25
    d060:	ebffee73 	bl	8a34 <gpio_output>
    d064:	e5940000 	ldr	r0, [r4]
    d068:	e3a010b0 	mov	r1, #176	; 0xb0
    d06c:	e2800981 	add	r0, r0, #2113536	; 0x204000
    d070:	e1a0a429 	lsr	sl, r9, #8
    d074:	e6ef9079 	uxtb	r9, r9
    d078:	ebffed24 	bl	8510 <PUT32>
    d07c:	e5940000 	ldr	r0, [r4]
    d080:	e2800981 	add	r0, r0, #2113536	; 0x204000
    d084:	ebffed23 	bl	8518 <GET32>
    d088:	e3100701 	tst	r0, #262144	; 0x40000
    d08c:	0afffffa 	beq	d07c <glcd_hline+0x660>
    d090:	e5940000 	ldr	r0, [r4]
    d094:	e1a0100a 	mov	r1, sl
    d098:	e2800981 	add	r0, r0, #2113536	; 0x204000
    d09c:	e2800004 	add	r0, r0, #4
    d0a0:	ebffed1a 	bl	8510 <PUT32>
    d0a4:	e5940000 	ldr	r0, [r4]
    d0a8:	e2800981 	add	r0, r0, #2113536	; 0x204000
    d0ac:	ebffed19 	bl	8518 <GET32>
    d0b0:	e3100801 	tst	r0, #65536	; 0x10000
    d0b4:	0afffffa 	beq	d0a4 <glcd_hline+0x688>
    d0b8:	e5940000 	ldr	r0, [r4]
    d0bc:	e3a01000 	mov	r1, #0
    d0c0:	e2800981 	add	r0, r0, #2113536	; 0x204000
    d0c4:	ebffed11 	bl	8510 <PUT32>
    d0c8:	e3a01001 	mov	r1, #1
    d0cc:	e3a00019 	mov	r0, #25
    d0d0:	ebffee57 	bl	8a34 <gpio_output>
    d0d4:	e5940000 	ldr	r0, [r4]
    d0d8:	e3a010b0 	mov	r1, #176	; 0xb0
    d0dc:	e2800981 	add	r0, r0, #2113536	; 0x204000
    d0e0:	ebffed0a 	bl	8510 <PUT32>
    d0e4:	e5940000 	ldr	r0, [r4]
    d0e8:	e2800981 	add	r0, r0, #2113536	; 0x204000
    d0ec:	ebffed09 	bl	8518 <GET32>
    d0f0:	e3100701 	tst	r0, #262144	; 0x40000
    d0f4:	0afffffa 	beq	d0e4 <glcd_hline+0x6c8>
    d0f8:	e5940000 	ldr	r0, [r4]
    d0fc:	e1a01009 	mov	r1, r9
    d100:	e2800981 	add	r0, r0, #2113536	; 0x204000
    d104:	e2800004 	add	r0, r0, #4
    d108:	ebffed00 	bl	8510 <PUT32>
    d10c:	e5940000 	ldr	r0, [r4]
    d110:	e2800981 	add	r0, r0, #2113536	; 0x204000
    d114:	ebffecff 	bl	8518 <GET32>
    d118:	e3100801 	tst	r0, #65536	; 0x10000
    d11c:	0afffffa 	beq	d10c <glcd_hline+0x6f0>
    d120:	e5940000 	ldr	r0, [r4]
    d124:	e3a01000 	mov	r1, #0
    d128:	e2800981 	add	r0, r0, #2113536	; 0x204000
    d12c:	ebffecf7 	bl	8510 <PUT32>
    d130:	e3a01001 	mov	r1, #1
    d134:	e3a00019 	mov	r0, #25
    d138:	ebffee3d 	bl	8a34 <gpio_output>
    d13c:	e5940000 	ldr	r0, [r4]
    d140:	e3a010b0 	mov	r1, #176	; 0xb0
    d144:	e2800981 	add	r0, r0, #2113536	; 0x204000
    d148:	e1a09428 	lsr	r9, r8, #8
    d14c:	e6ef8078 	uxtb	r8, r8
    d150:	ebffecee 	bl	8510 <PUT32>
    d154:	e5940000 	ldr	r0, [r4]
    d158:	e2800981 	add	r0, r0, #2113536	; 0x204000
    d15c:	ebffeced 	bl	8518 <GET32>
    d160:	e3100701 	tst	r0, #262144	; 0x40000
    d164:	0afffffa 	beq	d154 <glcd_hline+0x738>
    d168:	e5940000 	ldr	r0, [r4]
    d16c:	e1a01009 	mov	r1, r9
    d170:	e2800981 	add	r0, r0, #2113536	; 0x204000
    d174:	e2800004 	add	r0, r0, #4
    d178:	ebffece4 	bl	8510 <PUT32>
    d17c:	e5940000 	ldr	r0, [r4]
    d180:	e2800981 	add	r0, r0, #2113536	; 0x204000
    d184:	ebffece3 	bl	8518 <GET32>
    d188:	e3100801 	tst	r0, #65536	; 0x10000
    d18c:	0afffffa 	beq	d17c <glcd_hline+0x760>
    d190:	e5940000 	ldr	r0, [r4]
    d194:	e3a01000 	mov	r1, #0
    d198:	e2800981 	add	r0, r0, #2113536	; 0x204000
    d19c:	ebffecdb 	bl	8510 <PUT32>
    d1a0:	e3a01001 	mov	r1, #1
    d1a4:	e3a00019 	mov	r0, #25
    d1a8:	ebffee21 	bl	8a34 <gpio_output>
    d1ac:	e5940000 	ldr	r0, [r4]
    d1b0:	e3a010b0 	mov	r1, #176	; 0xb0
    d1b4:	e2800981 	add	r0, r0, #2113536	; 0x204000
    d1b8:	ebffecd4 	bl	8510 <PUT32>
    d1bc:	e5940000 	ldr	r0, [r4]
    d1c0:	e2800981 	add	r0, r0, #2113536	; 0x204000
    d1c4:	ebffecd3 	bl	8518 <GET32>
    d1c8:	e3100701 	tst	r0, #262144	; 0x40000
    d1cc:	0afffffa 	beq	d1bc <glcd_hline+0x7a0>
    d1d0:	e5940000 	ldr	r0, [r4]
    d1d4:	e1a01008 	mov	r1, r8
    d1d8:	e2800981 	add	r0, r0, #2113536	; 0x204000
    d1dc:	e2800004 	add	r0, r0, #4
    d1e0:	ebffecca 	bl	8510 <PUT32>
    d1e4:	e5940000 	ldr	r0, [r4]
    d1e8:	e2800981 	add	r0, r0, #2113536	; 0x204000
    d1ec:	ebffecc9 	bl	8518 <GET32>
    d1f0:	e3100801 	tst	r0, #65536	; 0x10000
    d1f4:	0afffffa 	beq	d1e4 <glcd_hline+0x7c8>
    d1f8:	e5940000 	ldr	r0, [r4]
    d1fc:	e3a01000 	mov	r1, #0
    d200:	e2800981 	add	r0, r0, #2113536	; 0x204000
    d204:	ebffecc1 	bl	8510 <PUT32>
    d208:	e3a01000 	mov	r1, #0
    d20c:	e3a00019 	mov	r0, #25
    d210:	ebffee07 	bl	8a34 <gpio_output>
    d214:	e5940000 	ldr	r0, [r4]
    d218:	e3a010b0 	mov	r1, #176	; 0xb0
    d21c:	e2800981 	add	r0, r0, #2113536	; 0x204000
    d220:	ebffecba 	bl	8510 <PUT32>
    d224:	e5940000 	ldr	r0, [r4]
    d228:	e2800981 	add	r0, r0, #2113536	; 0x204000
    d22c:	ebffecb9 	bl	8518 <GET32>
    d230:	e3100701 	tst	r0, #262144	; 0x40000
    d234:	0afffffa 	beq	d224 <glcd_hline+0x808>
    d238:	e5940000 	ldr	r0, [r4]
    d23c:	e3a0102b 	mov	r1, #43	; 0x2b
    d240:	e2800981 	add	r0, r0, #2113536	; 0x204000
    d244:	e2800004 	add	r0, r0, #4
    d248:	ebffecb0 	bl	8510 <PUT32>
    d24c:	e5940000 	ldr	r0, [r4]
    d250:	e2800981 	add	r0, r0, #2113536	; 0x204000
    d254:	ebffecaf 	bl	8518 <GET32>
    d258:	e3100801 	tst	r0, #65536	; 0x10000
    d25c:	0afffffa 	beq	d24c <glcd_hline+0x830>
    d260:	e5940000 	ldr	r0, [r4]
    d264:	e3a01000 	mov	r1, #0
    d268:	e2800981 	add	r0, r0, #2113536	; 0x204000
    d26c:	ebffeca7 	bl	8510 <PUT32>
    d270:	e3a01001 	mov	r1, #1
    d274:	e3a00019 	mov	r0, #25
    d278:	ebffeded 	bl	8a34 <gpio_output>
    d27c:	e5940000 	ldr	r0, [r4]
    d280:	e3a010b0 	mov	r1, #176	; 0xb0
    d284:	e2800981 	add	r0, r0, #2113536	; 0x204000
    d288:	e1a08425 	lsr	r8, r5, #8
    d28c:	e6ef5075 	uxtb	r5, r5
    d290:	ebffec9e 	bl	8510 <PUT32>
    d294:	e5940000 	ldr	r0, [r4]
    d298:	e2800981 	add	r0, r0, #2113536	; 0x204000
    d29c:	ebffec9d 	bl	8518 <GET32>
    d2a0:	e3100701 	tst	r0, #262144	; 0x40000
    d2a4:	0afffffa 	beq	d294 <glcd_hline+0x878>
    d2a8:	e5940000 	ldr	r0, [r4]
    d2ac:	e1a01008 	mov	r1, r8
    d2b0:	e2800981 	add	r0, r0, #2113536	; 0x204000
    d2b4:	e2800004 	add	r0, r0, #4
    d2b8:	ebffec94 	bl	8510 <PUT32>
    d2bc:	e5940000 	ldr	r0, [r4]
    d2c0:	e2800981 	add	r0, r0, #2113536	; 0x204000
    d2c4:	ebffec93 	bl	8518 <GET32>
    d2c8:	e3100801 	tst	r0, #65536	; 0x10000
    d2cc:	0afffffa 	beq	d2bc <glcd_hline+0x8a0>
    d2d0:	e5940000 	ldr	r0, [r4]
    d2d4:	e3a01000 	mov	r1, #0
    d2d8:	e2800981 	add	r0, r0, #2113536	; 0x204000
    d2dc:	ebffec8b 	bl	8510 <PUT32>
    d2e0:	e3a01001 	mov	r1, #1
    d2e4:	e3a00019 	mov	r0, #25
    d2e8:	ebffedd1 	bl	8a34 <gpio_output>
    d2ec:	e5940000 	ldr	r0, [r4]
    d2f0:	e3a010b0 	mov	r1, #176	; 0xb0
    d2f4:	e2800981 	add	r0, r0, #2113536	; 0x204000
    d2f8:	ebffec84 	bl	8510 <PUT32>
    d2fc:	e5940000 	ldr	r0, [r4]
    d300:	e2800981 	add	r0, r0, #2113536	; 0x204000
    d304:	ebffec83 	bl	8518 <GET32>
    d308:	e3100701 	tst	r0, #262144	; 0x40000
    d30c:	0afffffa 	beq	d2fc <glcd_hline+0x8e0>
    d310:	e5940000 	ldr	r0, [r4]
    d314:	e1a01005 	mov	r1, r5
    d318:	e2800981 	add	r0, r0, #2113536	; 0x204000
    d31c:	e2800004 	add	r0, r0, #4
    d320:	ebffec7a 	bl	8510 <PUT32>
    d324:	e5940000 	ldr	r0, [r4]
    d328:	e2800981 	add	r0, r0, #2113536	; 0x204000
    d32c:	ebffec79 	bl	8518 <GET32>
    d330:	e3100801 	tst	r0, #65536	; 0x10000
    d334:	0afffffa 	beq	d324 <glcd_hline+0x908>
    d338:	e5940000 	ldr	r0, [r4]
    d33c:	e3a01000 	mov	r1, #0
    d340:	e2800981 	add	r0, r0, #2113536	; 0x204000
    d344:	ebffec71 	bl	8510 <PUT32>
    d348:	e3a01001 	mov	r1, #1
    d34c:	e3a00019 	mov	r0, #25
    d350:	ebffedb7 	bl	8a34 <gpio_output>
    d354:	e5940000 	ldr	r0, [r4]
    d358:	e3a010b0 	mov	r1, #176	; 0xb0
    d35c:	e2800981 	add	r0, r0, #2113536	; 0x204000
    d360:	ebffec6a 	bl	8510 <PUT32>
    d364:	e5940000 	ldr	r0, [r4]
    d368:	e2800981 	add	r0, r0, #2113536	; 0x204000
    d36c:	ebffec69 	bl	8518 <GET32>
    d370:	e3100701 	tst	r0, #262144	; 0x40000
    d374:	0afffffa 	beq	d364 <glcd_hline+0x948>
    d378:	e5940000 	ldr	r0, [r4]
    d37c:	e1a01008 	mov	r1, r8
    d380:	e2800981 	add	r0, r0, #2113536	; 0x204000
    d384:	e2800004 	add	r0, r0, #4
    d388:	ebffec60 	bl	8510 <PUT32>
    d38c:	e5940000 	ldr	r0, [r4]
    d390:	e2800981 	add	r0, r0, #2113536	; 0x204000
    d394:	ebffec5f 	bl	8518 <GET32>
    d398:	e3100801 	tst	r0, #65536	; 0x10000
    d39c:	0afffffa 	beq	d38c <glcd_hline+0x970>
    d3a0:	e5940000 	ldr	r0, [r4]
    d3a4:	e3a01000 	mov	r1, #0
    d3a8:	e2800981 	add	r0, r0, #2113536	; 0x204000
    d3ac:	ebffec57 	bl	8510 <PUT32>
    d3b0:	e3a01001 	mov	r1, #1
    d3b4:	e3a00019 	mov	r0, #25
    d3b8:	ebffed9d 	bl	8a34 <gpio_output>
    d3bc:	e5940000 	ldr	r0, [r4]
    d3c0:	e3a010b0 	mov	r1, #176	; 0xb0
    d3c4:	e2800981 	add	r0, r0, #2113536	; 0x204000
    d3c8:	ebffec50 	bl	8510 <PUT32>
    d3cc:	e5940000 	ldr	r0, [r4]
    d3d0:	e2800981 	add	r0, r0, #2113536	; 0x204000
    d3d4:	ebffec4f 	bl	8518 <GET32>
    d3d8:	e3100701 	tst	r0, #262144	; 0x40000
    d3dc:	0afffffa 	beq	d3cc <glcd_hline+0x9b0>
    d3e0:	e5940000 	ldr	r0, [r4]
    d3e4:	e1a01005 	mov	r1, r5
    d3e8:	e2800981 	add	r0, r0, #2113536	; 0x204000
    d3ec:	e2800004 	add	r0, r0, #4
    d3f0:	ebffec46 	bl	8510 <PUT32>
    d3f4:	e5940000 	ldr	r0, [r4]
    d3f8:	e2800981 	add	r0, r0, #2113536	; 0x204000
    d3fc:	ebffec45 	bl	8518 <GET32>
    d400:	e3100801 	tst	r0, #65536	; 0x10000
    d404:	0afffffa 	beq	d3f4 <glcd_hline+0x9d8>
    d408:	e5940000 	ldr	r0, [r4]
    d40c:	e3a01000 	mov	r1, #0
    d410:	e2800981 	add	r0, r0, #2113536	; 0x204000
    d414:	ebffec3d 	bl	8510 <PUT32>
    d418:	e3a01000 	mov	r1, #0
    d41c:	e3a00019 	mov	r0, #25
    d420:	ebffed83 	bl	8a34 <gpio_output>
    d424:	e5940000 	ldr	r0, [r4]
    d428:	e3a010b0 	mov	r1, #176	; 0xb0
    d42c:	e2800981 	add	r0, r0, #2113536	; 0x204000
    d430:	ebffec36 	bl	8510 <PUT32>
    d434:	e5940000 	ldr	r0, [r4]
    d438:	e2800981 	add	r0, r0, #2113536	; 0x204000
    d43c:	ebffec35 	bl	8518 <GET32>
    d440:	e3100701 	tst	r0, #262144	; 0x40000
    d444:	0afffffa 	beq	d434 <glcd_hline+0xa18>
    d448:	e5940000 	ldr	r0, [r4]
    d44c:	e3a0102c 	mov	r1, #44	; 0x2c
    d450:	e2800981 	add	r0, r0, #2113536	; 0x204000
    d454:	e2800004 	add	r0, r0, #4
    d458:	ebffec2c 	bl	8510 <PUT32>
    d45c:	e5940000 	ldr	r0, [r4]
    d460:	e2800981 	add	r0, r0, #2113536	; 0x204000
    d464:	ebffec2b 	bl	8518 <GET32>
    d468:	e3100801 	tst	r0, #65536	; 0x10000
    d46c:	0afffffa 	beq	d45c <glcd_hline+0xa40>
    d470:	e5940000 	ldr	r0, [r4]
    d474:	e3a01000 	mov	r1, #0
    d478:	e2800981 	add	r0, r0, #2113536	; 0x204000
    d47c:	ebffec23 	bl	8510 <PUT32>
    d480:	e3570000 	cmp	r7, #0
    d484:	08bd87f0 	popeq	{r4, r5, r6, r7, r8, r9, sl, pc}
    d488:	e3a05000 	mov	r5, #0
    d48c:	e1a08426 	lsr	r8, r6, #8
    d490:	e6ef6076 	uxtb	r6, r6
    d494:	e3a01001 	mov	r1, #1
    d498:	e3a00019 	mov	r0, #25
    d49c:	ebffed64 	bl	8a34 <gpio_output>
    d4a0:	e5940000 	ldr	r0, [r4]
    d4a4:	e3a010b0 	mov	r1, #176	; 0xb0
    d4a8:	e2800981 	add	r0, r0, #2113536	; 0x204000
    d4ac:	ebffec17 	bl	8510 <PUT32>
    d4b0:	e5940000 	ldr	r0, [r4]
    d4b4:	e2800981 	add	r0, r0, #2113536	; 0x204000
    d4b8:	ebffec16 	bl	8518 <GET32>
    d4bc:	e3100701 	tst	r0, #262144	; 0x40000
    d4c0:	0afffffa 	beq	d4b0 <glcd_hline+0xa94>
    d4c4:	e5940000 	ldr	r0, [r4]
    d4c8:	e1a01008 	mov	r1, r8
    d4cc:	e2800981 	add	r0, r0, #2113536	; 0x204000
    d4d0:	e2800004 	add	r0, r0, #4
    d4d4:	ebffec0d 	bl	8510 <PUT32>
    d4d8:	e5940000 	ldr	r0, [r4]
    d4dc:	e2800981 	add	r0, r0, #2113536	; 0x204000
    d4e0:	ebffec0c 	bl	8518 <GET32>
    d4e4:	e3100801 	tst	r0, #65536	; 0x10000
    d4e8:	0afffffa 	beq	d4d8 <glcd_hline+0xabc>
    d4ec:	e5940000 	ldr	r0, [r4]
    d4f0:	e3a01000 	mov	r1, #0
    d4f4:	e2800981 	add	r0, r0, #2113536	; 0x204000
    d4f8:	ebffec04 	bl	8510 <PUT32>
    d4fc:	e3a01001 	mov	r1, #1
    d500:	e3a00019 	mov	r0, #25
    d504:	ebffed4a 	bl	8a34 <gpio_output>
    d508:	e5940000 	ldr	r0, [r4]
    d50c:	e3a010b0 	mov	r1, #176	; 0xb0
    d510:	e2800981 	add	r0, r0, #2113536	; 0x204000
    d514:	ebffebfd 	bl	8510 <PUT32>
    d518:	e5940000 	ldr	r0, [r4]
    d51c:	e2800981 	add	r0, r0, #2113536	; 0x204000
    d520:	ebffebfc 	bl	8518 <GET32>
    d524:	e3100701 	tst	r0, #262144	; 0x40000
    d528:	0afffffa 	beq	d518 <glcd_hline+0xafc>
    d52c:	e5940000 	ldr	r0, [r4]
    d530:	e1a01006 	mov	r1, r6
    d534:	e2800981 	add	r0, r0, #2113536	; 0x204000
    d538:	e2800004 	add	r0, r0, #4
    d53c:	ebffebf3 	bl	8510 <PUT32>
    d540:	e5940000 	ldr	r0, [r4]
    d544:	e2800981 	add	r0, r0, #2113536	; 0x204000
    d548:	ebffebf2 	bl	8518 <GET32>
    d54c:	e3100801 	tst	r0, #65536	; 0x10000
    d550:	0afffffa 	beq	d540 <glcd_hline+0xb24>
    d554:	e5940000 	ldr	r0, [r4]
    d558:	e2855001 	add	r5, r5, #1
    d55c:	e2800981 	add	r0, r0, #2113536	; 0x204000
    d560:	e3a01000 	mov	r1, #0
    d564:	ebffebe9 	bl	8510 <PUT32>
    d568:	e1550007 	cmp	r5, r7
    d56c:	1affffc8 	bne	d494 <glcd_hline+0xa78>
    d570:	e8bd87f0 	pop	{r4, r5, r6, r7, r8, r9, sl, pc}
    d574:	0001d8c8 	.word	0x0001d8c8
    d578:	0001b88c 	.word	0x0001b88c

0000d57c <glcd_fillRectangle>:
    d57c:	e92d4ff0 	push	{r4, r5, r6, r7, r8, r9, sl, fp, lr}
    d580:	e24dd024 	sub	sp, sp, #36	; 0x24
    d584:	e1ddc4b8 	ldrh	ip, [sp, #72]	; 0x48
    d588:	e3530000 	cmp	r3, #0
    d58c:	e58dc010 	str	ip, [sp, #16]
    d590:	0a00017b 	beq	db84 <glcd_fillRectangle+0x608>
    d594:	e1a06002 	mov	r6, r2
    d598:	e58d3004 	str	r3, [sp, #4]
    d59c:	e0803006 	add	r3, r0, r6
    d5a0:	e6ff3073 	uxth	r3, r3
    d5a4:	e58d3014 	str	r3, [sp, #20]
    d5a8:	e1a03423 	lsr	r3, r3, #8
    d5ac:	e58d301c 	str	r3, [sp, #28]
    d5b0:	e1a03420 	lsr	r3, r0, #8
    d5b4:	e58d1008 	str	r1, [sp, #8]
    d5b8:	e58d000c 	str	r0, [sp, #12]
    d5bc:	e3a05000 	mov	r5, #0
    d5c0:	e59fab5c 	ldr	sl, [pc, #2908]	; e124 <glcd_fillRectangle+0xba8>
    d5c4:	e59f4b5c 	ldr	r4, [pc, #2908]	; e128 <glcd_fillRectangle+0xbac>
    d5c8:	e1a0942c 	lsr	r9, ip, #8
    d5cc:	e58d3018 	str	r3, [sp, #24]
    d5d0:	ea000005 	b	d5ec <glcd_fillRectangle+0x70>
    d5d4:	e3510001 	cmp	r1, #1
    d5d8:	0a00016b 	beq	db8c <glcd_fillRectangle+0x610>
    d5dc:	e59d3004 	ldr	r3, [sp, #4]
    d5e0:	e2855001 	add	r5, r5, #1
    d5e4:	e1550003 	cmp	r5, r3
    d5e8:	0a000165 	beq	db84 <glcd_fillRectangle+0x608>
    d5ec:	e59a1004 	ldr	r1, [sl, #4]
    d5f0:	e59d3008 	ldr	r3, [sp, #8]
    d5f4:	e3510000 	cmp	r1, #0
    d5f8:	e0837005 	add	r7, r3, r5
    d5fc:	e6ff8077 	uxth	r8, r7
    d600:	1afffff3 	bne	d5d4 <glcd_fillRectangle+0x58>
    d604:	e3a00019 	mov	r0, #25
    d608:	ebffed09 	bl	8a34 <gpio_output>
    d60c:	e5940000 	ldr	r0, [r4]
    d610:	e3a010b0 	mov	r1, #176	; 0xb0
    d614:	e2800981 	add	r0, r0, #2113536	; 0x204000
    d618:	ebffebbc 	bl	8510 <PUT32>
    d61c:	e5940000 	ldr	r0, [r4]
    d620:	e2800981 	add	r0, r0, #2113536	; 0x204000
    d624:	ebffebbb 	bl	8518 <GET32>
    d628:	e3100701 	tst	r0, #262144	; 0x40000
    d62c:	0afffffa 	beq	d61c <glcd_fillRectangle+0xa0>
    d630:	e5940000 	ldr	r0, [r4]
    d634:	e3a0102a 	mov	r1, #42	; 0x2a
    d638:	e2800981 	add	r0, r0, #2113536	; 0x204000
    d63c:	e2800004 	add	r0, r0, #4
    d640:	ebffebb2 	bl	8510 <PUT32>
    d644:	e5940000 	ldr	r0, [r4]
    d648:	e2800981 	add	r0, r0, #2113536	; 0x204000
    d64c:	ebffebb1 	bl	8518 <GET32>
    d650:	e3100801 	tst	r0, #65536	; 0x10000
    d654:	0afffffa 	beq	d644 <glcd_fillRectangle+0xc8>
    d658:	e5940000 	ldr	r0, [r4]
    d65c:	e3a01000 	mov	r1, #0
    d660:	e2800981 	add	r0, r0, #2113536	; 0x204000
    d664:	ebffeba9 	bl	8510 <PUT32>
    d668:	e3a01001 	mov	r1, #1
    d66c:	e3a00019 	mov	r0, #25
    d670:	ebffecef 	bl	8a34 <gpio_output>
    d674:	e5940000 	ldr	r0, [r4]
    d678:	e3a010b0 	mov	r1, #176	; 0xb0
    d67c:	e2800981 	add	r0, r0, #2113536	; 0x204000
    d680:	e5ddb00c 	ldrb	fp, [sp, #12]
    d684:	ebffeba1 	bl	8510 <PUT32>
    d688:	e5940000 	ldr	r0, [r4]
    d68c:	e2800981 	add	r0, r0, #2113536	; 0x204000
    d690:	ebffeba0 	bl	8518 <GET32>
    d694:	e3100701 	tst	r0, #262144	; 0x40000
    d698:	0afffffa 	beq	d688 <glcd_fillRectangle+0x10c>
    d69c:	e5940000 	ldr	r0, [r4]
    d6a0:	e59d1018 	ldr	r1, [sp, #24]
    d6a4:	e2800981 	add	r0, r0, #2113536	; 0x204000
    d6a8:	e2800004 	add	r0, r0, #4
    d6ac:	ebffeb97 	bl	8510 <PUT32>
    d6b0:	e5940000 	ldr	r0, [r4]
    d6b4:	e2800981 	add	r0, r0, #2113536	; 0x204000
    d6b8:	ebffeb96 	bl	8518 <GET32>
    d6bc:	e3100801 	tst	r0, #65536	; 0x10000
    d6c0:	0afffffa 	beq	d6b0 <glcd_fillRectangle+0x134>
    d6c4:	e5940000 	ldr	r0, [r4]
    d6c8:	e3a01000 	mov	r1, #0
    d6cc:	e2800981 	add	r0, r0, #2113536	; 0x204000
    d6d0:	ebffeb8e 	bl	8510 <PUT32>
    d6d4:	e3a01001 	mov	r1, #1
    d6d8:	e3a00019 	mov	r0, #25
    d6dc:	ebffecd4 	bl	8a34 <gpio_output>
    d6e0:	e5940000 	ldr	r0, [r4]
    d6e4:	e3a010b0 	mov	r1, #176	; 0xb0
    d6e8:	e2800981 	add	r0, r0, #2113536	; 0x204000
    d6ec:	ebffeb87 	bl	8510 <PUT32>
    d6f0:	e5940000 	ldr	r0, [r4]
    d6f4:	e2800981 	add	r0, r0, #2113536	; 0x204000
    d6f8:	ebffeb86 	bl	8518 <GET32>
    d6fc:	e3100701 	tst	r0, #262144	; 0x40000
    d700:	0afffffa 	beq	d6f0 <glcd_fillRectangle+0x174>
    d704:	e5940000 	ldr	r0, [r4]
    d708:	e1a0100b 	mov	r1, fp
    d70c:	e2800981 	add	r0, r0, #2113536	; 0x204000
    d710:	e2800004 	add	r0, r0, #4
    d714:	ebffeb7d 	bl	8510 <PUT32>
    d718:	e5940000 	ldr	r0, [r4]
    d71c:	e2800981 	add	r0, r0, #2113536	; 0x204000
    d720:	ebffeb7c 	bl	8518 <GET32>
    d724:	e3100801 	tst	r0, #65536	; 0x10000
    d728:	0afffffa 	beq	d718 <glcd_fillRectangle+0x19c>
    d72c:	e5940000 	ldr	r0, [r4]
    d730:	e3a01000 	mov	r1, #0
    d734:	e2800981 	add	r0, r0, #2113536	; 0x204000
    d738:	ebffeb74 	bl	8510 <PUT32>
    d73c:	e3a01001 	mov	r1, #1
    d740:	e3a00019 	mov	r0, #25
    d744:	ebffecba 	bl	8a34 <gpio_output>
    d748:	e5940000 	ldr	r0, [r4]
    d74c:	e3a010b0 	mov	r1, #176	; 0xb0
    d750:	e2800981 	add	r0, r0, #2113536	; 0x204000
    d754:	e5ddb014 	ldrb	fp, [sp, #20]
    d758:	ebffeb6c 	bl	8510 <PUT32>
    d75c:	e5940000 	ldr	r0, [r4]
    d760:	e2800981 	add	r0, r0, #2113536	; 0x204000
    d764:	ebffeb6b 	bl	8518 <GET32>
    d768:	e3100701 	tst	r0, #262144	; 0x40000
    d76c:	0afffffa 	beq	d75c <glcd_fillRectangle+0x1e0>
    d770:	e5940000 	ldr	r0, [r4]
    d774:	e59d101c 	ldr	r1, [sp, #28]
    d778:	e2800981 	add	r0, r0, #2113536	; 0x204000
    d77c:	e2800004 	add	r0, r0, #4
    d780:	ebffeb62 	bl	8510 <PUT32>
    d784:	e5940000 	ldr	r0, [r4]
    d788:	e2800981 	add	r0, r0, #2113536	; 0x204000
    d78c:	ebffeb61 	bl	8518 <GET32>
    d790:	e3100801 	tst	r0, #65536	; 0x10000
    d794:	0afffffa 	beq	d784 <glcd_fillRectangle+0x208>
    d798:	e5940000 	ldr	r0, [r4]
    d79c:	e3a01000 	mov	r1, #0
    d7a0:	e2800981 	add	r0, r0, #2113536	; 0x204000
    d7a4:	ebffeb59 	bl	8510 <PUT32>
    d7a8:	e3a01001 	mov	r1, #1
    d7ac:	e3a00019 	mov	r0, #25
    d7b0:	ebffec9f 	bl	8a34 <gpio_output>
    d7b4:	e5940000 	ldr	r0, [r4]
    d7b8:	e3a010b0 	mov	r1, #176	; 0xb0
    d7bc:	e2800981 	add	r0, r0, #2113536	; 0x204000
    d7c0:	ebffeb52 	bl	8510 <PUT32>
    d7c4:	e5940000 	ldr	r0, [r4]
    d7c8:	e2800981 	add	r0, r0, #2113536	; 0x204000
    d7cc:	ebffeb51 	bl	8518 <GET32>
    d7d0:	e3100701 	tst	r0, #262144	; 0x40000
    d7d4:	0afffffa 	beq	d7c4 <glcd_fillRectangle+0x248>
    d7d8:	e5940000 	ldr	r0, [r4]
    d7dc:	e1a0100b 	mov	r1, fp
    d7e0:	e2800981 	add	r0, r0, #2113536	; 0x204000
    d7e4:	e2800004 	add	r0, r0, #4
    d7e8:	ebffeb48 	bl	8510 <PUT32>
    d7ec:	e5940000 	ldr	r0, [r4]
    d7f0:	e2800981 	add	r0, r0, #2113536	; 0x204000
    d7f4:	ebffeb47 	bl	8518 <GET32>
    d7f8:	e3100801 	tst	r0, #65536	; 0x10000
    d7fc:	0afffffa 	beq	d7ec <glcd_fillRectangle+0x270>
    d800:	e5940000 	ldr	r0, [r4]
    d804:	e3a01000 	mov	r1, #0
    d808:	e2800981 	add	r0, r0, #2113536	; 0x204000
    d80c:	ebffeb3f 	bl	8510 <PUT32>
    d810:	e3a01000 	mov	r1, #0
    d814:	e3a00019 	mov	r0, #25
    d818:	ebffec85 	bl	8a34 <gpio_output>
    d81c:	e5940000 	ldr	r0, [r4]
    d820:	e3a010b0 	mov	r1, #176	; 0xb0
    d824:	e2800981 	add	r0, r0, #2113536	; 0x204000
    d828:	ebffeb38 	bl	8510 <PUT32>
    d82c:	e5940000 	ldr	r0, [r4]
    d830:	e2800981 	add	r0, r0, #2113536	; 0x204000
    d834:	ebffeb37 	bl	8518 <GET32>
    d838:	e3100701 	tst	r0, #262144	; 0x40000
    d83c:	0afffffa 	beq	d82c <glcd_fillRectangle+0x2b0>
    d840:	e5940000 	ldr	r0, [r4]
    d844:	e3a0102b 	mov	r1, #43	; 0x2b
    d848:	e2800981 	add	r0, r0, #2113536	; 0x204000
    d84c:	e2800004 	add	r0, r0, #4
    d850:	ebffeb2e 	bl	8510 <PUT32>
    d854:	e5940000 	ldr	r0, [r4]
    d858:	e2800981 	add	r0, r0, #2113536	; 0x204000
    d85c:	ebffeb2d 	bl	8518 <GET32>
    d860:	e3100801 	tst	r0, #65536	; 0x10000
    d864:	0afffffa 	beq	d854 <glcd_fillRectangle+0x2d8>
    d868:	e5940000 	ldr	r0, [r4]
    d86c:	e3a01000 	mov	r1, #0
    d870:	e2800981 	add	r0, r0, #2113536	; 0x204000
    d874:	ebffeb25 	bl	8510 <PUT32>
    d878:	e3a01001 	mov	r1, #1
    d87c:	e3a00019 	mov	r0, #25
    d880:	ebffec6b 	bl	8a34 <gpio_output>
    d884:	e5940000 	ldr	r0, [r4]
    d888:	e3a010b0 	mov	r1, #176	; 0xb0
    d88c:	e2800981 	add	r0, r0, #2113536	; 0x204000
    d890:	e1a08428 	lsr	r8, r8, #8
    d894:	e6ef7077 	uxtb	r7, r7
    d898:	ebffeb1c 	bl	8510 <PUT32>
    d89c:	e5940000 	ldr	r0, [r4]
    d8a0:	e2800981 	add	r0, r0, #2113536	; 0x204000
    d8a4:	ebffeb1b 	bl	8518 <GET32>
    d8a8:	e3100701 	tst	r0, #262144	; 0x40000
    d8ac:	0afffffa 	beq	d89c <glcd_fillRectangle+0x320>
    d8b0:	e5940000 	ldr	r0, [r4]
    d8b4:	e1a01008 	mov	r1, r8
    d8b8:	e2800981 	add	r0, r0, #2113536	; 0x204000
    d8bc:	e2800004 	add	r0, r0, #4
    d8c0:	ebffeb12 	bl	8510 <PUT32>
    d8c4:	e5940000 	ldr	r0, [r4]
    d8c8:	e2800981 	add	r0, r0, #2113536	; 0x204000
    d8cc:	ebffeb11 	bl	8518 <GET32>
    d8d0:	e3100801 	tst	r0, #65536	; 0x10000
    d8d4:	0afffffa 	beq	d8c4 <glcd_fillRectangle+0x348>
    d8d8:	e5940000 	ldr	r0, [r4]
    d8dc:	e3a01000 	mov	r1, #0
    d8e0:	e2800981 	add	r0, r0, #2113536	; 0x204000
    d8e4:	ebffeb09 	bl	8510 <PUT32>
    d8e8:	e3a01001 	mov	r1, #1
    d8ec:	e3a00019 	mov	r0, #25
    d8f0:	ebffec4f 	bl	8a34 <gpio_output>
    d8f4:	e5940000 	ldr	r0, [r4]
    d8f8:	e3a010b0 	mov	r1, #176	; 0xb0
    d8fc:	e2800981 	add	r0, r0, #2113536	; 0x204000
    d900:	ebffeb02 	bl	8510 <PUT32>
    d904:	e5940000 	ldr	r0, [r4]
    d908:	e2800981 	add	r0, r0, #2113536	; 0x204000
    d90c:	ebffeb01 	bl	8518 <GET32>
    d910:	e3100701 	tst	r0, #262144	; 0x40000
    d914:	0afffffa 	beq	d904 <glcd_fillRectangle+0x388>
    d918:	e5940000 	ldr	r0, [r4]
    d91c:	e1a01007 	mov	r1, r7
    d920:	e2800981 	add	r0, r0, #2113536	; 0x204000
    d924:	e2800004 	add	r0, r0, #4
    d928:	ebffeaf8 	bl	8510 <PUT32>
    d92c:	e5940000 	ldr	r0, [r4]
    d930:	e2800981 	add	r0, r0, #2113536	; 0x204000
    d934:	ebffeaf7 	bl	8518 <GET32>
    d938:	e3100801 	tst	r0, #65536	; 0x10000
    d93c:	0afffffa 	beq	d92c <glcd_fillRectangle+0x3b0>
    d940:	e5940000 	ldr	r0, [r4]
    d944:	e3a01000 	mov	r1, #0
    d948:	e2800981 	add	r0, r0, #2113536	; 0x204000
    d94c:	ebffeaef 	bl	8510 <PUT32>
    d950:	e3a01001 	mov	r1, #1
    d954:	e3a00019 	mov	r0, #25
    d958:	ebffec35 	bl	8a34 <gpio_output>
    d95c:	e5940000 	ldr	r0, [r4]
    d960:	e3a010b0 	mov	r1, #176	; 0xb0
    d964:	e2800981 	add	r0, r0, #2113536	; 0x204000
    d968:	ebffeae8 	bl	8510 <PUT32>
    d96c:	e5940000 	ldr	r0, [r4]
    d970:	e2800981 	add	r0, r0, #2113536	; 0x204000
    d974:	ebffeae7 	bl	8518 <GET32>
    d978:	e3100701 	tst	r0, #262144	; 0x40000
    d97c:	0afffffa 	beq	d96c <glcd_fillRectangle+0x3f0>
    d980:	e5940000 	ldr	r0, [r4]
    d984:	e1a01008 	mov	r1, r8
    d988:	e2800981 	add	r0, r0, #2113536	; 0x204000
    d98c:	e2800004 	add	r0, r0, #4
    d990:	ebffeade 	bl	8510 <PUT32>
    d994:	e5940000 	ldr	r0, [r4]
    d998:	e2800981 	add	r0, r0, #2113536	; 0x204000
    d99c:	ebffeadd 	bl	8518 <GET32>
    d9a0:	e3100801 	tst	r0, #65536	; 0x10000
    d9a4:	0afffffa 	beq	d994 <glcd_fillRectangle+0x418>
    d9a8:	e5940000 	ldr	r0, [r4]
    d9ac:	e3a01000 	mov	r1, #0
    d9b0:	e2800981 	add	r0, r0, #2113536	; 0x204000
    d9b4:	ebffead5 	bl	8510 <PUT32>
    d9b8:	e3a01001 	mov	r1, #1
    d9bc:	e3a00019 	mov	r0, #25
    d9c0:	ebffec1b 	bl	8a34 <gpio_output>
    d9c4:	e5940000 	ldr	r0, [r4]
    d9c8:	e3a010b0 	mov	r1, #176	; 0xb0
    d9cc:	e2800981 	add	r0, r0, #2113536	; 0x204000
    d9d0:	ebffeace 	bl	8510 <PUT32>
    d9d4:	e5940000 	ldr	r0, [r4]
    d9d8:	e2800981 	add	r0, r0, #2113536	; 0x204000
    d9dc:	ebffeacd 	bl	8518 <GET32>
    d9e0:	e3100701 	tst	r0, #262144	; 0x40000
    d9e4:	0afffffa 	beq	d9d4 <glcd_fillRectangle+0x458>
    d9e8:	e5940000 	ldr	r0, [r4]
    d9ec:	e1a01007 	mov	r1, r7
    d9f0:	e2800981 	add	r0, r0, #2113536	; 0x204000
    d9f4:	e2800004 	add	r0, r0, #4
    d9f8:	ebffeac4 	bl	8510 <PUT32>
    d9fc:	e5940000 	ldr	r0, [r4]
    da00:	e2800981 	add	r0, r0, #2113536	; 0x204000
    da04:	ebffeac3 	bl	8518 <GET32>
    da08:	e3100801 	tst	r0, #65536	; 0x10000
    da0c:	0afffffa 	beq	d9fc <glcd_fillRectangle+0x480>
    da10:	e5940000 	ldr	r0, [r4]
    da14:	e3a01000 	mov	r1, #0
    da18:	e2800981 	add	r0, r0, #2113536	; 0x204000
    da1c:	ebffeabb 	bl	8510 <PUT32>
    da20:	e3a01000 	mov	r1, #0
    da24:	e3a00019 	mov	r0, #25
    da28:	ebffec01 	bl	8a34 <gpio_output>
    da2c:	e5940000 	ldr	r0, [r4]
    da30:	e3a010b0 	mov	r1, #176	; 0xb0
    da34:	e2800981 	add	r0, r0, #2113536	; 0x204000
    da38:	ebffeab4 	bl	8510 <PUT32>
    da3c:	e5940000 	ldr	r0, [r4]
    da40:	e2800981 	add	r0, r0, #2113536	; 0x204000
    da44:	ebffeab3 	bl	8518 <GET32>
    da48:	e3100701 	tst	r0, #262144	; 0x40000
    da4c:	0afffffa 	beq	da3c <glcd_fillRectangle+0x4c0>
    da50:	e5940000 	ldr	r0, [r4]
    da54:	e3a0102c 	mov	r1, #44	; 0x2c
    da58:	e2800981 	add	r0, r0, #2113536	; 0x204000
    da5c:	e2800004 	add	r0, r0, #4
    da60:	ebffeaaa 	bl	8510 <PUT32>
    da64:	e5940000 	ldr	r0, [r4]
    da68:	e2800981 	add	r0, r0, #2113536	; 0x204000
    da6c:	ebffeaa9 	bl	8518 <GET32>
    da70:	e3100801 	tst	r0, #65536	; 0x10000
    da74:	0afffffa 	beq	da64 <glcd_fillRectangle+0x4e8>
    da78:	e5940000 	ldr	r0, [r4]
    da7c:	e3a01000 	mov	r1, #0
    da80:	e2800981 	add	r0, r0, #2113536	; 0x204000
    da84:	ebffeaa1 	bl	8510 <PUT32>
    da88:	e3560000 	cmp	r6, #0
    da8c:	0afffed2 	beq	d5dc <glcd_fillRectangle+0x60>
    da90:	e3a07000 	mov	r7, #0
    da94:	e5dd8010 	ldrb	r8, [sp, #16]
    da98:	e3a01001 	mov	r1, #1
    da9c:	e3a00019 	mov	r0, #25
    daa0:	ebffebe3 	bl	8a34 <gpio_output>
    daa4:	e5940000 	ldr	r0, [r4]
    daa8:	e3a010b0 	mov	r1, #176	; 0xb0
    daac:	e2800981 	add	r0, r0, #2113536	; 0x204000
    dab0:	ebffea96 	bl	8510 <PUT32>
    dab4:	e5940000 	ldr	r0, [r4]
    dab8:	e2800981 	add	r0, r0, #2113536	; 0x204000
    dabc:	ebffea95 	bl	8518 <GET32>
    dac0:	e3100701 	tst	r0, #262144	; 0x40000
    dac4:	0afffffa 	beq	dab4 <glcd_fillRectangle+0x538>
    dac8:	e5940000 	ldr	r0, [r4]
    dacc:	e1a01009 	mov	r1, r9
    dad0:	e2800981 	add	r0, r0, #2113536	; 0x204000
    dad4:	e2800004 	add	r0, r0, #4
    dad8:	ebffea8c 	bl	8510 <PUT32>
    dadc:	e5940000 	ldr	r0, [r4]
    dae0:	e2800981 	add	r0, r0, #2113536	; 0x204000
    dae4:	ebffea8b 	bl	8518 <GET32>
    dae8:	e3100801 	tst	r0, #65536	; 0x10000
    daec:	0afffffa 	beq	dadc <glcd_fillRectangle+0x560>
    daf0:	e5940000 	ldr	r0, [r4]
    daf4:	e3a01000 	mov	r1, #0
    daf8:	e2800981 	add	r0, r0, #2113536	; 0x204000
    dafc:	ebffea83 	bl	8510 <PUT32>
    db00:	e3a01001 	mov	r1, #1
    db04:	e3a00019 	mov	r0, #25
    db08:	ebffebc9 	bl	8a34 <gpio_output>
    db0c:	e5940000 	ldr	r0, [r4]
    db10:	e3a010b0 	mov	r1, #176	; 0xb0
    db14:	e2800981 	add	r0, r0, #2113536	; 0x204000
    db18:	ebffea7c 	bl	8510 <PUT32>
    db1c:	e5940000 	ldr	r0, [r4]
    db20:	e2800981 	add	r0, r0, #2113536	; 0x204000
    db24:	ebffea7b 	bl	8518 <GET32>
    db28:	e3100701 	tst	r0, #262144	; 0x40000
    db2c:	0afffffa 	beq	db1c <glcd_fillRectangle+0x5a0>
    db30:	e5940000 	ldr	r0, [r4]
    db34:	e1a01008 	mov	r1, r8
    db38:	e2800981 	add	r0, r0, #2113536	; 0x204000
    db3c:	e2800004 	add	r0, r0, #4
    db40:	ebffea72 	bl	8510 <PUT32>
    db44:	e5940000 	ldr	r0, [r4]
    db48:	e2800981 	add	r0, r0, #2113536	; 0x204000
    db4c:	ebffea71 	bl	8518 <GET32>
    db50:	e3100801 	tst	r0, #65536	; 0x10000
    db54:	0afffffa 	beq	db44 <glcd_fillRectangle+0x5c8>
    db58:	e5940000 	ldr	r0, [r4]
    db5c:	e2877001 	add	r7, r7, #1
    db60:	e2800981 	add	r0, r0, #2113536	; 0x204000
    db64:	e3a01000 	mov	r1, #0
    db68:	ebffea68 	bl	8510 <PUT32>
    db6c:	e1570006 	cmp	r7, r6
    db70:	1affffc8 	bne	da98 <glcd_fillRectangle+0x51c>
    db74:	e59d3004 	ldr	r3, [sp, #4]
    db78:	e2855001 	add	r5, r5, #1
    db7c:	e1550003 	cmp	r5, r3
    db80:	1afffe99 	bne	d5ec <glcd_fillRectangle+0x70>
    db84:	e28dd024 	add	sp, sp, #36	; 0x24
    db88:	e8bd8ff0 	pop	{r4, r5, r6, r7, r8, r9, sl, fp, pc}
    db8c:	e3a01000 	mov	r1, #0
    db90:	e3a00019 	mov	r0, #25
    db94:	ebffeba6 	bl	8a34 <gpio_output>
    db98:	e5940000 	ldr	r0, [r4]
    db9c:	e3a010b0 	mov	r1, #176	; 0xb0
    dba0:	e2800981 	add	r0, r0, #2113536	; 0x204000
    dba4:	ebffea59 	bl	8510 <PUT32>
    dba8:	e5940000 	ldr	r0, [r4]
    dbac:	e2800981 	add	r0, r0, #2113536	; 0x204000
    dbb0:	ebffea58 	bl	8518 <GET32>
    dbb4:	e3100701 	tst	r0, #262144	; 0x40000
    dbb8:	0afffffa 	beq	dba8 <glcd_fillRectangle+0x62c>
    dbbc:	e5940000 	ldr	r0, [r4]
    dbc0:	e3a0102a 	mov	r1, #42	; 0x2a
    dbc4:	e2800981 	add	r0, r0, #2113536	; 0x204000
    dbc8:	e2800004 	add	r0, r0, #4
    dbcc:	ebffea4f 	bl	8510 <PUT32>
    dbd0:	e5940000 	ldr	r0, [r4]
    dbd4:	e2800981 	add	r0, r0, #2113536	; 0x204000
    dbd8:	ebffea4e 	bl	8518 <GET32>
    dbdc:	e3100801 	tst	r0, #65536	; 0x10000
    dbe0:	0afffffa 	beq	dbd0 <glcd_fillRectangle+0x654>
    dbe4:	e5940000 	ldr	r0, [r4]
    dbe8:	e3a01000 	mov	r1, #0
    dbec:	e2800981 	add	r0, r0, #2113536	; 0x204000
    dbf0:	ebffea46 	bl	8510 <PUT32>
    dbf4:	e3a01001 	mov	r1, #1
    dbf8:	e3a00019 	mov	r0, #25
    dbfc:	ebffeb8c 	bl	8a34 <gpio_output>
    dc00:	e5940000 	ldr	r0, [r4]
    dc04:	e3a010b0 	mov	r1, #176	; 0xb0
    dc08:	e2800981 	add	r0, r0, #2113536	; 0x204000
    dc0c:	e1a08428 	lsr	r8, r8, #8
    dc10:	e6ef7077 	uxtb	r7, r7
    dc14:	ebffea3d 	bl	8510 <PUT32>
    dc18:	e5940000 	ldr	r0, [r4]
    dc1c:	e2800981 	add	r0, r0, #2113536	; 0x204000
    dc20:	ebffea3c 	bl	8518 <GET32>
    dc24:	e3100701 	tst	r0, #262144	; 0x40000
    dc28:	0afffffa 	beq	dc18 <glcd_fillRectangle+0x69c>
    dc2c:	e5940000 	ldr	r0, [r4]
    dc30:	e1a01008 	mov	r1, r8
    dc34:	e2800981 	add	r0, r0, #2113536	; 0x204000
    dc38:	e2800004 	add	r0, r0, #4
    dc3c:	ebffea33 	bl	8510 <PUT32>
    dc40:	e5940000 	ldr	r0, [r4]
    dc44:	e2800981 	add	r0, r0, #2113536	; 0x204000
    dc48:	ebffea32 	bl	8518 <GET32>
    dc4c:	e3100801 	tst	r0, #65536	; 0x10000
    dc50:	0afffffa 	beq	dc40 <glcd_fillRectangle+0x6c4>
    dc54:	e5940000 	ldr	r0, [r4]
    dc58:	e3a01000 	mov	r1, #0
    dc5c:	e2800981 	add	r0, r0, #2113536	; 0x204000
    dc60:	ebffea2a 	bl	8510 <PUT32>
    dc64:	e3a01001 	mov	r1, #1
    dc68:	e3a00019 	mov	r0, #25
    dc6c:	ebffeb70 	bl	8a34 <gpio_output>
    dc70:	e5940000 	ldr	r0, [r4]
    dc74:	e3a010b0 	mov	r1, #176	; 0xb0
    dc78:	e2800981 	add	r0, r0, #2113536	; 0x204000
    dc7c:	ebffea23 	bl	8510 <PUT32>
    dc80:	e5940000 	ldr	r0, [r4]
    dc84:	e2800981 	add	r0, r0, #2113536	; 0x204000
    dc88:	ebffea22 	bl	8518 <GET32>
    dc8c:	e3100701 	tst	r0, #262144	; 0x40000
    dc90:	0afffffa 	beq	dc80 <glcd_fillRectangle+0x704>
    dc94:	e5940000 	ldr	r0, [r4]
    dc98:	e1a01007 	mov	r1, r7
    dc9c:	e2800981 	add	r0, r0, #2113536	; 0x204000
    dca0:	e2800004 	add	r0, r0, #4
    dca4:	ebffea19 	bl	8510 <PUT32>
    dca8:	e5940000 	ldr	r0, [r4]
    dcac:	e2800981 	add	r0, r0, #2113536	; 0x204000
    dcb0:	ebffea18 	bl	8518 <GET32>
    dcb4:	e3100801 	tst	r0, #65536	; 0x10000
    dcb8:	0afffffa 	beq	dca8 <glcd_fillRectangle+0x72c>
    dcbc:	e5940000 	ldr	r0, [r4]
    dcc0:	e3a01000 	mov	r1, #0
    dcc4:	e2800981 	add	r0, r0, #2113536	; 0x204000
    dcc8:	ebffea10 	bl	8510 <PUT32>
    dccc:	e3a01001 	mov	r1, #1
    dcd0:	e3a00019 	mov	r0, #25
    dcd4:	ebffeb56 	bl	8a34 <gpio_output>
    dcd8:	e5940000 	ldr	r0, [r4]
    dcdc:	e3a010b0 	mov	r1, #176	; 0xb0
    dce0:	e2800981 	add	r0, r0, #2113536	; 0x204000
    dce4:	ebffea09 	bl	8510 <PUT32>
    dce8:	e5940000 	ldr	r0, [r4]
    dcec:	e2800981 	add	r0, r0, #2113536	; 0x204000
    dcf0:	ebffea08 	bl	8518 <GET32>
    dcf4:	e3100701 	tst	r0, #262144	; 0x40000
    dcf8:	0afffffa 	beq	dce8 <glcd_fillRectangle+0x76c>
    dcfc:	e5940000 	ldr	r0, [r4]
    dd00:	e1a01008 	mov	r1, r8
    dd04:	e2800981 	add	r0, r0, #2113536	; 0x204000
    dd08:	e2800004 	add	r0, r0, #4
    dd0c:	ebffe9ff 	bl	8510 <PUT32>
    dd10:	e5940000 	ldr	r0, [r4]
    dd14:	e2800981 	add	r0, r0, #2113536	; 0x204000
    dd18:	ebffe9fe 	bl	8518 <GET32>
    dd1c:	e3100801 	tst	r0, #65536	; 0x10000
    dd20:	0afffffa 	beq	dd10 <glcd_fillRectangle+0x794>
    dd24:	e5940000 	ldr	r0, [r4]
    dd28:	e3a01000 	mov	r1, #0
    dd2c:	e2800981 	add	r0, r0, #2113536	; 0x204000
    dd30:	ebffe9f6 	bl	8510 <PUT32>
    dd34:	e3a01001 	mov	r1, #1
    dd38:	e3a00019 	mov	r0, #25
    dd3c:	ebffeb3c 	bl	8a34 <gpio_output>
    dd40:	e5940000 	ldr	r0, [r4]
    dd44:	e3a010b0 	mov	r1, #176	; 0xb0
    dd48:	e2800981 	add	r0, r0, #2113536	; 0x204000
    dd4c:	ebffe9ef 	bl	8510 <PUT32>
    dd50:	e5940000 	ldr	r0, [r4]
    dd54:	e2800981 	add	r0, r0, #2113536	; 0x204000
    dd58:	ebffe9ee 	bl	8518 <GET32>
    dd5c:	e3100701 	tst	r0, #262144	; 0x40000
    dd60:	0afffffa 	beq	dd50 <glcd_fillRectangle+0x7d4>
    dd64:	e5940000 	ldr	r0, [r4]
    dd68:	e1a01007 	mov	r1, r7
    dd6c:	e2800981 	add	r0, r0, #2113536	; 0x204000
    dd70:	e2800004 	add	r0, r0, #4
    dd74:	ebffe9e5 	bl	8510 <PUT32>
    dd78:	e5940000 	ldr	r0, [r4]
    dd7c:	e2800981 	add	r0, r0, #2113536	; 0x204000
    dd80:	ebffe9e4 	bl	8518 <GET32>
    dd84:	e3100801 	tst	r0, #65536	; 0x10000
    dd88:	0afffffa 	beq	dd78 <glcd_fillRectangle+0x7fc>
    dd8c:	e5940000 	ldr	r0, [r4]
    dd90:	e3a01000 	mov	r1, #0
    dd94:	e2800981 	add	r0, r0, #2113536	; 0x204000
    dd98:	ebffe9dc 	bl	8510 <PUT32>
    dd9c:	e1da70b8 	ldrh	r7, [sl, #8]
    dda0:	e59d300c 	ldr	r3, [sp, #12]
    dda4:	e3a01000 	mov	r1, #0
    dda8:	e3a00019 	mov	r0, #25
    ddac:	e0477003 	sub	r7, r7, r3
    ddb0:	ebffeb1f 	bl	8a34 <gpio_output>
    ddb4:	e5940000 	ldr	r0, [r4]
    ddb8:	e6ff7077 	uxth	r7, r7
    ddbc:	e0478006 	sub	r8, r7, r6
    ddc0:	e3a010b0 	mov	r1, #176	; 0xb0
    ddc4:	e2800981 	add	r0, r0, #2113536	; 0x204000
    ddc8:	e6ff8078 	uxth	r8, r8
    ddcc:	ebffe9cf 	bl	8510 <PUT32>
    ddd0:	e5940000 	ldr	r0, [r4]
    ddd4:	e2800981 	add	r0, r0, #2113536	; 0x204000
    ddd8:	ebffe9ce 	bl	8518 <GET32>
    dddc:	e3100701 	tst	r0, #262144	; 0x40000
    dde0:	0afffffa 	beq	ddd0 <glcd_fillRectangle+0x854>
    dde4:	e5940000 	ldr	r0, [r4]
    dde8:	e3a0102b 	mov	r1, #43	; 0x2b
    ddec:	e2800981 	add	r0, r0, #2113536	; 0x204000
    ddf0:	e2800004 	add	r0, r0, #4
    ddf4:	ebffe9c5 	bl	8510 <PUT32>
    ddf8:	e5940000 	ldr	r0, [r4]
    ddfc:	e2800981 	add	r0, r0, #2113536	; 0x204000
    de00:	ebffe9c4 	bl	8518 <GET32>
    de04:	e3100801 	tst	r0, #65536	; 0x10000
    de08:	0afffffa 	beq	ddf8 <glcd_fillRectangle+0x87c>
    de0c:	e5940000 	ldr	r0, [r4]
    de10:	e3a01000 	mov	r1, #0
    de14:	e2800981 	add	r0, r0, #2113536	; 0x204000
    de18:	ebffe9bc 	bl	8510 <PUT32>
    de1c:	e3a01001 	mov	r1, #1
    de20:	e3a00019 	mov	r0, #25
    de24:	ebffeb02 	bl	8a34 <gpio_output>
    de28:	e5940000 	ldr	r0, [r4]
    de2c:	e3a010b0 	mov	r1, #176	; 0xb0
    de30:	e2800981 	add	r0, r0, #2113536	; 0x204000
    de34:	e1a0b428 	lsr	fp, r8, #8
    de38:	e6ef8078 	uxtb	r8, r8
    de3c:	ebffe9b3 	bl	8510 <PUT32>
    de40:	e5940000 	ldr	r0, [r4]
    de44:	e2800981 	add	r0, r0, #2113536	; 0x204000
    de48:	ebffe9b2 	bl	8518 <GET32>
    de4c:	e3100701 	tst	r0, #262144	; 0x40000
    de50:	0afffffa 	beq	de40 <glcd_fillRectangle+0x8c4>
    de54:	e5940000 	ldr	r0, [r4]
    de58:	e1a0100b 	mov	r1, fp
    de5c:	e2800981 	add	r0, r0, #2113536	; 0x204000
    de60:	e2800004 	add	r0, r0, #4
    de64:	ebffe9a9 	bl	8510 <PUT32>
    de68:	e5940000 	ldr	r0, [r4]
    de6c:	e2800981 	add	r0, r0, #2113536	; 0x204000
    de70:	ebffe9a8 	bl	8518 <GET32>
    de74:	e3100801 	tst	r0, #65536	; 0x10000
    de78:	0afffffa 	beq	de68 <glcd_fillRectangle+0x8ec>
    de7c:	e5940000 	ldr	r0, [r4]
    de80:	e3a01000 	mov	r1, #0
    de84:	e2800981 	add	r0, r0, #2113536	; 0x204000
    de88:	ebffe9a0 	bl	8510 <PUT32>
    de8c:	e3a01001 	mov	r1, #1
    de90:	e3a00019 	mov	r0, #25
    de94:	ebffeae6 	bl	8a34 <gpio_output>
    de98:	e5940000 	ldr	r0, [r4]
    de9c:	e3a010b0 	mov	r1, #176	; 0xb0
    dea0:	e2800981 	add	r0, r0, #2113536	; 0x204000
    dea4:	ebffe999 	bl	8510 <PUT32>
    dea8:	e5940000 	ldr	r0, [r4]
    deac:	e2800981 	add	r0, r0, #2113536	; 0x204000
    deb0:	ebffe998 	bl	8518 <GET32>
    deb4:	e3100701 	tst	r0, #262144	; 0x40000
    deb8:	0afffffa 	beq	dea8 <glcd_fillRectangle+0x92c>
    debc:	e5940000 	ldr	r0, [r4]
    dec0:	e1a01008 	mov	r1, r8
    dec4:	e2800981 	add	r0, r0, #2113536	; 0x204000
    dec8:	e2800004 	add	r0, r0, #4
    decc:	ebffe98f 	bl	8510 <PUT32>
    ded0:	e5940000 	ldr	r0, [r4]
    ded4:	e2800981 	add	r0, r0, #2113536	; 0x204000
    ded8:	ebffe98e 	bl	8518 <GET32>
    dedc:	e3100801 	tst	r0, #65536	; 0x10000
    dee0:	0afffffa 	beq	ded0 <glcd_fillRectangle+0x954>
    dee4:	e5940000 	ldr	r0, [r4]
    dee8:	e3a01000 	mov	r1, #0
    deec:	e2800981 	add	r0, r0, #2113536	; 0x204000
    def0:	ebffe986 	bl	8510 <PUT32>
    def4:	e3a01001 	mov	r1, #1
    def8:	e3a00019 	mov	r0, #25
    defc:	ebffeacc 	bl	8a34 <gpio_output>
    df00:	e5940000 	ldr	r0, [r4]
    df04:	e3a010b0 	mov	r1, #176	; 0xb0
    df08:	e2800981 	add	r0, r0, #2113536	; 0x204000
    df0c:	e1a08427 	lsr	r8, r7, #8
    df10:	e6ef7077 	uxtb	r7, r7
    df14:	ebffe97d 	bl	8510 <PUT32>
    df18:	e5940000 	ldr	r0, [r4]
    df1c:	e2800981 	add	r0, r0, #2113536	; 0x204000
    df20:	ebffe97c 	bl	8518 <GET32>
    df24:	e3100701 	tst	r0, #262144	; 0x40000
    df28:	0afffffa 	beq	df18 <glcd_fillRectangle+0x99c>
    df2c:	e5940000 	ldr	r0, [r4]
    df30:	e1a01008 	mov	r1, r8
    df34:	e2800981 	add	r0, r0, #2113536	; 0x204000
    df38:	e2800004 	add	r0, r0, #4
    df3c:	ebffe973 	bl	8510 <PUT32>
    df40:	e5940000 	ldr	r0, [r4]
    df44:	e2800981 	add	r0, r0, #2113536	; 0x204000
    df48:	ebffe972 	bl	8518 <GET32>
    df4c:	e3100801 	tst	r0, #65536	; 0x10000
    df50:	0afffffa 	beq	df40 <glcd_fillRectangle+0x9c4>
    df54:	e5940000 	ldr	r0, [r4]
    df58:	e3a01000 	mov	r1, #0
    df5c:	e2800981 	add	r0, r0, #2113536	; 0x204000
    df60:	ebffe96a 	bl	8510 <PUT32>
    df64:	e3a01001 	mov	r1, #1
    df68:	e3a00019 	mov	r0, #25
    df6c:	ebffeab0 	bl	8a34 <gpio_output>
    df70:	e5940000 	ldr	r0, [r4]
    df74:	e3a010b0 	mov	r1, #176	; 0xb0
    df78:	e2800981 	add	r0, r0, #2113536	; 0x204000
    df7c:	ebffe963 	bl	8510 <PUT32>
    df80:	e5940000 	ldr	r0, [r4]
    df84:	e2800981 	add	r0, r0, #2113536	; 0x204000
    df88:	ebffe962 	bl	8518 <GET32>
    df8c:	e3100701 	tst	r0, #262144	; 0x40000
    df90:	0afffffa 	beq	df80 <glcd_fillRectangle+0xa04>
    df94:	e5940000 	ldr	r0, [r4]
    df98:	e1a01007 	mov	r1, r7
    df9c:	e2800981 	add	r0, r0, #2113536	; 0x204000
    dfa0:	e2800004 	add	r0, r0, #4
    dfa4:	ebffe959 	bl	8510 <PUT32>
    dfa8:	e5940000 	ldr	r0, [r4]
    dfac:	e2800981 	add	r0, r0, #2113536	; 0x204000
    dfb0:	ebffe958 	bl	8518 <GET32>
    dfb4:	e3100801 	tst	r0, #65536	; 0x10000
    dfb8:	0afffffa 	beq	dfa8 <glcd_fillRectangle+0xa2c>
    dfbc:	e5940000 	ldr	r0, [r4]
    dfc0:	e3a01000 	mov	r1, #0
    dfc4:	e2800981 	add	r0, r0, #2113536	; 0x204000
    dfc8:	ebffe950 	bl	8510 <PUT32>
    dfcc:	e3a01000 	mov	r1, #0
    dfd0:	e3a00019 	mov	r0, #25
    dfd4:	ebffea96 	bl	8a34 <gpio_output>
    dfd8:	e5940000 	ldr	r0, [r4]
    dfdc:	e3a010b0 	mov	r1, #176	; 0xb0
    dfe0:	e2800981 	add	r0, r0, #2113536	; 0x204000
    dfe4:	ebffe949 	bl	8510 <PUT32>
    dfe8:	e5940000 	ldr	r0, [r4]
    dfec:	e2800981 	add	r0, r0, #2113536	; 0x204000
    dff0:	ebffe948 	bl	8518 <GET32>
    dff4:	e3100701 	tst	r0, #262144	; 0x40000
    dff8:	0afffffa 	beq	dfe8 <glcd_fillRectangle+0xa6c>
    dffc:	e5940000 	ldr	r0, [r4]
    e000:	e3a0102c 	mov	r1, #44	; 0x2c
    e004:	e2800981 	add	r0, r0, #2113536	; 0x204000
    e008:	e2800004 	add	r0, r0, #4
    e00c:	ebffe93f 	bl	8510 <PUT32>
    e010:	e5940000 	ldr	r0, [r4]
    e014:	e2800981 	add	r0, r0, #2113536	; 0x204000
    e018:	ebffe93e 	bl	8518 <GET32>
    e01c:	e3100801 	tst	r0, #65536	; 0x10000
    e020:	0afffffa 	beq	e010 <glcd_fillRectangle+0xa94>
    e024:	e5940000 	ldr	r0, [r4]
    e028:	e3a01000 	mov	r1, #0
    e02c:	e2800981 	add	r0, r0, #2113536	; 0x204000
    e030:	ebffe936 	bl	8510 <PUT32>
    e034:	e3560000 	cmp	r6, #0
    e038:	0afffd67 	beq	d5dc <glcd_fillRectangle+0x60>
    e03c:	e3a07000 	mov	r7, #0
    e040:	e5dd8010 	ldrb	r8, [sp, #16]
    e044:	e3a01001 	mov	r1, #1
    e048:	e3a00019 	mov	r0, #25
    e04c:	ebffea78 	bl	8a34 <gpio_output>
    e050:	e5940000 	ldr	r0, [r4]
    e054:	e3a010b0 	mov	r1, #176	; 0xb0
    e058:	e2800981 	add	r0, r0, #2113536	; 0x204000
    e05c:	ebffe92b 	bl	8510 <PUT32>
    e060:	e5940000 	ldr	r0, [r4]
    e064:	e2800981 	add	r0, r0, #2113536	; 0x204000
    e068:	ebffe92a 	bl	8518 <GET32>
    e06c:	e3100701 	tst	r0, #262144	; 0x40000
    e070:	0afffffa 	beq	e060 <glcd_fillRectangle+0xae4>
    e074:	e5940000 	ldr	r0, [r4]
    e078:	e1a01009 	mov	r1, r9
    e07c:	e2800981 	add	r0, r0, #2113536	; 0x204000
    e080:	e2800004 	add	r0, r0, #4
    e084:	ebffe921 	bl	8510 <PUT32>
    e088:	e5940000 	ldr	r0, [r4]
    e08c:	e2800981 	add	r0, r0, #2113536	; 0x204000
    e090:	ebffe920 	bl	8518 <GET32>
    e094:	e3100801 	tst	r0, #65536	; 0x10000
    e098:	0afffffa 	beq	e088 <glcd_fillRectangle+0xb0c>
    e09c:	e5940000 	ldr	r0, [r4]
    e0a0:	e3a01000 	mov	r1, #0
    e0a4:	e2800981 	add	r0, r0, #2113536	; 0x204000
    e0a8:	ebffe918 	bl	8510 <PUT32>
    e0ac:	e3a01001 	mov	r1, #1
    e0b0:	e3a00019 	mov	r0, #25
    e0b4:	ebffea5e 	bl	8a34 <gpio_output>
    e0b8:	e5940000 	ldr	r0, [r4]
    e0bc:	e3a010b0 	mov	r1, #176	; 0xb0
    e0c0:	e2800981 	add	r0, r0, #2113536	; 0x204000
    e0c4:	ebffe911 	bl	8510 <PUT32>
    e0c8:	e5940000 	ldr	r0, [r4]
    e0cc:	e2800981 	add	r0, r0, #2113536	; 0x204000
    e0d0:	ebffe910 	bl	8518 <GET32>
    e0d4:	e3100701 	tst	r0, #262144	; 0x40000
    e0d8:	0afffffa 	beq	e0c8 <glcd_fillRectangle+0xb4c>
    e0dc:	e5940000 	ldr	r0, [r4]
    e0e0:	e1a01008 	mov	r1, r8
    e0e4:	e2800981 	add	r0, r0, #2113536	; 0x204000
    e0e8:	e2800004 	add	r0, r0, #4
    e0ec:	ebffe907 	bl	8510 <PUT32>
    e0f0:	e5940000 	ldr	r0, [r4]
    e0f4:	e2800981 	add	r0, r0, #2113536	; 0x204000
    e0f8:	ebffe906 	bl	8518 <GET32>
    e0fc:	e3100801 	tst	r0, #65536	; 0x10000
    e100:	0afffffa 	beq	e0f0 <glcd_fillRectangle+0xb74>
    e104:	e5940000 	ldr	r0, [r4]
    e108:	e2877001 	add	r7, r7, #1
    e10c:	e2800981 	add	r0, r0, #2113536	; 0x204000
    e110:	e3a01000 	mov	r1, #0
    e114:	ebffe8fd 	bl	8510 <PUT32>
    e118:	e1570006 	cmp	r7, r6
    e11c:	1affffc8 	bne	e044 <glcd_fillRectangle+0xac8>
    e120:	eafffd2d 	b	d5dc <glcd_fillRectangle+0x60>
    e124:	0001d8c8 	.word	0x0001d8c8
    e128:	0001b88c 	.word	0x0001b88c

0000e12c <CvtBmpLine>:
    e12c:	e3510018 	cmp	r1, #24
    e130:	e92d4010 	push	{r4, lr}
    e134:	0a000016 	beq	e194 <CvtBmpLine+0x68>
    e138:	e3500000 	cmp	r0, #0
    e13c:	08bd8010 	popeq	{r4, pc}
    e140:	e2400001 	sub	r0, r0, #1
    e144:	e6ff0070 	uxth	r0, r0
    e148:	e2800001 	add	r0, r0, #1
    e14c:	e1a0c003 	mov	ip, r3
    e150:	e0833080 	add	r3, r3, r0, lsl #1
    e154:	e2822004 	add	r2, r2, #4
    e158:	e552e003 	ldrb	lr, [r2, #-3]
    e15c:	e5520004 	ldrb	r0, [r2, #-4]
    e160:	e5521002 	ldrb	r1, [r2, #-2]
    e164:	e1a0e12e 	lsr	lr, lr, #2
    e168:	e20e4007 	and	r4, lr, #7
    e16c:	e1a001a0 	lsr	r0, r0, #3
    e170:	e20110f8 	and	r1, r1, #248	; 0xf8
    e174:	e1800284 	orr	r0, r0, r4, lsl #5
    e178:	e18111ae 	orr	r1, r1, lr, lsr #3
    e17c:	e5cc0000 	strb	r0, [ip]
    e180:	e5cc1001 	strb	r1, [ip, #1]
    e184:	e28cc002 	add	ip, ip, #2
    e188:	e15c0003 	cmp	ip, r3
    e18c:	1afffff0 	bne	e154 <CvtBmpLine+0x28>
    e190:	e8bd8010 	pop	{r4, pc}
    e194:	e3500000 	cmp	r0, #0
    e198:	08bd8010 	popeq	{r4, pc}
    e19c:	e2400001 	sub	r0, r0, #1
    e1a0:	e6ff0070 	uxth	r0, r0
    e1a4:	e2800001 	add	r0, r0, #1
    e1a8:	e1a0c003 	mov	ip, r3
    e1ac:	e0833080 	add	r3, r3, r0, lsl #1
    e1b0:	e2822003 	add	r2, r2, #3
    e1b4:	e552e002 	ldrb	lr, [r2, #-2]
    e1b8:	e5520003 	ldrb	r0, [r2, #-3]
    e1bc:	e5521001 	ldrb	r1, [r2, #-1]
    e1c0:	e1a0e12e 	lsr	lr, lr, #2
    e1c4:	e20e4007 	and	r4, lr, #7
    e1c8:	e1a001a0 	lsr	r0, r0, #3
    e1cc:	e20110f8 	and	r1, r1, #248	; 0xf8
    e1d0:	e1800284 	orr	r0, r0, r4, lsl #5
    e1d4:	e18111ae 	orr	r1, r1, lr, lsr #3
    e1d8:	e5cc0000 	strb	r0, [ip]
    e1dc:	e5cc1001 	strb	r1, [ip, #1]
    e1e0:	e28cc002 	add	ip, ip, #2
    e1e4:	e15c0003 	cmp	ip, r3
    e1e8:	1afffff0 	bne	e1b0 <CvtBmpLine+0x84>
    e1ec:	e8bd8010 	pop	{r4, pc}

0000e1f0 <DisplayBitmap>:
    e1f0:	e52de004 	push	{lr}		; (str lr, [sp, #-4]!)
    e1f4:	e5d23000 	ldrb	r3, [r2]
    e1f8:	e5d2e001 	ldrb	lr, [r2, #1]
    e1fc:	e59fc010 	ldr	ip, [pc, #16]	; e214 <DisplayBitmap+0x24>
    e200:	e183340e 	orr	r3, r3, lr, lsl #8
    e204:	e153000c 	cmp	r3, ip
    e208:	149df004 	popne	{pc}		; (ldrne pc, [sp], #4)
    e20c:	e49de004 	pop	{lr}		; (ldr lr, [sp], #4)
    e210:	eafff6ae 	b	bcd0 <DisplayBitmap.part.2>
    e214:	00004d42 	.word	0x00004d42

0000e218 <spi_init>:
    e218:	e92d4ff0 	push	{r4, r5, r6, r7, r8, r9, sl, fp, lr}
    e21c:	e59f4f0c 	ldr	r4, [pc, #3852]	; f130 <spi_init+0xf18>
    e220:	e59f5f0c 	ldr	r5, [pc, #3852]	; f134 <spi_init+0xf1c>
    e224:	e5940000 	ldr	r0, [r4]
    e228:	e24dd01c 	sub	sp, sp, #28
    e22c:	e0800005 	add	r0, r0, r5
    e230:	ebffe8b8 	bl	8518 <GET32>
    e234:	e5943000 	ldr	r3, [r4]
    e238:	e3801002 	orr	r1, r0, #2
    e23c:	e0830005 	add	r0, r3, r5
    e240:	ebffe8b2 	bl	8510 <PUT32>
    e244:	e3a01004 	mov	r1, #4
    e248:	e3a00009 	mov	r0, #9
    e24c:	ebffe9e0 	bl	89d4 <gpio_setup>
    e250:	e3a01004 	mov	r1, #4
    e254:	e3a00008 	mov	r0, #8
    e258:	ebffe9dd 	bl	89d4 <gpio_setup>
    e25c:	e3a01004 	mov	r1, #4
    e260:	e3a00007 	mov	r0, #7
    e264:	ebffe9da 	bl	89d4 <gpio_setup>
    e268:	e3a01004 	mov	r1, #4
    e26c:	e3a0000a 	mov	r0, #10
    e270:	ebffe9d7 	bl	89d4 <gpio_setup>
    e274:	e3a01004 	mov	r1, #4
    e278:	e3a0000b 	mov	r0, #11
    e27c:	ebffe9d4 	bl	89d4 <gpio_setup>
    e280:	e3a01001 	mov	r1, #1
    e284:	e3a00019 	mov	r0, #25
    e288:	ebffe9d1 	bl	89d4 <gpio_setup>
    e28c:	e5940000 	ldr	r0, [r4]
    e290:	e3a01030 	mov	r1, #48	; 0x30
    e294:	e2800981 	add	r0, r0, #2113536	; 0x204000
    e298:	ebffe89c 	bl	8510 <PUT32>
    e29c:	e5940000 	ldr	r0, [r4]
    e2a0:	e3a01020 	mov	r1, #32
    e2a4:	e2800981 	add	r0, r0, #2113536	; 0x204000
    e2a8:	e2800008 	add	r0, r0, #8
    e2ac:	ebffe897 	bl	8510 <PUT32>
    e2b0:	e3a01001 	mov	r1, #1
    e2b4:	e3a00019 	mov	r0, #25
    e2b8:	ebffe9dd 	bl	8a34 <gpio_output>
    e2bc:	e3a01000 	mov	r1, #0
    e2c0:	e3a00007 	mov	r0, #7
    e2c4:	ebffe9da 	bl	8a34 <gpio_output>
    e2c8:	e59f0e68 	ldr	r0, [pc, #3688]	; f138 <spi_init+0xf20>
    e2cc:	e3a01000 	mov	r1, #0
    e2d0:	ebffea89 	bl	8cfc <timer_wait>
    e2d4:	e3a01001 	mov	r1, #1
    e2d8:	e3a00007 	mov	r0, #7
    e2dc:	ebffe9d4 	bl	8a34 <gpio_output>
    e2e0:	e3a01000 	mov	r1, #0
    e2e4:	e3a00019 	mov	r0, #25
    e2e8:	ebffe9d1 	bl	8a34 <gpio_output>
    e2ec:	e5940000 	ldr	r0, [r4]
    e2f0:	e3a010b0 	mov	r1, #176	; 0xb0
    e2f4:	e2800981 	add	r0, r0, #2113536	; 0x204000
    e2f8:	ebffe884 	bl	8510 <PUT32>
    e2fc:	e5940000 	ldr	r0, [r4]
    e300:	e2800981 	add	r0, r0, #2113536	; 0x204000
    e304:	ebffe883 	bl	8518 <GET32>
    e308:	e3100701 	tst	r0, #262144	; 0x40000
    e30c:	0afffffa 	beq	e2fc <spi_init+0xe4>
    e310:	e5940000 	ldr	r0, [r4]
    e314:	e3a010cb 	mov	r1, #203	; 0xcb
    e318:	e2800981 	add	r0, r0, #2113536	; 0x204000
    e31c:	e2800004 	add	r0, r0, #4
    e320:	ebffe87a 	bl	8510 <PUT32>
    e324:	e5940000 	ldr	r0, [r4]
    e328:	e2800981 	add	r0, r0, #2113536	; 0x204000
    e32c:	ebffe879 	bl	8518 <GET32>
    e330:	e3100801 	tst	r0, #65536	; 0x10000
    e334:	0afffffa 	beq	e324 <spi_init+0x10c>
    e338:	e5940000 	ldr	r0, [r4]
    e33c:	e3a01000 	mov	r1, #0
    e340:	e2800981 	add	r0, r0, #2113536	; 0x204000
    e344:	ebffe871 	bl	8510 <PUT32>
    e348:	e3a00039 	mov	r0, #57	; 0x39
    e34c:	ebfff640 	bl	bc54 <spi_one_byte.constprop.6>
    e350:	e3a0002c 	mov	r0, #44	; 0x2c
    e354:	ebfff63e 	bl	bc54 <spi_one_byte.constprop.6>
    e358:	e3a00000 	mov	r0, #0
    e35c:	ebfff63c 	bl	bc54 <spi_one_byte.constprop.6>
    e360:	e3a00034 	mov	r0, #52	; 0x34
    e364:	ebfff63a 	bl	bc54 <spi_one_byte.constprop.6>
    e368:	e3a00002 	mov	r0, #2
    e36c:	ebfff638 	bl	bc54 <spi_one_byte.constprop.6>
    e370:	e3a01000 	mov	r1, #0
    e374:	e3a00019 	mov	r0, #25
    e378:	ebffe9ad 	bl	8a34 <gpio_output>
    e37c:	e5940000 	ldr	r0, [r4]
    e380:	e3a010b0 	mov	r1, #176	; 0xb0
    e384:	e2800981 	add	r0, r0, #2113536	; 0x204000
    e388:	ebffe860 	bl	8510 <PUT32>
    e38c:	e5940000 	ldr	r0, [r4]
    e390:	e2800981 	add	r0, r0, #2113536	; 0x204000
    e394:	ebffe85f 	bl	8518 <GET32>
    e398:	e3100701 	tst	r0, #262144	; 0x40000
    e39c:	0afffffa 	beq	e38c <spi_init+0x174>
    e3a0:	e5940000 	ldr	r0, [r4]
    e3a4:	e3a010cf 	mov	r1, #207	; 0xcf
    e3a8:	e2800981 	add	r0, r0, #2113536	; 0x204000
    e3ac:	e2800004 	add	r0, r0, #4
    e3b0:	ebffe856 	bl	8510 <PUT32>
    e3b4:	e5940000 	ldr	r0, [r4]
    e3b8:	e2800981 	add	r0, r0, #2113536	; 0x204000
    e3bc:	ebffe855 	bl	8518 <GET32>
    e3c0:	e3100801 	tst	r0, #65536	; 0x10000
    e3c4:	0afffffa 	beq	e3b4 <spi_init+0x19c>
    e3c8:	e5940000 	ldr	r0, [r4]
    e3cc:	e3a01000 	mov	r1, #0
    e3d0:	e2800981 	add	r0, r0, #2113536	; 0x204000
    e3d4:	ebffe84d 	bl	8510 <PUT32>
    e3d8:	e3a00000 	mov	r0, #0
    e3dc:	ebfff61c 	bl	bc54 <spi_one_byte.constprop.6>
    e3e0:	e3a000c1 	mov	r0, #193	; 0xc1
    e3e4:	ebfff61a 	bl	bc54 <spi_one_byte.constprop.6>
    e3e8:	e3a00030 	mov	r0, #48	; 0x30
    e3ec:	ebfff618 	bl	bc54 <spi_one_byte.constprop.6>
    e3f0:	e3a01000 	mov	r1, #0
    e3f4:	e3a00019 	mov	r0, #25
    e3f8:	ebffe98d 	bl	8a34 <gpio_output>
    e3fc:	e5940000 	ldr	r0, [r4]
    e400:	e3a010b0 	mov	r1, #176	; 0xb0
    e404:	e2800981 	add	r0, r0, #2113536	; 0x204000
    e408:	ebffe840 	bl	8510 <PUT32>
    e40c:	e5940000 	ldr	r0, [r4]
    e410:	e2800981 	add	r0, r0, #2113536	; 0x204000
    e414:	ebffe83f 	bl	8518 <GET32>
    e418:	e3100701 	tst	r0, #262144	; 0x40000
    e41c:	0afffffa 	beq	e40c <spi_init+0x1f4>
    e420:	e5940000 	ldr	r0, [r4]
    e424:	e3a010e8 	mov	r1, #232	; 0xe8
    e428:	e2800981 	add	r0, r0, #2113536	; 0x204000
    e42c:	e2800004 	add	r0, r0, #4
    e430:	ebffe836 	bl	8510 <PUT32>
    e434:	e5940000 	ldr	r0, [r4]
    e438:	e2800981 	add	r0, r0, #2113536	; 0x204000
    e43c:	ebffe835 	bl	8518 <GET32>
    e440:	e3100801 	tst	r0, #65536	; 0x10000
    e444:	0afffffa 	beq	e434 <spi_init+0x21c>
    e448:	e5940000 	ldr	r0, [r4]
    e44c:	e3a01000 	mov	r1, #0
    e450:	e2800981 	add	r0, r0, #2113536	; 0x204000
    e454:	ebffe82d 	bl	8510 <PUT32>
    e458:	e3a00085 	mov	r0, #133	; 0x85
    e45c:	ebfff5fc 	bl	bc54 <spi_one_byte.constprop.6>
    e460:	e3a00000 	mov	r0, #0
    e464:	ebfff5fa 	bl	bc54 <spi_one_byte.constprop.6>
    e468:	e3a00078 	mov	r0, #120	; 0x78
    e46c:	ebfff5f8 	bl	bc54 <spi_one_byte.constprop.6>
    e470:	e3a01000 	mov	r1, #0
    e474:	e3a00019 	mov	r0, #25
    e478:	ebffe96d 	bl	8a34 <gpio_output>
    e47c:	e5940000 	ldr	r0, [r4]
    e480:	e3a010b0 	mov	r1, #176	; 0xb0
    e484:	e2800981 	add	r0, r0, #2113536	; 0x204000
    e488:	ebffe820 	bl	8510 <PUT32>
    e48c:	e5940000 	ldr	r0, [r4]
    e490:	e2800981 	add	r0, r0, #2113536	; 0x204000
    e494:	ebffe81f 	bl	8518 <GET32>
    e498:	e3100701 	tst	r0, #262144	; 0x40000
    e49c:	0afffffa 	beq	e48c <spi_init+0x274>
    e4a0:	e5940000 	ldr	r0, [r4]
    e4a4:	e3a010ea 	mov	r1, #234	; 0xea
    e4a8:	e2800981 	add	r0, r0, #2113536	; 0x204000
    e4ac:	e2800004 	add	r0, r0, #4
    e4b0:	ebffe816 	bl	8510 <PUT32>
    e4b4:	e5940000 	ldr	r0, [r4]
    e4b8:	e2800981 	add	r0, r0, #2113536	; 0x204000
    e4bc:	ebffe815 	bl	8518 <GET32>
    e4c0:	e3100801 	tst	r0, #65536	; 0x10000
    e4c4:	0afffffa 	beq	e4b4 <spi_init+0x29c>
    e4c8:	e5940000 	ldr	r0, [r4]
    e4cc:	e3a01000 	mov	r1, #0
    e4d0:	e2800981 	add	r0, r0, #2113536	; 0x204000
    e4d4:	ebffe80d 	bl	8510 <PUT32>
    e4d8:	e3a00000 	mov	r0, #0
    e4dc:	ebfff5dc 	bl	bc54 <spi_one_byte.constprop.6>
    e4e0:	e3a00000 	mov	r0, #0
    e4e4:	ebfff5da 	bl	bc54 <spi_one_byte.constprop.6>
    e4e8:	e3a01000 	mov	r1, #0
    e4ec:	e3a00019 	mov	r0, #25
    e4f0:	ebffe94f 	bl	8a34 <gpio_output>
    e4f4:	e5940000 	ldr	r0, [r4]
    e4f8:	e3a010b0 	mov	r1, #176	; 0xb0
    e4fc:	e2800981 	add	r0, r0, #2113536	; 0x204000
    e500:	ebffe802 	bl	8510 <PUT32>
    e504:	e5940000 	ldr	r0, [r4]
    e508:	e2800981 	add	r0, r0, #2113536	; 0x204000
    e50c:	ebffe801 	bl	8518 <GET32>
    e510:	e3100701 	tst	r0, #262144	; 0x40000
    e514:	0afffffa 	beq	e504 <spi_init+0x2ec>
    e518:	e5940000 	ldr	r0, [r4]
    e51c:	e3a010ed 	mov	r1, #237	; 0xed
    e520:	e2800981 	add	r0, r0, #2113536	; 0x204000
    e524:	e2800004 	add	r0, r0, #4
    e528:	ebffe7f8 	bl	8510 <PUT32>
    e52c:	e5940000 	ldr	r0, [r4]
    e530:	e2800981 	add	r0, r0, #2113536	; 0x204000
    e534:	ebffe7f7 	bl	8518 <GET32>
    e538:	e3100801 	tst	r0, #65536	; 0x10000
    e53c:	0afffffa 	beq	e52c <spi_init+0x314>
    e540:	e5940000 	ldr	r0, [r4]
    e544:	e3a01000 	mov	r1, #0
    e548:	e2800981 	add	r0, r0, #2113536	; 0x204000
    e54c:	ebffe7ef 	bl	8510 <PUT32>
    e550:	e3a00064 	mov	r0, #100	; 0x64
    e554:	ebfff5be 	bl	bc54 <spi_one_byte.constprop.6>
    e558:	e3a00003 	mov	r0, #3
    e55c:	ebfff5bc 	bl	bc54 <spi_one_byte.constprop.6>
    e560:	e3a00012 	mov	r0, #18
    e564:	ebfff5ba 	bl	bc54 <spi_one_byte.constprop.6>
    e568:	e3a00081 	mov	r0, #129	; 0x81
    e56c:	ebfff5b8 	bl	bc54 <spi_one_byte.constprop.6>
    e570:	e3a01000 	mov	r1, #0
    e574:	e3a00019 	mov	r0, #25
    e578:	ebffe92d 	bl	8a34 <gpio_output>
    e57c:	e5940000 	ldr	r0, [r4]
    e580:	e3a010b0 	mov	r1, #176	; 0xb0
    e584:	e2800981 	add	r0, r0, #2113536	; 0x204000
    e588:	ebffe7e0 	bl	8510 <PUT32>
    e58c:	e5940000 	ldr	r0, [r4]
    e590:	e2800981 	add	r0, r0, #2113536	; 0x204000
    e594:	ebffe7df 	bl	8518 <GET32>
    e598:	e3100701 	tst	r0, #262144	; 0x40000
    e59c:	0afffffa 	beq	e58c <spi_init+0x374>
    e5a0:	e5940000 	ldr	r0, [r4]
    e5a4:	e3a010f7 	mov	r1, #247	; 0xf7
    e5a8:	e2800981 	add	r0, r0, #2113536	; 0x204000
    e5ac:	e2800004 	add	r0, r0, #4
    e5b0:	ebffe7d6 	bl	8510 <PUT32>
    e5b4:	e5940000 	ldr	r0, [r4]
    e5b8:	e2800981 	add	r0, r0, #2113536	; 0x204000
    e5bc:	ebffe7d5 	bl	8518 <GET32>
    e5c0:	e3100801 	tst	r0, #65536	; 0x10000
    e5c4:	0afffffa 	beq	e5b4 <spi_init+0x39c>
    e5c8:	e5940000 	ldr	r0, [r4]
    e5cc:	e3a01000 	mov	r1, #0
    e5d0:	e2800981 	add	r0, r0, #2113536	; 0x204000
    e5d4:	ebffe7cd 	bl	8510 <PUT32>
    e5d8:	e3a00020 	mov	r0, #32
    e5dc:	ebfff59c 	bl	bc54 <spi_one_byte.constprop.6>
    e5e0:	e3a01000 	mov	r1, #0
    e5e4:	e3a00019 	mov	r0, #25
    e5e8:	ebffe911 	bl	8a34 <gpio_output>
    e5ec:	e5940000 	ldr	r0, [r4]
    e5f0:	e3a010b0 	mov	r1, #176	; 0xb0
    e5f4:	e2800981 	add	r0, r0, #2113536	; 0x204000
    e5f8:	ebffe7c4 	bl	8510 <PUT32>
    e5fc:	e5940000 	ldr	r0, [r4]
    e600:	e2800981 	add	r0, r0, #2113536	; 0x204000
    e604:	ebffe7c3 	bl	8518 <GET32>
    e608:	e3100701 	tst	r0, #262144	; 0x40000
    e60c:	0afffffa 	beq	e5fc <spi_init+0x3e4>
    e610:	e5940000 	ldr	r0, [r4]
    e614:	e3a010c0 	mov	r1, #192	; 0xc0
    e618:	e2800981 	add	r0, r0, #2113536	; 0x204000
    e61c:	e2800004 	add	r0, r0, #4
    e620:	ebffe7ba 	bl	8510 <PUT32>
    e624:	e5940000 	ldr	r0, [r4]
    e628:	e2800981 	add	r0, r0, #2113536	; 0x204000
    e62c:	ebffe7b9 	bl	8518 <GET32>
    e630:	e3100801 	tst	r0, #65536	; 0x10000
    e634:	0afffffa 	beq	e624 <spi_init+0x40c>
    e638:	e5940000 	ldr	r0, [r4]
    e63c:	e3a01000 	mov	r1, #0
    e640:	e2800981 	add	r0, r0, #2113536	; 0x204000
    e644:	ebffe7b1 	bl	8510 <PUT32>
    e648:	e3a00023 	mov	r0, #35	; 0x23
    e64c:	ebfff580 	bl	bc54 <spi_one_byte.constprop.6>
    e650:	e3a01000 	mov	r1, #0
    e654:	e3a00019 	mov	r0, #25
    e658:	ebffe8f5 	bl	8a34 <gpio_output>
    e65c:	e5940000 	ldr	r0, [r4]
    e660:	e3a010b0 	mov	r1, #176	; 0xb0
    e664:	e2800981 	add	r0, r0, #2113536	; 0x204000
    e668:	ebffe7a8 	bl	8510 <PUT32>
    e66c:	e5940000 	ldr	r0, [r4]
    e670:	e2800981 	add	r0, r0, #2113536	; 0x204000
    e674:	ebffe7a7 	bl	8518 <GET32>
    e678:	e3100701 	tst	r0, #262144	; 0x40000
    e67c:	0afffffa 	beq	e66c <spi_init+0x454>
    e680:	e5940000 	ldr	r0, [r4]
    e684:	e3a010c1 	mov	r1, #193	; 0xc1
    e688:	e2800981 	add	r0, r0, #2113536	; 0x204000
    e68c:	e2800004 	add	r0, r0, #4
    e690:	ebffe79e 	bl	8510 <PUT32>
    e694:	e5940000 	ldr	r0, [r4]
    e698:	e2800981 	add	r0, r0, #2113536	; 0x204000
    e69c:	ebffe79d 	bl	8518 <GET32>
    e6a0:	e3100801 	tst	r0, #65536	; 0x10000
    e6a4:	0afffffa 	beq	e694 <spi_init+0x47c>
    e6a8:	e5940000 	ldr	r0, [r4]
    e6ac:	e3a01000 	mov	r1, #0
    e6b0:	e2800981 	add	r0, r0, #2113536	; 0x204000
    e6b4:	ebffe795 	bl	8510 <PUT32>
    e6b8:	e3a01001 	mov	r1, #1
    e6bc:	e3a00019 	mov	r0, #25
    e6c0:	ebffe8db 	bl	8a34 <gpio_output>
    e6c4:	e5940000 	ldr	r0, [r4]
    e6c8:	e3a010b0 	mov	r1, #176	; 0xb0
    e6cc:	e2800981 	add	r0, r0, #2113536	; 0x204000
    e6d0:	ebffe78e 	bl	8510 <PUT32>
    e6d4:	e5940000 	ldr	r0, [r4]
    e6d8:	e2800981 	add	r0, r0, #2113536	; 0x204000
    e6dc:	ebffe78d 	bl	8518 <GET32>
    e6e0:	e3100701 	tst	r0, #262144	; 0x40000
    e6e4:	0afffffa 	beq	e6d4 <spi_init+0x4bc>
    e6e8:	e5940000 	ldr	r0, [r4]
    e6ec:	e3a01010 	mov	r1, #16
    e6f0:	e2800981 	add	r0, r0, #2113536	; 0x204000
    e6f4:	e2800004 	add	r0, r0, #4
    e6f8:	ebffe784 	bl	8510 <PUT32>
    e6fc:	e5940000 	ldr	r0, [r4]
    e700:	e2800981 	add	r0, r0, #2113536	; 0x204000
    e704:	ebffe783 	bl	8518 <GET32>
    e708:	e3100801 	tst	r0, #65536	; 0x10000
    e70c:	0afffffa 	beq	e6fc <spi_init+0x4e4>
    e710:	e5940000 	ldr	r0, [r4]
    e714:	e3a01000 	mov	r1, #0
    e718:	e2800981 	add	r0, r0, #2113536	; 0x204000
    e71c:	ebffe77b 	bl	8510 <PUT32>
    e720:	e3a01000 	mov	r1, #0
    e724:	e3a00019 	mov	r0, #25
    e728:	ebffe8c1 	bl	8a34 <gpio_output>
    e72c:	e5940000 	ldr	r0, [r4]
    e730:	e3a010b0 	mov	r1, #176	; 0xb0
    e734:	e2800981 	add	r0, r0, #2113536	; 0x204000
    e738:	ebffe774 	bl	8510 <PUT32>
    e73c:	e5940000 	ldr	r0, [r4]
    e740:	e2800981 	add	r0, r0, #2113536	; 0x204000
    e744:	ebffe773 	bl	8518 <GET32>
    e748:	e3100701 	tst	r0, #262144	; 0x40000
    e74c:	0afffffa 	beq	e73c <spi_init+0x524>
    e750:	e5940000 	ldr	r0, [r4]
    e754:	e3a010c5 	mov	r1, #197	; 0xc5
    e758:	e2800981 	add	r0, r0, #2113536	; 0x204000
    e75c:	e2800004 	add	r0, r0, #4
    e760:	ebffe76a 	bl	8510 <PUT32>
    e764:	e5940000 	ldr	r0, [r4]
    e768:	e2800981 	add	r0, r0, #2113536	; 0x204000
    e76c:	ebffe769 	bl	8518 <GET32>
    e770:	e3100801 	tst	r0, #65536	; 0x10000
    e774:	0afffffa 	beq	e764 <spi_init+0x54c>
    e778:	e5940000 	ldr	r0, [r4]
    e77c:	e3a01000 	mov	r1, #0
    e780:	e2800981 	add	r0, r0, #2113536	; 0x204000
    e784:	ebffe761 	bl	8510 <PUT32>
    e788:	e3a0003e 	mov	r0, #62	; 0x3e
    e78c:	ebfff530 	bl	bc54 <spi_one_byte.constprop.6>
    e790:	e3a00028 	mov	r0, #40	; 0x28
    e794:	ebfff52e 	bl	bc54 <spi_one_byte.constprop.6>
    e798:	e3a01000 	mov	r1, #0
    e79c:	e3a00019 	mov	r0, #25
    e7a0:	ebffe8a3 	bl	8a34 <gpio_output>
    e7a4:	e5940000 	ldr	r0, [r4]
    e7a8:	e3a010b0 	mov	r1, #176	; 0xb0
    e7ac:	e2800981 	add	r0, r0, #2113536	; 0x204000
    e7b0:	ebffe756 	bl	8510 <PUT32>
    e7b4:	e5940000 	ldr	r0, [r4]
    e7b8:	e2800981 	add	r0, r0, #2113536	; 0x204000
    e7bc:	ebffe755 	bl	8518 <GET32>
    e7c0:	e3100701 	tst	r0, #262144	; 0x40000
    e7c4:	0afffffa 	beq	e7b4 <spi_init+0x59c>
    e7c8:	e5940000 	ldr	r0, [r4]
    e7cc:	e3a010c7 	mov	r1, #199	; 0xc7
    e7d0:	e2800981 	add	r0, r0, #2113536	; 0x204000
    e7d4:	e2800004 	add	r0, r0, #4
    e7d8:	ebffe74c 	bl	8510 <PUT32>
    e7dc:	e5940000 	ldr	r0, [r4]
    e7e0:	e2800981 	add	r0, r0, #2113536	; 0x204000
    e7e4:	ebffe74b 	bl	8518 <GET32>
    e7e8:	e3100801 	tst	r0, #65536	; 0x10000
    e7ec:	0afffffa 	beq	e7dc <spi_init+0x5c4>
    e7f0:	e5940000 	ldr	r0, [r4]
    e7f4:	e3a01000 	mov	r1, #0
    e7f8:	e2800981 	add	r0, r0, #2113536	; 0x204000
    e7fc:	ebffe743 	bl	8510 <PUT32>
    e800:	e3a01001 	mov	r1, #1
    e804:	e3a00019 	mov	r0, #25
    e808:	ebffe889 	bl	8a34 <gpio_output>
    e80c:	e5940000 	ldr	r0, [r4]
    e810:	e3a010b0 	mov	r1, #176	; 0xb0
    e814:	e2800981 	add	r0, r0, #2113536	; 0x204000
    e818:	ebffe73c 	bl	8510 <PUT32>
    e81c:	e5940000 	ldr	r0, [r4]
    e820:	e2800981 	add	r0, r0, #2113536	; 0x204000
    e824:	ebffe73b 	bl	8518 <GET32>
    e828:	e3100701 	tst	r0, #262144	; 0x40000
    e82c:	0afffffa 	beq	e81c <spi_init+0x604>
    e830:	e5940000 	ldr	r0, [r4]
    e834:	e3a01086 	mov	r1, #134	; 0x86
    e838:	e2800981 	add	r0, r0, #2113536	; 0x204000
    e83c:	e2800004 	add	r0, r0, #4
    e840:	ebffe732 	bl	8510 <PUT32>
    e844:	e5940000 	ldr	r0, [r4]
    e848:	e2800981 	add	r0, r0, #2113536	; 0x204000
    e84c:	ebffe731 	bl	8518 <GET32>
    e850:	e3100801 	tst	r0, #65536	; 0x10000
    e854:	0afffffa 	beq	e844 <spi_init+0x62c>
    e858:	e5940000 	ldr	r0, [r4]
    e85c:	e3a01000 	mov	r1, #0
    e860:	e2800981 	add	r0, r0, #2113536	; 0x204000
    e864:	ebffe729 	bl	8510 <PUT32>
    e868:	e3a01000 	mov	r1, #0
    e86c:	e3a00019 	mov	r0, #25
    e870:	ebffe86f 	bl	8a34 <gpio_output>
    e874:	e5940000 	ldr	r0, [r4]
    e878:	e3a010b0 	mov	r1, #176	; 0xb0
    e87c:	e2800981 	add	r0, r0, #2113536	; 0x204000
    e880:	ebffe722 	bl	8510 <PUT32>
    e884:	e5940000 	ldr	r0, [r4]
    e888:	e2800981 	add	r0, r0, #2113536	; 0x204000
    e88c:	ebffe721 	bl	8518 <GET32>
    e890:	e3100701 	tst	r0, #262144	; 0x40000
    e894:	0afffffa 	beq	e884 <spi_init+0x66c>
    e898:	e5940000 	ldr	r0, [r4]
    e89c:	e3a01036 	mov	r1, #54	; 0x36
    e8a0:	e2800981 	add	r0, r0, #2113536	; 0x204000
    e8a4:	e2800004 	add	r0, r0, #4
    e8a8:	ebffe718 	bl	8510 <PUT32>
    e8ac:	e5940000 	ldr	r0, [r4]
    e8b0:	e2800981 	add	r0, r0, #2113536	; 0x204000
    e8b4:	ebffe717 	bl	8518 <GET32>
    e8b8:	e3100801 	tst	r0, #65536	; 0x10000
    e8bc:	0afffffa 	beq	e8ac <spi_init+0x694>
    e8c0:	e5940000 	ldr	r0, [r4]
    e8c4:	e3a01000 	mov	r1, #0
    e8c8:	e2800981 	add	r0, r0, #2113536	; 0x204000
    e8cc:	ebffe70f 	bl	8510 <PUT32>
    e8d0:	e3a01001 	mov	r1, #1
    e8d4:	e3a00019 	mov	r0, #25
    e8d8:	ebffe855 	bl	8a34 <gpio_output>
    e8dc:	e5940000 	ldr	r0, [r4]
    e8e0:	e3a010b0 	mov	r1, #176	; 0xb0
    e8e4:	e2800981 	add	r0, r0, #2113536	; 0x204000
    e8e8:	ebffe708 	bl	8510 <PUT32>
    e8ec:	e5940000 	ldr	r0, [r4]
    e8f0:	e2800981 	add	r0, r0, #2113536	; 0x204000
    e8f4:	ebffe707 	bl	8518 <GET32>
    e8f8:	e3100701 	tst	r0, #262144	; 0x40000
    e8fc:	0afffffa 	beq	e8ec <spi_init+0x6d4>
    e900:	e5940000 	ldr	r0, [r4]
    e904:	e3a01048 	mov	r1, #72	; 0x48
    e908:	e2800981 	add	r0, r0, #2113536	; 0x204000
    e90c:	e2800004 	add	r0, r0, #4
    e910:	ebffe6fe 	bl	8510 <PUT32>
    e914:	e5940000 	ldr	r0, [r4]
    e918:	e2800981 	add	r0, r0, #2113536	; 0x204000
    e91c:	ebffe6fd 	bl	8518 <GET32>
    e920:	e3100801 	tst	r0, #65536	; 0x10000
    e924:	0afffffa 	beq	e914 <spi_init+0x6fc>
    e928:	e5940000 	ldr	r0, [r4]
    e92c:	e3a01000 	mov	r1, #0
    e930:	e2800981 	add	r0, r0, #2113536	; 0x204000
    e934:	ebffe6f5 	bl	8510 <PUT32>
    e938:	e3a01000 	mov	r1, #0
    e93c:	e3a00019 	mov	r0, #25
    e940:	ebffe83b 	bl	8a34 <gpio_output>
    e944:	e5940000 	ldr	r0, [r4]
    e948:	e3a010b0 	mov	r1, #176	; 0xb0
    e94c:	e2800981 	add	r0, r0, #2113536	; 0x204000
    e950:	ebffe6ee 	bl	8510 <PUT32>
    e954:	e5940000 	ldr	r0, [r4]
    e958:	e2800981 	add	r0, r0, #2113536	; 0x204000
    e95c:	ebffe6ed 	bl	8518 <GET32>
    e960:	e3100701 	tst	r0, #262144	; 0x40000
    e964:	0afffffa 	beq	e954 <spi_init+0x73c>
    e968:	e5940000 	ldr	r0, [r4]
    e96c:	e3a0103a 	mov	r1, #58	; 0x3a
    e970:	e2800981 	add	r0, r0, #2113536	; 0x204000
    e974:	e2800004 	add	r0, r0, #4
    e978:	ebffe6e4 	bl	8510 <PUT32>
    e97c:	e5940000 	ldr	r0, [r4]
    e980:	e2800981 	add	r0, r0, #2113536	; 0x204000
    e984:	ebffe6e3 	bl	8518 <GET32>
    e988:	e3100801 	tst	r0, #65536	; 0x10000
    e98c:	0afffffa 	beq	e97c <spi_init+0x764>
    e990:	e5940000 	ldr	r0, [r4]
    e994:	e3a01000 	mov	r1, #0
    e998:	e2800981 	add	r0, r0, #2113536	; 0x204000
    e99c:	ebffe6db 	bl	8510 <PUT32>
    e9a0:	e3a01001 	mov	r1, #1
    e9a4:	e3a00019 	mov	r0, #25
    e9a8:	ebffe821 	bl	8a34 <gpio_output>
    e9ac:	e5940000 	ldr	r0, [r4]
    e9b0:	e3a010b0 	mov	r1, #176	; 0xb0
    e9b4:	e2800981 	add	r0, r0, #2113536	; 0x204000
    e9b8:	ebffe6d4 	bl	8510 <PUT32>
    e9bc:	e5940000 	ldr	r0, [r4]
    e9c0:	e2800981 	add	r0, r0, #2113536	; 0x204000
    e9c4:	ebffe6d3 	bl	8518 <GET32>
    e9c8:	e3100701 	tst	r0, #262144	; 0x40000
    e9cc:	0afffffa 	beq	e9bc <spi_init+0x7a4>
    e9d0:	e5940000 	ldr	r0, [r4]
    e9d4:	e3a01055 	mov	r1, #85	; 0x55
    e9d8:	e2800981 	add	r0, r0, #2113536	; 0x204000
    e9dc:	e2800004 	add	r0, r0, #4
    e9e0:	ebffe6ca 	bl	8510 <PUT32>
    e9e4:	e5940000 	ldr	r0, [r4]
    e9e8:	e2800981 	add	r0, r0, #2113536	; 0x204000
    e9ec:	ebffe6c9 	bl	8518 <GET32>
    e9f0:	e3100801 	tst	r0, #65536	; 0x10000
    e9f4:	0afffffa 	beq	e9e4 <spi_init+0x7cc>
    e9f8:	e5940000 	ldr	r0, [r4]
    e9fc:	e3a01000 	mov	r1, #0
    ea00:	e2800981 	add	r0, r0, #2113536	; 0x204000
    ea04:	ebffe6c1 	bl	8510 <PUT32>
    ea08:	e3a01000 	mov	r1, #0
    ea0c:	e3a00019 	mov	r0, #25
    ea10:	ebffe807 	bl	8a34 <gpio_output>
    ea14:	e5940000 	ldr	r0, [r4]
    ea18:	e3a010b0 	mov	r1, #176	; 0xb0
    ea1c:	e2800981 	add	r0, r0, #2113536	; 0x204000
    ea20:	ebffe6ba 	bl	8510 <PUT32>
    ea24:	e5940000 	ldr	r0, [r4]
    ea28:	e2800981 	add	r0, r0, #2113536	; 0x204000
    ea2c:	ebffe6b9 	bl	8518 <GET32>
    ea30:	e3100701 	tst	r0, #262144	; 0x40000
    ea34:	0afffffa 	beq	ea24 <spi_init+0x80c>
    ea38:	e5940000 	ldr	r0, [r4]
    ea3c:	e3a010b1 	mov	r1, #177	; 0xb1
    ea40:	e2800981 	add	r0, r0, #2113536	; 0x204000
    ea44:	e2800004 	add	r0, r0, #4
    ea48:	ebffe6b0 	bl	8510 <PUT32>
    ea4c:	e5940000 	ldr	r0, [r4]
    ea50:	e2800981 	add	r0, r0, #2113536	; 0x204000
    ea54:	ebffe6af 	bl	8518 <GET32>
    ea58:	e3100801 	tst	r0, #65536	; 0x10000
    ea5c:	0afffffa 	beq	ea4c <spi_init+0x834>
    ea60:	e5940000 	ldr	r0, [r4]
    ea64:	e3a01000 	mov	r1, #0
    ea68:	e2800981 	add	r0, r0, #2113536	; 0x204000
    ea6c:	ebffe6a7 	bl	8510 <PUT32>
    ea70:	e3a01001 	mov	r1, #1
    ea74:	e3a00019 	mov	r0, #25
    ea78:	ebffe7ed 	bl	8a34 <gpio_output>
    ea7c:	e5940000 	ldr	r0, [r4]
    ea80:	e3a010b0 	mov	r1, #176	; 0xb0
    ea84:	e2800981 	add	r0, r0, #2113536	; 0x204000
    ea88:	ebffe6a0 	bl	8510 <PUT32>
    ea8c:	e5940000 	ldr	r0, [r4]
    ea90:	e2800981 	add	r0, r0, #2113536	; 0x204000
    ea94:	ebffe69f 	bl	8518 <GET32>
    ea98:	e3100701 	tst	r0, #262144	; 0x40000
    ea9c:	0afffffa 	beq	ea8c <spi_init+0x874>
    eaa0:	e5940000 	ldr	r0, [r4]
    eaa4:	e3a01000 	mov	r1, #0
    eaa8:	e2800981 	add	r0, r0, #2113536	; 0x204000
    eaac:	e2800004 	add	r0, r0, #4
    eab0:	ebffe696 	bl	8510 <PUT32>
    eab4:	e5940000 	ldr	r0, [r4]
    eab8:	e2800981 	add	r0, r0, #2113536	; 0x204000
    eabc:	ebffe695 	bl	8518 <GET32>
    eac0:	e3100801 	tst	r0, #65536	; 0x10000
    eac4:	0afffffa 	beq	eab4 <spi_init+0x89c>
    eac8:	e5940000 	ldr	r0, [r4]
    eacc:	e3a01000 	mov	r1, #0
    ead0:	e2800981 	add	r0, r0, #2113536	; 0x204000
    ead4:	ebffe68d 	bl	8510 <PUT32>
    ead8:	e3a01001 	mov	r1, #1
    eadc:	e3a00019 	mov	r0, #25
    eae0:	ebffe7d3 	bl	8a34 <gpio_output>
    eae4:	e5940000 	ldr	r0, [r4]
    eae8:	e3a010b0 	mov	r1, #176	; 0xb0
    eaec:	e2800981 	add	r0, r0, #2113536	; 0x204000
    eaf0:	ebffe686 	bl	8510 <PUT32>
    eaf4:	e5940000 	ldr	r0, [r4]
    eaf8:	e2800981 	add	r0, r0, #2113536	; 0x204000
    eafc:	ebffe685 	bl	8518 <GET32>
    eb00:	e3100701 	tst	r0, #262144	; 0x40000
    eb04:	0afffffa 	beq	eaf4 <spi_init+0x8dc>
    eb08:	e5940000 	ldr	r0, [r4]
    eb0c:	e3a01018 	mov	r1, #24
    eb10:	e2800981 	add	r0, r0, #2113536	; 0x204000
    eb14:	e2800004 	add	r0, r0, #4
    eb18:	ebffe67c 	bl	8510 <PUT32>
    eb1c:	e5940000 	ldr	r0, [r4]
    eb20:	e2800981 	add	r0, r0, #2113536	; 0x204000
    eb24:	ebffe67b 	bl	8518 <GET32>
    eb28:	e3100801 	tst	r0, #65536	; 0x10000
    eb2c:	0afffffa 	beq	eb1c <spi_init+0x904>
    eb30:	e5940000 	ldr	r0, [r4]
    eb34:	e3a01000 	mov	r1, #0
    eb38:	e2800981 	add	r0, r0, #2113536	; 0x204000
    eb3c:	ebffe673 	bl	8510 <PUT32>
    eb40:	e3a01000 	mov	r1, #0
    eb44:	e3a00019 	mov	r0, #25
    eb48:	ebffe7b9 	bl	8a34 <gpio_output>
    eb4c:	e5940000 	ldr	r0, [r4]
    eb50:	e3a010b0 	mov	r1, #176	; 0xb0
    eb54:	e2800981 	add	r0, r0, #2113536	; 0x204000
    eb58:	ebffe66c 	bl	8510 <PUT32>
    eb5c:	e5940000 	ldr	r0, [r4]
    eb60:	e2800981 	add	r0, r0, #2113536	; 0x204000
    eb64:	ebffe66b 	bl	8518 <GET32>
    eb68:	e3100701 	tst	r0, #262144	; 0x40000
    eb6c:	0afffffa 	beq	eb5c <spi_init+0x944>
    eb70:	e5940000 	ldr	r0, [r4]
    eb74:	e3a010b6 	mov	r1, #182	; 0xb6
    eb78:	e2800981 	add	r0, r0, #2113536	; 0x204000
    eb7c:	e2800004 	add	r0, r0, #4
    eb80:	ebffe662 	bl	8510 <PUT32>
    eb84:	e5940000 	ldr	r0, [r4]
    eb88:	e2800981 	add	r0, r0, #2113536	; 0x204000
    eb8c:	ebffe661 	bl	8518 <GET32>
    eb90:	e3100801 	tst	r0, #65536	; 0x10000
    eb94:	0afffffa 	beq	eb84 <spi_init+0x96c>
    eb98:	e5940000 	ldr	r0, [r4]
    eb9c:	e3a01000 	mov	r1, #0
    eba0:	e2800981 	add	r0, r0, #2113536	; 0x204000
    eba4:	ebffe659 	bl	8510 <PUT32>
    eba8:	e3a01001 	mov	r1, #1
    ebac:	e3a00019 	mov	r0, #25
    ebb0:	ebffe79f 	bl	8a34 <gpio_output>
    ebb4:	e5940000 	ldr	r0, [r4]
    ebb8:	e3a010b0 	mov	r1, #176	; 0xb0
    ebbc:	e2800981 	add	r0, r0, #2113536	; 0x204000
    ebc0:	ebffe652 	bl	8510 <PUT32>
    ebc4:	e5940000 	ldr	r0, [r4]
    ebc8:	e2800981 	add	r0, r0, #2113536	; 0x204000
    ebcc:	ebffe651 	bl	8518 <GET32>
    ebd0:	e3100701 	tst	r0, #262144	; 0x40000
    ebd4:	0afffffa 	beq	ebc4 <spi_init+0x9ac>
    ebd8:	e5940000 	ldr	r0, [r4]
    ebdc:	e3a01008 	mov	r1, #8
    ebe0:	e2800981 	add	r0, r0, #2113536	; 0x204000
    ebe4:	e2800004 	add	r0, r0, #4
    ebe8:	ebffe648 	bl	8510 <PUT32>
    ebec:	e5940000 	ldr	r0, [r4]
    ebf0:	e2800981 	add	r0, r0, #2113536	; 0x204000
    ebf4:	ebffe647 	bl	8518 <GET32>
    ebf8:	e3100801 	tst	r0, #65536	; 0x10000
    ebfc:	0afffffa 	beq	ebec <spi_init+0x9d4>
    ec00:	e5940000 	ldr	r0, [r4]
    ec04:	e3a01000 	mov	r1, #0
    ec08:	e2800981 	add	r0, r0, #2113536	; 0x204000
    ec0c:	ebffe63f 	bl	8510 <PUT32>
    ec10:	e3a01001 	mov	r1, #1
    ec14:	e3a00019 	mov	r0, #25
    ec18:	ebffe785 	bl	8a34 <gpio_output>
    ec1c:	e5940000 	ldr	r0, [r4]
    ec20:	e3a010b0 	mov	r1, #176	; 0xb0
    ec24:	e2800981 	add	r0, r0, #2113536	; 0x204000
    ec28:	ebffe638 	bl	8510 <PUT32>
    ec2c:	e5940000 	ldr	r0, [r4]
    ec30:	e2800981 	add	r0, r0, #2113536	; 0x204000
    ec34:	ebffe637 	bl	8518 <GET32>
    ec38:	e3100701 	tst	r0, #262144	; 0x40000
    ec3c:	0afffffa 	beq	ec2c <spi_init+0xa14>
    ec40:	e5940000 	ldr	r0, [r4]
    ec44:	e3a01082 	mov	r1, #130	; 0x82
    ec48:	e2800981 	add	r0, r0, #2113536	; 0x204000
    ec4c:	e2800004 	add	r0, r0, #4
    ec50:	ebffe62e 	bl	8510 <PUT32>
    ec54:	e5940000 	ldr	r0, [r4]
    ec58:	e2800981 	add	r0, r0, #2113536	; 0x204000
    ec5c:	ebffe62d 	bl	8518 <GET32>
    ec60:	e3100801 	tst	r0, #65536	; 0x10000
    ec64:	0afffffa 	beq	ec54 <spi_init+0xa3c>
    ec68:	e5940000 	ldr	r0, [r4]
    ec6c:	e3a01000 	mov	r1, #0
    ec70:	e2800981 	add	r0, r0, #2113536	; 0x204000
    ec74:	ebffe625 	bl	8510 <PUT32>
    ec78:	e3a01001 	mov	r1, #1
    ec7c:	e3a00019 	mov	r0, #25
    ec80:	ebffe76b 	bl	8a34 <gpio_output>
    ec84:	e5940000 	ldr	r0, [r4]
    ec88:	e3a010b0 	mov	r1, #176	; 0xb0
    ec8c:	e2800981 	add	r0, r0, #2113536	; 0x204000
    ec90:	ebffe61e 	bl	8510 <PUT32>
    ec94:	e5940000 	ldr	r0, [r4]
    ec98:	e2800981 	add	r0, r0, #2113536	; 0x204000
    ec9c:	ebffe61d 	bl	8518 <GET32>
    eca0:	e3100701 	tst	r0, #262144	; 0x40000
    eca4:	0afffffa 	beq	ec94 <spi_init+0xa7c>
    eca8:	e5940000 	ldr	r0, [r4]
    ecac:	e3a01027 	mov	r1, #39	; 0x27
    ecb0:	e2800981 	add	r0, r0, #2113536	; 0x204000
    ecb4:	e2800004 	add	r0, r0, #4
    ecb8:	ebffe614 	bl	8510 <PUT32>
    ecbc:	e5940000 	ldr	r0, [r4]
    ecc0:	e2800981 	add	r0, r0, #2113536	; 0x204000
    ecc4:	ebffe613 	bl	8518 <GET32>
    ecc8:	e3100801 	tst	r0, #65536	; 0x10000
    eccc:	0afffffa 	beq	ecbc <spi_init+0xaa4>
    ecd0:	e5940000 	ldr	r0, [r4]
    ecd4:	e3a01000 	mov	r1, #0
    ecd8:	e2800981 	add	r0, r0, #2113536	; 0x204000
    ecdc:	ebffe60b 	bl	8510 <PUT32>
    ece0:	e3a01000 	mov	r1, #0
    ece4:	e3a00019 	mov	r0, #25
    ece8:	ebffe751 	bl	8a34 <gpio_output>
    ecec:	e5940000 	ldr	r0, [r4]
    ecf0:	e3a010b0 	mov	r1, #176	; 0xb0
    ecf4:	e2800981 	add	r0, r0, #2113536	; 0x204000
    ecf8:	ebffe604 	bl	8510 <PUT32>
    ecfc:	e5940000 	ldr	r0, [r4]
    ed00:	e2800981 	add	r0, r0, #2113536	; 0x204000
    ed04:	ebffe603 	bl	8518 <GET32>
    ed08:	e3100701 	tst	r0, #262144	; 0x40000
    ed0c:	0afffffa 	beq	ecfc <spi_init+0xae4>
    ed10:	e5940000 	ldr	r0, [r4]
    ed14:	e3a010f2 	mov	r1, #242	; 0xf2
    ed18:	e2800981 	add	r0, r0, #2113536	; 0x204000
    ed1c:	e2800004 	add	r0, r0, #4
    ed20:	ebffe5fa 	bl	8510 <PUT32>
    ed24:	e5940000 	ldr	r0, [r4]
    ed28:	e2800981 	add	r0, r0, #2113536	; 0x204000
    ed2c:	ebffe5f9 	bl	8518 <GET32>
    ed30:	e3100801 	tst	r0, #65536	; 0x10000
    ed34:	0afffffa 	beq	ed24 <spi_init+0xb0c>
    ed38:	e5940000 	ldr	r0, [r4]
    ed3c:	e3a01000 	mov	r1, #0
    ed40:	e2800981 	add	r0, r0, #2113536	; 0x204000
    ed44:	ebffe5f1 	bl	8510 <PUT32>
    ed48:	e3a00000 	mov	r0, #0
    ed4c:	ebfff3c0 	bl	bc54 <spi_one_byte.constprop.6>
    ed50:	e3a01000 	mov	r1, #0
    ed54:	e3a00019 	mov	r0, #25
    ed58:	ebffe735 	bl	8a34 <gpio_output>
    ed5c:	e5940000 	ldr	r0, [r4]
    ed60:	e3a010b0 	mov	r1, #176	; 0xb0
    ed64:	e2800981 	add	r0, r0, #2113536	; 0x204000
    ed68:	ebffe5e8 	bl	8510 <PUT32>
    ed6c:	e5940000 	ldr	r0, [r4]
    ed70:	e2800981 	add	r0, r0, #2113536	; 0x204000
    ed74:	ebffe5e7 	bl	8518 <GET32>
    ed78:	e3100701 	tst	r0, #262144	; 0x40000
    ed7c:	0afffffa 	beq	ed6c <spi_init+0xb54>
    ed80:	e5940000 	ldr	r0, [r4]
    ed84:	e3a01026 	mov	r1, #38	; 0x26
    ed88:	e2800981 	add	r0, r0, #2113536	; 0x204000
    ed8c:	e2800004 	add	r0, r0, #4
    ed90:	ebffe5de 	bl	8510 <PUT32>
    ed94:	e5940000 	ldr	r0, [r4]
    ed98:	e2800981 	add	r0, r0, #2113536	; 0x204000
    ed9c:	ebffe5dd 	bl	8518 <GET32>
    eda0:	e3100801 	tst	r0, #65536	; 0x10000
    eda4:	0afffffa 	beq	ed94 <spi_init+0xb7c>
    eda8:	e5940000 	ldr	r0, [r4]
    edac:	e3a01000 	mov	r1, #0
    edb0:	e2800981 	add	r0, r0, #2113536	; 0x204000
    edb4:	ebffe5d5 	bl	8510 <PUT32>
    edb8:	e3a00001 	mov	r0, #1
    edbc:	ebfff3a4 	bl	bc54 <spi_one_byte.constprop.6>
    edc0:	e3a01000 	mov	r1, #0
    edc4:	e3a00019 	mov	r0, #25
    edc8:	ebffe719 	bl	8a34 <gpio_output>
    edcc:	e5940000 	ldr	r0, [r4]
    edd0:	e3a010b0 	mov	r1, #176	; 0xb0
    edd4:	e2800981 	add	r0, r0, #2113536	; 0x204000
    edd8:	ebffe5cc 	bl	8510 <PUT32>
    eddc:	e5940000 	ldr	r0, [r4]
    ede0:	e2800981 	add	r0, r0, #2113536	; 0x204000
    ede4:	ebffe5cb 	bl	8518 <GET32>
    ede8:	e3100701 	tst	r0, #262144	; 0x40000
    edec:	0afffffa 	beq	eddc <spi_init+0xbc4>
    edf0:	e5940000 	ldr	r0, [r4]
    edf4:	e3a010e0 	mov	r1, #224	; 0xe0
    edf8:	e2800981 	add	r0, r0, #2113536	; 0x204000
    edfc:	e2800004 	add	r0, r0, #4
    ee00:	ebffe5c2 	bl	8510 <PUT32>
    ee04:	e5940000 	ldr	r0, [r4]
    ee08:	e2800981 	add	r0, r0, #2113536	; 0x204000
    ee0c:	ebffe5c1 	bl	8518 <GET32>
    ee10:	e3100801 	tst	r0, #65536	; 0x10000
    ee14:	0afffffa 	beq	ee04 <spi_init+0xbec>
    ee18:	e5940000 	ldr	r0, [r4]
    ee1c:	e3a01000 	mov	r1, #0
    ee20:	e2800981 	add	r0, r0, #2113536	; 0x204000
    ee24:	ebffe5b9 	bl	8510 <PUT32>
    ee28:	e3a0000f 	mov	r0, #15
    ee2c:	ebfff388 	bl	bc54 <spi_one_byte.constprop.6>
    ee30:	e3a00031 	mov	r0, #49	; 0x31
    ee34:	ebfff386 	bl	bc54 <spi_one_byte.constprop.6>
    ee38:	e3a0002b 	mov	r0, #43	; 0x2b
    ee3c:	ebfff384 	bl	bc54 <spi_one_byte.constprop.6>
    ee40:	e3a0000c 	mov	r0, #12
    ee44:	ebfff382 	bl	bc54 <spi_one_byte.constprop.6>
    ee48:	e3a0000e 	mov	r0, #14
    ee4c:	ebfff380 	bl	bc54 <spi_one_byte.constprop.6>
    ee50:	e3a00008 	mov	r0, #8
    ee54:	ebfff37e 	bl	bc54 <spi_one_byte.constprop.6>
    ee58:	e3a0004e 	mov	r0, #78	; 0x4e
    ee5c:	ebfff37c 	bl	bc54 <spi_one_byte.constprop.6>
    ee60:	e3a000f1 	mov	r0, #241	; 0xf1
    ee64:	ebfff37a 	bl	bc54 <spi_one_byte.constprop.6>
    ee68:	e3a00037 	mov	r0, #55	; 0x37
    ee6c:	ebfff378 	bl	bc54 <spi_one_byte.constprop.6>
    ee70:	e3a00007 	mov	r0, #7
    ee74:	ebfff376 	bl	bc54 <spi_one_byte.constprop.6>
    ee78:	e3a00010 	mov	r0, #16
    ee7c:	ebfff374 	bl	bc54 <spi_one_byte.constprop.6>
    ee80:	e3a00003 	mov	r0, #3
    ee84:	ebfff372 	bl	bc54 <spi_one_byte.constprop.6>
    ee88:	e3a0000e 	mov	r0, #14
    ee8c:	ebfff370 	bl	bc54 <spi_one_byte.constprop.6>
    ee90:	e3a00009 	mov	r0, #9
    ee94:	ebfff36e 	bl	bc54 <spi_one_byte.constprop.6>
    ee98:	e3a00000 	mov	r0, #0
    ee9c:	ebfff36c 	bl	bc54 <spi_one_byte.constprop.6>
    eea0:	e3a01000 	mov	r1, #0
    eea4:	e3a00019 	mov	r0, #25
    eea8:	ebffe6e1 	bl	8a34 <gpio_output>
    eeac:	e5940000 	ldr	r0, [r4]
    eeb0:	e3a010b0 	mov	r1, #176	; 0xb0
    eeb4:	e2800981 	add	r0, r0, #2113536	; 0x204000
    eeb8:	ebffe594 	bl	8510 <PUT32>
    eebc:	e5940000 	ldr	r0, [r4]
    eec0:	e2800981 	add	r0, r0, #2113536	; 0x204000
    eec4:	ebffe593 	bl	8518 <GET32>
    eec8:	e3100701 	tst	r0, #262144	; 0x40000
    eecc:	0afffffa 	beq	eebc <spi_init+0xca4>
    eed0:	e5940000 	ldr	r0, [r4]
    eed4:	e3a010e1 	mov	r1, #225	; 0xe1
    eed8:	e2800981 	add	r0, r0, #2113536	; 0x204000
    eedc:	e2800004 	add	r0, r0, #4
    eee0:	ebffe58a 	bl	8510 <PUT32>
    eee4:	e5940000 	ldr	r0, [r4]
    eee8:	e2800981 	add	r0, r0, #2113536	; 0x204000
    eeec:	ebffe589 	bl	8518 <GET32>
    eef0:	e3100801 	tst	r0, #65536	; 0x10000
    eef4:	0afffffa 	beq	eee4 <spi_init+0xccc>
    eef8:	e5940000 	ldr	r0, [r4]
    eefc:	e3a01000 	mov	r1, #0
    ef00:	e2800981 	add	r0, r0, #2113536	; 0x204000
    ef04:	ebffe581 	bl	8510 <PUT32>
    ef08:	e3a00000 	mov	r0, #0
    ef0c:	ebfff350 	bl	bc54 <spi_one_byte.constprop.6>
    ef10:	e3a0000e 	mov	r0, #14
    ef14:	ebfff34e 	bl	bc54 <spi_one_byte.constprop.6>
    ef18:	e3a00014 	mov	r0, #20
    ef1c:	ebfff34c 	bl	bc54 <spi_one_byte.constprop.6>
    ef20:	e3a00003 	mov	r0, #3
    ef24:	ebfff34a 	bl	bc54 <spi_one_byte.constprop.6>
    ef28:	e3a00011 	mov	r0, #17
    ef2c:	ebfff348 	bl	bc54 <spi_one_byte.constprop.6>
    ef30:	e3a00007 	mov	r0, #7
    ef34:	ebfff346 	bl	bc54 <spi_one_byte.constprop.6>
    ef38:	e3a00031 	mov	r0, #49	; 0x31
    ef3c:	ebfff344 	bl	bc54 <spi_one_byte.constprop.6>
    ef40:	e3a000c1 	mov	r0, #193	; 0xc1
    ef44:	ebfff342 	bl	bc54 <spi_one_byte.constprop.6>
    ef48:	e3a00048 	mov	r0, #72	; 0x48
    ef4c:	ebfff340 	bl	bc54 <spi_one_byte.constprop.6>
    ef50:	e3a00008 	mov	r0, #8
    ef54:	ebfff33e 	bl	bc54 <spi_one_byte.constprop.6>
    ef58:	e3a0000f 	mov	r0, #15
    ef5c:	ebfff33c 	bl	bc54 <spi_one_byte.constprop.6>
    ef60:	e3a0000c 	mov	r0, #12
    ef64:	ebfff33a 	bl	bc54 <spi_one_byte.constprop.6>
    ef68:	e3a00031 	mov	r0, #49	; 0x31
    ef6c:	ebfff338 	bl	bc54 <spi_one_byte.constprop.6>
    ef70:	e3a00036 	mov	r0, #54	; 0x36
    ef74:	ebfff336 	bl	bc54 <spi_one_byte.constprop.6>
    ef78:	e3a01001 	mov	r1, #1
    ef7c:	e3a00019 	mov	r0, #25
    ef80:	ebffe6ab 	bl	8a34 <gpio_output>
    ef84:	e5940000 	ldr	r0, [r4]
    ef88:	e3a010b0 	mov	r1, #176	; 0xb0
    ef8c:	e2800981 	add	r0, r0, #2113536	; 0x204000
    ef90:	ebffe55e 	bl	8510 <PUT32>
    ef94:	e5940000 	ldr	r0, [r4]
    ef98:	e2800981 	add	r0, r0, #2113536	; 0x204000
    ef9c:	ebffe55d 	bl	8518 <GET32>
    efa0:	e3100701 	tst	r0, #262144	; 0x40000
    efa4:	0afffffa 	beq	ef94 <spi_init+0xd7c>
    efa8:	e5940000 	ldr	r0, [r4]
    efac:	e3a0100f 	mov	r1, #15
    efb0:	e2800981 	add	r0, r0, #2113536	; 0x204000
    efb4:	e2800004 	add	r0, r0, #4
    efb8:	ebffe554 	bl	8510 <PUT32>
    efbc:	e5940000 	ldr	r0, [r4]
    efc0:	e2800981 	add	r0, r0, #2113536	; 0x204000
    efc4:	ebffe553 	bl	8518 <GET32>
    efc8:	e3100801 	tst	r0, #65536	; 0x10000
    efcc:	0afffffa 	beq	efbc <spi_init+0xda4>
    efd0:	e5940000 	ldr	r0, [r4]
    efd4:	e3a01000 	mov	r1, #0
    efd8:	e2800981 	add	r0, r0, #2113536	; 0x204000
    efdc:	ebffe54b 	bl	8510 <PUT32>
    efe0:	e3a01000 	mov	r1, #0
    efe4:	e3a00019 	mov	r0, #25
    efe8:	ebffe691 	bl	8a34 <gpio_output>
    efec:	e5940000 	ldr	r0, [r4]
    eff0:	e3a010b0 	mov	r1, #176	; 0xb0
    eff4:	e2800981 	add	r0, r0, #2113536	; 0x204000
    eff8:	ebffe544 	bl	8510 <PUT32>
    effc:	e5940000 	ldr	r0, [r4]
    f000:	e2800981 	add	r0, r0, #2113536	; 0x204000
    f004:	ebffe543 	bl	8518 <GET32>
    f008:	e3100701 	tst	r0, #262144	; 0x40000
    f00c:	0afffffa 	beq	effc <spi_init+0xde4>
    f010:	e5940000 	ldr	r0, [r4]
    f014:	e3a01011 	mov	r1, #17
    f018:	e2800981 	add	r0, r0, #2113536	; 0x204000
    f01c:	e2800004 	add	r0, r0, #4
    f020:	ebffe53a 	bl	8510 <PUT32>
    f024:	e5940000 	ldr	r0, [r4]
    f028:	e2800981 	add	r0, r0, #2113536	; 0x204000
    f02c:	ebffe539 	bl	8518 <GET32>
    f030:	e3100801 	tst	r0, #65536	; 0x10000
    f034:	0afffffa 	beq	f024 <spi_init+0xe0c>
    f038:	e5940000 	ldr	r0, [r4]
    f03c:	e3a01000 	mov	r1, #0
    f040:	e2800981 	add	r0, r0, #2113536	; 0x204000
    f044:	ebffe531 	bl	8510 <PUT32>
    f048:	e59f00ec 	ldr	r0, [pc, #236]	; f13c <spi_init+0xf24>
    f04c:	e3a01000 	mov	r1, #0
    f050:	ebffe729 	bl	8cfc <timer_wait>
    f054:	e3a01000 	mov	r1, #0
    f058:	e3a00019 	mov	r0, #25
    f05c:	ebffe674 	bl	8a34 <gpio_output>
    f060:	e5940000 	ldr	r0, [r4]
    f064:	e3a010b0 	mov	r1, #176	; 0xb0
    f068:	e2800981 	add	r0, r0, #2113536	; 0x204000
    f06c:	ebffe527 	bl	8510 <PUT32>
    f070:	e5940000 	ldr	r0, [r4]
    f074:	e2800981 	add	r0, r0, #2113536	; 0x204000
    f078:	ebffe526 	bl	8518 <GET32>
    f07c:	e3100701 	tst	r0, #262144	; 0x40000
    f080:	0afffffa 	beq	f070 <spi_init+0xe58>
    f084:	e5940000 	ldr	r0, [r4]
    f088:	e3a01029 	mov	r1, #41	; 0x29
    f08c:	e2800981 	add	r0, r0, #2113536	; 0x204000
    f090:	e2800004 	add	r0, r0, #4
    f094:	ebffe51d 	bl	8510 <PUT32>
    f098:	e5940000 	ldr	r0, [r4]
    f09c:	e2800981 	add	r0, r0, #2113536	; 0x204000
    f0a0:	ebffe51c 	bl	8518 <GET32>
    f0a4:	e3100801 	tst	r0, #65536	; 0x10000
    f0a8:	0afffffa 	beq	f098 <spi_init+0xe80>
    f0ac:	e5940000 	ldr	r0, [r4]
    f0b0:	e3a01000 	mov	r1, #0
    f0b4:	e2800981 	add	r0, r0, #2113536	; 0x204000
    f0b8:	ebffe514 	bl	8510 <PUT32>
    f0bc:	e3a01000 	mov	r1, #0
    f0c0:	e3a00019 	mov	r0, #25
    f0c4:	ebffe65a 	bl	8a34 <gpio_output>
    f0c8:	e5940000 	ldr	r0, [r4]
    f0cc:	e3a010b0 	mov	r1, #176	; 0xb0
    f0d0:	e2800981 	add	r0, r0, #2113536	; 0x204000
    f0d4:	ebffe50d 	bl	8510 <PUT32>
    f0d8:	e5940000 	ldr	r0, [r4]
    f0dc:	e2800981 	add	r0, r0, #2113536	; 0x204000
    f0e0:	ebffe50c 	bl	8518 <GET32>
    f0e4:	e3100701 	tst	r0, #262144	; 0x40000
    f0e8:	0afffffa 	beq	f0d8 <spi_init+0xec0>
    f0ec:	e5940000 	ldr	r0, [r4]
    f0f0:	e3a0102c 	mov	r1, #44	; 0x2c
    f0f4:	e2800981 	add	r0, r0, #2113536	; 0x204000
    f0f8:	e2800004 	add	r0, r0, #4
    f0fc:	ebffe503 	bl	8510 <PUT32>
    f100:	e5940000 	ldr	r0, [r4]
    f104:	e2800981 	add	r0, r0, #2113536	; 0x204000
    f108:	ebffe502 	bl	8518 <GET32>
    f10c:	e3100801 	tst	r0, #65536	; 0x10000
    f110:	0afffffa 	beq	f100 <spi_init+0xee8>
    f114:	e5940000 	ldr	r0, [r4]
    f118:	e3a01000 	mov	r1, #0
    f11c:	e2800981 	add	r0, r0, #2113536	; 0x204000
    f120:	ebffe4fa 	bl	8510 <PUT32>
    f124:	e3a05000 	mov	r5, #0
    f128:	e59fa010 	ldr	sl, [pc, #16]	; f140 <spi_init+0xf28>
    f12c:	ea00000c 	b	f164 <spi_init+0xf4c>
    f130:	0001b88c 	.word	0x0001b88c
    f134:	00215004 	.word	0x00215004
    f138:	00002710 	.word	0x00002710
    f13c:	0001d4c0 	.word	0x0001d4c0
    f140:	0001d8c8 	.word	0x0001d8c8
    f144:	0001556c 	.word	0x0001556c
    f148:	00004d42 	.word	0x00004d42
    f14c:	0001a828 	.word	0x0001a828
    f150:	e3510001 	cmp	r1, #1
    f154:	0a000303 	beq	fd68 <spi_init+0x1b50>
    f158:	e2855001 	add	r5, r5, #1
    f15c:	e35500f0 	cmp	r5, #240	; 0xf0
    f160:	0a000159 	beq	f6cc <spi_init+0x14b4>
    f164:	e59a1004 	ldr	r1, [sl, #4]
    f168:	e3510000 	cmp	r1, #0
    f16c:	1afffff7 	bne	f150 <spi_init+0xf38>
    f170:	e3a00019 	mov	r0, #25
    f174:	ebffe62e 	bl	8a34 <gpio_output>
    f178:	e5940000 	ldr	r0, [r4]
    f17c:	e3a010b0 	mov	r1, #176	; 0xb0
    f180:	e2800981 	add	r0, r0, #2113536	; 0x204000
    f184:	ebffe4e1 	bl	8510 <PUT32>
    f188:	e5940000 	ldr	r0, [r4]
    f18c:	e2800981 	add	r0, r0, #2113536	; 0x204000
    f190:	ebffe4e0 	bl	8518 <GET32>
    f194:	e3100701 	tst	r0, #262144	; 0x40000
    f198:	0afffffa 	beq	f188 <spi_init+0xf70>
    f19c:	e5940000 	ldr	r0, [r4]
    f1a0:	e3a0102a 	mov	r1, #42	; 0x2a
    f1a4:	e2800981 	add	r0, r0, #2113536	; 0x204000
    f1a8:	e2800004 	add	r0, r0, #4
    f1ac:	ebffe4d7 	bl	8510 <PUT32>
    f1b0:	e5940000 	ldr	r0, [r4]
    f1b4:	e2800981 	add	r0, r0, #2113536	; 0x204000
    f1b8:	ebffe4d6 	bl	8518 <GET32>
    f1bc:	e3100801 	tst	r0, #65536	; 0x10000
    f1c0:	0afffffa 	beq	f1b0 <spi_init+0xf98>
    f1c4:	e5940000 	ldr	r0, [r4]
    f1c8:	e3a01000 	mov	r1, #0
    f1cc:	e2800981 	add	r0, r0, #2113536	; 0x204000
    f1d0:	ebffe4ce 	bl	8510 <PUT32>
    f1d4:	e3a01001 	mov	r1, #1
    f1d8:	e3a00019 	mov	r0, #25
    f1dc:	ebffe614 	bl	8a34 <gpio_output>
    f1e0:	e5940000 	ldr	r0, [r4]
    f1e4:	e3a010b0 	mov	r1, #176	; 0xb0
    f1e8:	e2800981 	add	r0, r0, #2113536	; 0x204000
    f1ec:	ebffe4c7 	bl	8510 <PUT32>
    f1f0:	e5940000 	ldr	r0, [r4]
    f1f4:	e2800981 	add	r0, r0, #2113536	; 0x204000
    f1f8:	ebffe4c6 	bl	8518 <GET32>
    f1fc:	e3100701 	tst	r0, #262144	; 0x40000
    f200:	0afffffa 	beq	f1f0 <spi_init+0xfd8>
    f204:	e5940000 	ldr	r0, [r4]
    f208:	e3a01000 	mov	r1, #0
    f20c:	e2800981 	add	r0, r0, #2113536	; 0x204000
    f210:	e2800004 	add	r0, r0, #4
    f214:	ebffe4bd 	bl	8510 <PUT32>
    f218:	e5940000 	ldr	r0, [r4]
    f21c:	e2800981 	add	r0, r0, #2113536	; 0x204000
    f220:	ebffe4bc 	bl	8518 <GET32>
    f224:	e3100801 	tst	r0, #65536	; 0x10000
    f228:	0afffffa 	beq	f218 <spi_init+0x1000>
    f22c:	e5940000 	ldr	r0, [r4]
    f230:	e3a01000 	mov	r1, #0
    f234:	e2800981 	add	r0, r0, #2113536	; 0x204000
    f238:	ebffe4b4 	bl	8510 <PUT32>
    f23c:	e3a01001 	mov	r1, #1
    f240:	e3a00019 	mov	r0, #25
    f244:	ebffe5fa 	bl	8a34 <gpio_output>
    f248:	e5940000 	ldr	r0, [r4]
    f24c:	e3a010b0 	mov	r1, #176	; 0xb0
    f250:	e2800981 	add	r0, r0, #2113536	; 0x204000
    f254:	ebffe4ad 	bl	8510 <PUT32>
    f258:	e5940000 	ldr	r0, [r4]
    f25c:	e2800981 	add	r0, r0, #2113536	; 0x204000
    f260:	ebffe4ac 	bl	8518 <GET32>
    f264:	e3100701 	tst	r0, #262144	; 0x40000
    f268:	0afffffa 	beq	f258 <spi_init+0x1040>
    f26c:	e5940000 	ldr	r0, [r4]
    f270:	e3a01000 	mov	r1, #0
    f274:	e2800981 	add	r0, r0, #2113536	; 0x204000
    f278:	e2800004 	add	r0, r0, #4
    f27c:	ebffe4a3 	bl	8510 <PUT32>
    f280:	e5940000 	ldr	r0, [r4]
    f284:	e2800981 	add	r0, r0, #2113536	; 0x204000
    f288:	ebffe4a2 	bl	8518 <GET32>
    f28c:	e3100801 	tst	r0, #65536	; 0x10000
    f290:	0afffffa 	beq	f280 <spi_init+0x1068>
    f294:	e5940000 	ldr	r0, [r4]
    f298:	e3a01000 	mov	r1, #0
    f29c:	e2800981 	add	r0, r0, #2113536	; 0x204000
    f2a0:	ebffe49a 	bl	8510 <PUT32>
    f2a4:	e3a01001 	mov	r1, #1
    f2a8:	e3a00019 	mov	r0, #25
    f2ac:	ebffe5e0 	bl	8a34 <gpio_output>
    f2b0:	e5940000 	ldr	r0, [r4]
    f2b4:	e3a010b0 	mov	r1, #176	; 0xb0
    f2b8:	e2800981 	add	r0, r0, #2113536	; 0x204000
    f2bc:	ebffe493 	bl	8510 <PUT32>
    f2c0:	e5940000 	ldr	r0, [r4]
    f2c4:	e2800981 	add	r0, r0, #2113536	; 0x204000
    f2c8:	ebffe492 	bl	8518 <GET32>
    f2cc:	e3100701 	tst	r0, #262144	; 0x40000
    f2d0:	0afffffa 	beq	f2c0 <spi_init+0x10a8>
    f2d4:	e5940000 	ldr	r0, [r4]
    f2d8:	e3a01001 	mov	r1, #1
    f2dc:	e2800981 	add	r0, r0, #2113536	; 0x204000
    f2e0:	e2800004 	add	r0, r0, #4
    f2e4:	ebffe489 	bl	8510 <PUT32>
    f2e8:	e5940000 	ldr	r0, [r4]
    f2ec:	e2800981 	add	r0, r0, #2113536	; 0x204000
    f2f0:	ebffe488 	bl	8518 <GET32>
    f2f4:	e3100801 	tst	r0, #65536	; 0x10000
    f2f8:	0afffffa 	beq	f2e8 <spi_init+0x10d0>
    f2fc:	e5940000 	ldr	r0, [r4]
    f300:	e3a01000 	mov	r1, #0
    f304:	e2800981 	add	r0, r0, #2113536	; 0x204000
    f308:	ebffe480 	bl	8510 <PUT32>
    f30c:	e3a01001 	mov	r1, #1
    f310:	e3a00019 	mov	r0, #25
    f314:	ebffe5c6 	bl	8a34 <gpio_output>
    f318:	e5940000 	ldr	r0, [r4]
    f31c:	e3a010b0 	mov	r1, #176	; 0xb0
    f320:	e2800981 	add	r0, r0, #2113536	; 0x204000
    f324:	ebffe479 	bl	8510 <PUT32>
    f328:	e5940000 	ldr	r0, [r4]
    f32c:	e2800981 	add	r0, r0, #2113536	; 0x204000
    f330:	ebffe478 	bl	8518 <GET32>
    f334:	e3100701 	tst	r0, #262144	; 0x40000
    f338:	0afffffa 	beq	f328 <spi_init+0x1110>
    f33c:	e5940000 	ldr	r0, [r4]
    f340:	e3a01040 	mov	r1, #64	; 0x40
    f344:	e2800981 	add	r0, r0, #2113536	; 0x204000
    f348:	e2800004 	add	r0, r0, #4
    f34c:	ebffe46f 	bl	8510 <PUT32>
    f350:	e5940000 	ldr	r0, [r4]
    f354:	e2800981 	add	r0, r0, #2113536	; 0x204000
    f358:	ebffe46e 	bl	8518 <GET32>
    f35c:	e3100801 	tst	r0, #65536	; 0x10000
    f360:	0afffffa 	beq	f350 <spi_init+0x1138>
    f364:	e5940000 	ldr	r0, [r4]
    f368:	e3a01000 	mov	r1, #0
    f36c:	e2800981 	add	r0, r0, #2113536	; 0x204000
    f370:	ebffe466 	bl	8510 <PUT32>
    f374:	e3a01000 	mov	r1, #0
    f378:	e3a00019 	mov	r0, #25
    f37c:	ebffe5ac 	bl	8a34 <gpio_output>
    f380:	e5940000 	ldr	r0, [r4]
    f384:	e3a010b0 	mov	r1, #176	; 0xb0
    f388:	e2800981 	add	r0, r0, #2113536	; 0x204000
    f38c:	ebffe45f 	bl	8510 <PUT32>
    f390:	e5940000 	ldr	r0, [r4]
    f394:	e2800981 	add	r0, r0, #2113536	; 0x204000
    f398:	ebffe45e 	bl	8518 <GET32>
    f39c:	e3100701 	tst	r0, #262144	; 0x40000
    f3a0:	0afffffa 	beq	f390 <spi_init+0x1178>
    f3a4:	e5940000 	ldr	r0, [r4]
    f3a8:	e3a0102b 	mov	r1, #43	; 0x2b
    f3ac:	e2800981 	add	r0, r0, #2113536	; 0x204000
    f3b0:	e2800004 	add	r0, r0, #4
    f3b4:	ebffe455 	bl	8510 <PUT32>
    f3b8:	e5940000 	ldr	r0, [r4]
    f3bc:	e2800981 	add	r0, r0, #2113536	; 0x204000
    f3c0:	ebffe454 	bl	8518 <GET32>
    f3c4:	e3100801 	tst	r0, #65536	; 0x10000
    f3c8:	0afffffa 	beq	f3b8 <spi_init+0x11a0>
    f3cc:	e5940000 	ldr	r0, [r4]
    f3d0:	e3a01000 	mov	r1, #0
    f3d4:	e2800981 	add	r0, r0, #2113536	; 0x204000
    f3d8:	ebffe44c 	bl	8510 <PUT32>
    f3dc:	e3a01001 	mov	r1, #1
    f3e0:	e3a00019 	mov	r0, #25
    f3e4:	ebffe592 	bl	8a34 <gpio_output>
    f3e8:	e5940000 	ldr	r0, [r4]
    f3ec:	e3a010b0 	mov	r1, #176	; 0xb0
    f3f0:	e2800981 	add	r0, r0, #2113536	; 0x204000
    f3f4:	ebffe445 	bl	8510 <PUT32>
    f3f8:	e5940000 	ldr	r0, [r4]
    f3fc:	e2800981 	add	r0, r0, #2113536	; 0x204000
    f400:	ebffe444 	bl	8518 <GET32>
    f404:	e3100701 	tst	r0, #262144	; 0x40000
    f408:	0afffffa 	beq	f3f8 <spi_init+0x11e0>
    f40c:	e5940000 	ldr	r0, [r4]
    f410:	e3a01000 	mov	r1, #0
    f414:	e2800981 	add	r0, r0, #2113536	; 0x204000
    f418:	e2800004 	add	r0, r0, #4
    f41c:	ebffe43b 	bl	8510 <PUT32>
    f420:	e5940000 	ldr	r0, [r4]
    f424:	e2800981 	add	r0, r0, #2113536	; 0x204000
    f428:	ebffe43a 	bl	8518 <GET32>
    f42c:	e3100801 	tst	r0, #65536	; 0x10000
    f430:	0afffffa 	beq	f420 <spi_init+0x1208>
    f434:	e5940000 	ldr	r0, [r4]
    f438:	e3a01000 	mov	r1, #0
    f43c:	e2800981 	add	r0, r0, #2113536	; 0x204000
    f440:	ebffe432 	bl	8510 <PUT32>
    f444:	e3a01001 	mov	r1, #1
    f448:	e3a00019 	mov	r0, #25
    f44c:	ebffe578 	bl	8a34 <gpio_output>
    f450:	e5940000 	ldr	r0, [r4]
    f454:	e3a010b0 	mov	r1, #176	; 0xb0
    f458:	e2800981 	add	r0, r0, #2113536	; 0x204000
    f45c:	ebffe42b 	bl	8510 <PUT32>
    f460:	e5940000 	ldr	r0, [r4]
    f464:	e2800981 	add	r0, r0, #2113536	; 0x204000
    f468:	ebffe42a 	bl	8518 <GET32>
    f46c:	e3100701 	tst	r0, #262144	; 0x40000
    f470:	0afffffa 	beq	f460 <spi_init+0x1248>
    f474:	e5940000 	ldr	r0, [r4]
    f478:	e1a01005 	mov	r1, r5
    f47c:	e2800981 	add	r0, r0, #2113536	; 0x204000
    f480:	e2800004 	add	r0, r0, #4
    f484:	ebffe421 	bl	8510 <PUT32>
    f488:	e5940000 	ldr	r0, [r4]
    f48c:	e2800981 	add	r0, r0, #2113536	; 0x204000
    f490:	ebffe420 	bl	8518 <GET32>
    f494:	e3100801 	tst	r0, #65536	; 0x10000
    f498:	0afffffa 	beq	f488 <spi_init+0x1270>
    f49c:	e5940000 	ldr	r0, [r4]
    f4a0:	e3a01000 	mov	r1, #0
    f4a4:	e2800981 	add	r0, r0, #2113536	; 0x204000
    f4a8:	ebffe418 	bl	8510 <PUT32>
    f4ac:	e3a01001 	mov	r1, #1
    f4b0:	e3a00019 	mov	r0, #25
    f4b4:	ebffe55e 	bl	8a34 <gpio_output>
    f4b8:	e5940000 	ldr	r0, [r4]
    f4bc:	e3a010b0 	mov	r1, #176	; 0xb0
    f4c0:	e2800981 	add	r0, r0, #2113536	; 0x204000
    f4c4:	ebffe411 	bl	8510 <PUT32>
    f4c8:	e5940000 	ldr	r0, [r4]
    f4cc:	e2800981 	add	r0, r0, #2113536	; 0x204000
    f4d0:	ebffe410 	bl	8518 <GET32>
    f4d4:	e3100701 	tst	r0, #262144	; 0x40000
    f4d8:	0afffffa 	beq	f4c8 <spi_init+0x12b0>
    f4dc:	e5940000 	ldr	r0, [r4]
    f4e0:	e3a01000 	mov	r1, #0
    f4e4:	e2800981 	add	r0, r0, #2113536	; 0x204000
    f4e8:	e2800004 	add	r0, r0, #4
    f4ec:	ebffe407 	bl	8510 <PUT32>
    f4f0:	e5940000 	ldr	r0, [r4]
    f4f4:	e2800981 	add	r0, r0, #2113536	; 0x204000
    f4f8:	ebffe406 	bl	8518 <GET32>
    f4fc:	e3100801 	tst	r0, #65536	; 0x10000
    f500:	0afffffa 	beq	f4f0 <spi_init+0x12d8>
    f504:	e5940000 	ldr	r0, [r4]
    f508:	e3a01000 	mov	r1, #0
    f50c:	e2800981 	add	r0, r0, #2113536	; 0x204000
    f510:	ebffe3fe 	bl	8510 <PUT32>
    f514:	e3a01001 	mov	r1, #1
    f518:	e3a00019 	mov	r0, #25
    f51c:	ebffe544 	bl	8a34 <gpio_output>
    f520:	e5940000 	ldr	r0, [r4]
    f524:	e3a010b0 	mov	r1, #176	; 0xb0
    f528:	e2800981 	add	r0, r0, #2113536	; 0x204000
    f52c:	ebffe3f7 	bl	8510 <PUT32>
    f530:	e5940000 	ldr	r0, [r4]
    f534:	e2800981 	add	r0, r0, #2113536	; 0x204000
    f538:	ebffe3f6 	bl	8518 <GET32>
    f53c:	e3100701 	tst	r0, #262144	; 0x40000
    f540:	0afffffa 	beq	f530 <spi_init+0x1318>
    f544:	e5940000 	ldr	r0, [r4]
    f548:	e1a01005 	mov	r1, r5
    f54c:	e2800981 	add	r0, r0, #2113536	; 0x204000
    f550:	e2800004 	add	r0, r0, #4
    f554:	ebffe3ed 	bl	8510 <PUT32>
    f558:	e5940000 	ldr	r0, [r4]
    f55c:	e2800981 	add	r0, r0, #2113536	; 0x204000
    f560:	ebffe3ec 	bl	8518 <GET32>
    f564:	e3100801 	tst	r0, #65536	; 0x10000
    f568:	0afffffa 	beq	f558 <spi_init+0x1340>
    f56c:	e5940000 	ldr	r0, [r4]
    f570:	e3a01000 	mov	r1, #0
    f574:	e2800981 	add	r0, r0, #2113536	; 0x204000
    f578:	ebffe3e4 	bl	8510 <PUT32>
    f57c:	e3a01000 	mov	r1, #0
    f580:	e3a00019 	mov	r0, #25
    f584:	ebffe52a 	bl	8a34 <gpio_output>
    f588:	e5940000 	ldr	r0, [r4]
    f58c:	e3a010b0 	mov	r1, #176	; 0xb0
    f590:	e2800981 	add	r0, r0, #2113536	; 0x204000
    f594:	ebffe3dd 	bl	8510 <PUT32>
    f598:	e5940000 	ldr	r0, [r4]
    f59c:	e2800981 	add	r0, r0, #2113536	; 0x204000
    f5a0:	ebffe3dc 	bl	8518 <GET32>
    f5a4:	e3100701 	tst	r0, #262144	; 0x40000
    f5a8:	0afffffa 	beq	f598 <spi_init+0x1380>
    f5ac:	e5940000 	ldr	r0, [r4]
    f5b0:	e3a0102c 	mov	r1, #44	; 0x2c
    f5b4:	e2800981 	add	r0, r0, #2113536	; 0x204000
    f5b8:	e2800004 	add	r0, r0, #4
    f5bc:	ebffe3d3 	bl	8510 <PUT32>
    f5c0:	e5940000 	ldr	r0, [r4]
    f5c4:	e2800981 	add	r0, r0, #2113536	; 0x204000
    f5c8:	ebffe3d2 	bl	8518 <GET32>
    f5cc:	e3100801 	tst	r0, #65536	; 0x10000
    f5d0:	0afffffa 	beq	f5c0 <spi_init+0x13a8>
    f5d4:	e5940000 	ldr	r0, [r4]
    f5d8:	e3a01000 	mov	r1, #0
    f5dc:	e2800981 	add	r0, r0, #2113536	; 0x204000
    f5e0:	ebffe3ca 	bl	8510 <PUT32>
    f5e4:	e3a06d05 	mov	r6, #320	; 0x140
    f5e8:	e3a01001 	mov	r1, #1
    f5ec:	e3a00019 	mov	r0, #25
    f5f0:	ebffe50f 	bl	8a34 <gpio_output>
    f5f4:	e5940000 	ldr	r0, [r4]
    f5f8:	e3a010b0 	mov	r1, #176	; 0xb0
    f5fc:	e2800981 	add	r0, r0, #2113536	; 0x204000
    f600:	ebffe3c2 	bl	8510 <PUT32>
    f604:	e5940000 	ldr	r0, [r4]
    f608:	e2800981 	add	r0, r0, #2113536	; 0x204000
    f60c:	ebffe3c1 	bl	8518 <GET32>
    f610:	e3100701 	tst	r0, #262144	; 0x40000
    f614:	0afffffa 	beq	f604 <spi_init+0x13ec>
    f618:	e5940000 	ldr	r0, [r4]
    f61c:	e3a01000 	mov	r1, #0
    f620:	e2800981 	add	r0, r0, #2113536	; 0x204000
    f624:	e2800004 	add	r0, r0, #4
    f628:	ebffe3b8 	bl	8510 <PUT32>
    f62c:	e5940000 	ldr	r0, [r4]
    f630:	e2800981 	add	r0, r0, #2113536	; 0x204000
    f634:	ebffe3b7 	bl	8518 <GET32>
    f638:	e3100801 	tst	r0, #65536	; 0x10000
    f63c:	0afffffa 	beq	f62c <spi_init+0x1414>
    f640:	e5940000 	ldr	r0, [r4]
    f644:	e3a01000 	mov	r1, #0
    f648:	e2800981 	add	r0, r0, #2113536	; 0x204000
    f64c:	ebffe3af 	bl	8510 <PUT32>
    f650:	e3a01001 	mov	r1, #1
    f654:	e3a00019 	mov	r0, #25
    f658:	ebffe4f5 	bl	8a34 <gpio_output>
    f65c:	e5940000 	ldr	r0, [r4]
    f660:	e3a010b0 	mov	r1, #176	; 0xb0
    f664:	e2800981 	add	r0, r0, #2113536	; 0x204000
    f668:	ebffe3a8 	bl	8510 <PUT32>
    f66c:	e5940000 	ldr	r0, [r4]
    f670:	e2800981 	add	r0, r0, #2113536	; 0x204000
    f674:	ebffe3a7 	bl	8518 <GET32>
    f678:	e3100701 	tst	r0, #262144	; 0x40000
    f67c:	0afffffa 	beq	f66c <spi_init+0x1454>
    f680:	e5940000 	ldr	r0, [r4]
    f684:	e3a0101f 	mov	r1, #31
    f688:	e2800981 	add	r0, r0, #2113536	; 0x204000
    f68c:	e2800004 	add	r0, r0, #4
    f690:	ebffe39e 	bl	8510 <PUT32>
    f694:	e5940000 	ldr	r0, [r4]
    f698:	e2800981 	add	r0, r0, #2113536	; 0x204000
    f69c:	ebffe39d 	bl	8518 <GET32>
    f6a0:	e3100801 	tst	r0, #65536	; 0x10000
    f6a4:	0afffffa 	beq	f694 <spi_init+0x147c>
    f6a8:	e5940000 	ldr	r0, [r4]
    f6ac:	e3a01000 	mov	r1, #0
    f6b0:	e2800981 	add	r0, r0, #2113536	; 0x204000
    f6b4:	ebffe395 	bl	8510 <PUT32>
    f6b8:	e2566001 	subs	r6, r6, #1
    f6bc:	1affffc9 	bne	f5e8 <spi_init+0x13d0>
    f6c0:	e2855001 	add	r5, r5, #1
    f6c4:	e35500f0 	cmp	r5, #240	; 0xf0
    f6c8:	1afffea5 	bne	f164 <spi_init+0xf4c>
    f6cc:	e51f2590 	ldr	r2, [pc, #-1424]	; f144 <spi_init+0xf2c>
    f6d0:	e51f1590 	ldr	r1, [pc, #-1424]	; f148 <spi_init+0xf30>
    f6d4:	e5d23000 	ldrb	r3, [r2]
    f6d8:	e5d20001 	ldrb	r0, [r2, #1]
    f6dc:	e1833400 	orr	r3, r3, r0, lsl #8
    f6e0:	e1530001 	cmp	r3, r1
    f6e4:	0a000308 	beq	1030c <spi_init+0x20f4>
    f6e8:	e3a00002 	mov	r0, #2
    f6ec:	ebffe965 	bl	9c88 <GetFont>
    f6f0:	e250b000 	subs	fp, r0, #0
    f6f4:	0a000302 	beq	10304 <spi_init+0x20ec>
    f6f8:	e3a03032 	mov	r3, #50	; 0x32
    f6fc:	e3a01055 	mov	r1, #85	; 0x55
    f700:	e58d3008 	str	r3, [sp, #8]
    f704:	e51f35c0 	ldr	r3, [pc, #-1472]	; f14c <spi_init+0xf34>
    f708:	e58d300c 	str	r3, [sp, #12]
    f70c:	e5db2002 	ldrb	r2, [fp, #2]
    f710:	e1510002 	cmp	r1, r2
    f714:	3a0002f0 	bcc	102dc <spi_init+0x20c4>
    f718:	e5db3003 	ldrb	r3, [fp, #3]
    f71c:	e1530001 	cmp	r3, r1
    f720:	3a0002ed 	bcc	102dc <spi_init+0x20c4>
    f724:	e5db3001 	ldrb	r3, [fp, #1]
    f728:	e0411002 	sub	r1, r1, r2
    f72c:	e243c001 	sub	ip, r3, #1
    f730:	e5db0004 	ldrb	r0, [fp, #4]
    f734:	e59b200c 	ldr	r2, [fp, #12]
    f738:	e37c0001 	cmn	ip, #1
    f73c:	e58dc004 	str	ip, [sp, #4]
    f740:	e0222091 	mla	r2, r1, r0, r2
    f744:	0a0002e4 	beq	102dc <spi_init+0x20c4>
    f748:	e59d1008 	ldr	r1, [sp, #8]
    f74c:	e1a00421 	lsr	r0, r1, #8
    f750:	e58d0010 	str	r0, [sp, #16]
    f754:	e1a0000c 	mov	r0, ip
    f758:	e6ef1071 	uxtb	r1, r1
    f75c:	e58d1014 	str	r1, [sp, #20]
    f760:	e1da60b0 	ldrh	r6, [sl]
    f764:	e3a01000 	mov	r1, #0
    f768:	e2466064 	sub	r6, r6, #100	; 0x64
    f76c:	e0866000 	add	r6, r6, r0
    f770:	e3a00019 	mov	r0, #25
    f774:	e0466003 	sub	r6, r6, r3
    f778:	e2829001 	add	r9, r2, #1
    f77c:	e5d25000 	ldrb	r5, [r2]
    f780:	ebffe4ab 	bl	8a34 <gpio_output>
    f784:	e5940000 	ldr	r0, [r4]
    f788:	e3a010b0 	mov	r1, #176	; 0xb0
    f78c:	e2800981 	add	r0, r0, #2113536	; 0x204000
    f790:	e6ff6076 	uxth	r6, r6
    f794:	ebffe35d 	bl	8510 <PUT32>
    f798:	e5940000 	ldr	r0, [r4]
    f79c:	e2800981 	add	r0, r0, #2113536	; 0x204000
    f7a0:	ebffe35c 	bl	8518 <GET32>
    f7a4:	e3100701 	tst	r0, #262144	; 0x40000
    f7a8:	0afffffa 	beq	f798 <spi_init+0x1580>
    f7ac:	e5940000 	ldr	r0, [r4]
    f7b0:	e3a0102a 	mov	r1, #42	; 0x2a
    f7b4:	e2800981 	add	r0, r0, #2113536	; 0x204000
    f7b8:	e2800004 	add	r0, r0, #4
    f7bc:	ebffe353 	bl	8510 <PUT32>
    f7c0:	e5940000 	ldr	r0, [r4]
    f7c4:	e2800981 	add	r0, r0, #2113536	; 0x204000
    f7c8:	ebffe352 	bl	8518 <GET32>
    f7cc:	e3100801 	tst	r0, #65536	; 0x10000
    f7d0:	0afffffa 	beq	f7c0 <spi_init+0x15a8>
    f7d4:	e5940000 	ldr	r0, [r4]
    f7d8:	e3a01000 	mov	r1, #0
    f7dc:	e2800981 	add	r0, r0, #2113536	; 0x204000
    f7e0:	ebffe34a 	bl	8510 <PUT32>
    f7e4:	e3a01001 	mov	r1, #1
    f7e8:	e3a00019 	mov	r0, #25
    f7ec:	ebffe490 	bl	8a34 <gpio_output>
    f7f0:	e5940000 	ldr	r0, [r4]
    f7f4:	e3a010b0 	mov	r1, #176	; 0xb0
    f7f8:	e2800981 	add	r0, r0, #2113536	; 0x204000
    f7fc:	e1a07426 	lsr	r7, r6, #8
    f800:	e6ef6076 	uxtb	r6, r6
    f804:	ebffe341 	bl	8510 <PUT32>
    f808:	e5940000 	ldr	r0, [r4]
    f80c:	e2800981 	add	r0, r0, #2113536	; 0x204000
    f810:	ebffe340 	bl	8518 <GET32>
    f814:	e3100701 	tst	r0, #262144	; 0x40000
    f818:	0afffffa 	beq	f808 <spi_init+0x15f0>
    f81c:	e5940000 	ldr	r0, [r4]
    f820:	e1a01007 	mov	r1, r7
    f824:	e2800981 	add	r0, r0, #2113536	; 0x204000
    f828:	e2800004 	add	r0, r0, #4
    f82c:	ebffe337 	bl	8510 <PUT32>
    f830:	e5940000 	ldr	r0, [r4]
    f834:	e2800981 	add	r0, r0, #2113536	; 0x204000
    f838:	ebffe336 	bl	8518 <GET32>
    f83c:	e3100801 	tst	r0, #65536	; 0x10000
    f840:	0afffffa 	beq	f830 <spi_init+0x1618>
    f844:	e5940000 	ldr	r0, [r4]
    f848:	e3a01000 	mov	r1, #0
    f84c:	e2800981 	add	r0, r0, #2113536	; 0x204000
    f850:	ebffe32e 	bl	8510 <PUT32>
    f854:	e3a01001 	mov	r1, #1
    f858:	e3a00019 	mov	r0, #25
    f85c:	ebffe474 	bl	8a34 <gpio_output>
    f860:	e5940000 	ldr	r0, [r4]
    f864:	e3a010b0 	mov	r1, #176	; 0xb0
    f868:	e2800981 	add	r0, r0, #2113536	; 0x204000
    f86c:	ebffe327 	bl	8510 <PUT32>
    f870:	e5940000 	ldr	r0, [r4]
    f874:	e2800981 	add	r0, r0, #2113536	; 0x204000
    f878:	ebffe326 	bl	8518 <GET32>
    f87c:	e3100701 	tst	r0, #262144	; 0x40000
    f880:	0afffffa 	beq	f870 <spi_init+0x1658>
    f884:	e5940000 	ldr	r0, [r4]
    f888:	e1a01006 	mov	r1, r6
    f88c:	e2800981 	add	r0, r0, #2113536	; 0x204000
    f890:	e2800004 	add	r0, r0, #4
    f894:	ebffe31d 	bl	8510 <PUT32>
    f898:	e5940000 	ldr	r0, [r4]
    f89c:	e2800981 	add	r0, r0, #2113536	; 0x204000
    f8a0:	ebffe31c 	bl	8518 <GET32>
    f8a4:	e3100801 	tst	r0, #65536	; 0x10000
    f8a8:	0afffffa 	beq	f898 <spi_init+0x1680>
    f8ac:	e5940000 	ldr	r0, [r4]
    f8b0:	e3a01000 	mov	r1, #0
    f8b4:	e2800981 	add	r0, r0, #2113536	; 0x204000
    f8b8:	ebffe314 	bl	8510 <PUT32>
    f8bc:	e3a01001 	mov	r1, #1
    f8c0:	e3a00019 	mov	r0, #25
    f8c4:	ebffe45a 	bl	8a34 <gpio_output>
    f8c8:	e5940000 	ldr	r0, [r4]
    f8cc:	e3a010b0 	mov	r1, #176	; 0xb0
    f8d0:	e2800981 	add	r0, r0, #2113536	; 0x204000
    f8d4:	ebffe30d 	bl	8510 <PUT32>
    f8d8:	e5940000 	ldr	r0, [r4]
    f8dc:	e2800981 	add	r0, r0, #2113536	; 0x204000
    f8e0:	ebffe30c 	bl	8518 <GET32>
    f8e4:	e3100701 	tst	r0, #262144	; 0x40000
    f8e8:	0afffffa 	beq	f8d8 <spi_init+0x16c0>
    f8ec:	e5940000 	ldr	r0, [r4]
    f8f0:	e1a01007 	mov	r1, r7
    f8f4:	e2800981 	add	r0, r0, #2113536	; 0x204000
    f8f8:	e2800004 	add	r0, r0, #4
    f8fc:	ebffe303 	bl	8510 <PUT32>
    f900:	e5940000 	ldr	r0, [r4]
    f904:	e2800981 	add	r0, r0, #2113536	; 0x204000
    f908:	ebffe302 	bl	8518 <GET32>
    f90c:	e3100801 	tst	r0, #65536	; 0x10000
    f910:	0afffffa 	beq	f900 <spi_init+0x16e8>
    f914:	e5940000 	ldr	r0, [r4]
    f918:	e3a01000 	mov	r1, #0
    f91c:	e2800981 	add	r0, r0, #2113536	; 0x204000
    f920:	ebffe2fa 	bl	8510 <PUT32>
    f924:	e3a01001 	mov	r1, #1
    f928:	e3a00019 	mov	r0, #25
    f92c:	ebffe440 	bl	8a34 <gpio_output>
    f930:	e5940000 	ldr	r0, [r4]
    f934:	e3a010b0 	mov	r1, #176	; 0xb0
    f938:	e2800981 	add	r0, r0, #2113536	; 0x204000
    f93c:	ebffe2f3 	bl	8510 <PUT32>
    f940:	e5940000 	ldr	r0, [r4]
    f944:	e2800981 	add	r0, r0, #2113536	; 0x204000
    f948:	ebffe2f2 	bl	8518 <GET32>
    f94c:	e3100701 	tst	r0, #262144	; 0x40000
    f950:	0afffffa 	beq	f940 <spi_init+0x1728>
    f954:	e5940000 	ldr	r0, [r4]
    f958:	e1a01006 	mov	r1, r6
    f95c:	e2800981 	add	r0, r0, #2113536	; 0x204000
    f960:	e2800004 	add	r0, r0, #4
    f964:	ebffe2e9 	bl	8510 <PUT32>
    f968:	e5940000 	ldr	r0, [r4]
    f96c:	e2800981 	add	r0, r0, #2113536	; 0x204000
    f970:	ebffe2e8 	bl	8518 <GET32>
    f974:	e3100801 	tst	r0, #65536	; 0x10000
    f978:	0afffffa 	beq	f968 <spi_init+0x1750>
    f97c:	e5940000 	ldr	r0, [r4]
    f980:	e3a01000 	mov	r1, #0
    f984:	e2800981 	add	r0, r0, #2113536	; 0x204000
    f988:	ebffe2e0 	bl	8510 <PUT32>
    f98c:	e5db6000 	ldrb	r6, [fp]
    f990:	e59d3008 	ldr	r3, [sp, #8]
    f994:	e3a01000 	mov	r1, #0
    f998:	e3a00019 	mov	r0, #25
    f99c:	e0836006 	add	r6, r3, r6
    f9a0:	ebffe423 	bl	8a34 <gpio_output>
    f9a4:	e5940000 	ldr	r0, [r4]
    f9a8:	e3a010b0 	mov	r1, #176	; 0xb0
    f9ac:	e2800981 	add	r0, r0, #2113536	; 0x204000
    f9b0:	e6ff6076 	uxth	r6, r6
    f9b4:	ebffe2d5 	bl	8510 <PUT32>
    f9b8:	e5940000 	ldr	r0, [r4]
    f9bc:	e2800981 	add	r0, r0, #2113536	; 0x204000
    f9c0:	ebffe2d4 	bl	8518 <GET32>
    f9c4:	e3100701 	tst	r0, #262144	; 0x40000
    f9c8:	0afffffa 	beq	f9b8 <spi_init+0x17a0>
    f9cc:	e5940000 	ldr	r0, [r4]
    f9d0:	e3a0102b 	mov	r1, #43	; 0x2b
    f9d4:	e2800981 	add	r0, r0, #2113536	; 0x204000
    f9d8:	e2800004 	add	r0, r0, #4
    f9dc:	ebffe2cb 	bl	8510 <PUT32>
    f9e0:	e5940000 	ldr	r0, [r4]
    f9e4:	e2800981 	add	r0, r0, #2113536	; 0x204000
    f9e8:	ebffe2ca 	bl	8518 <GET32>
    f9ec:	e3100801 	tst	r0, #65536	; 0x10000
    f9f0:	0afffffa 	beq	f9e0 <spi_init+0x17c8>
    f9f4:	e5940000 	ldr	r0, [r4]
    f9f8:	e3a01000 	mov	r1, #0
    f9fc:	e2800981 	add	r0, r0, #2113536	; 0x204000
    fa00:	ebffe2c2 	bl	8510 <PUT32>
    fa04:	e3a01001 	mov	r1, #1
    fa08:	e3a00019 	mov	r0, #25
    fa0c:	ebffe408 	bl	8a34 <gpio_output>
    fa10:	e5940000 	ldr	r0, [r4]
    fa14:	e3a010b0 	mov	r1, #176	; 0xb0
    fa18:	e2800981 	add	r0, r0, #2113536	; 0x204000
    fa1c:	ebffe2bb 	bl	8510 <PUT32>
    fa20:	e5940000 	ldr	r0, [r4]
    fa24:	e2800981 	add	r0, r0, #2113536	; 0x204000
    fa28:	ebffe2ba 	bl	8518 <GET32>
    fa2c:	e3100701 	tst	r0, #262144	; 0x40000
    fa30:	0afffffa 	beq	fa20 <spi_init+0x1808>
    fa34:	e5940000 	ldr	r0, [r4]
    fa38:	e59d1010 	ldr	r1, [sp, #16]
    fa3c:	e2800981 	add	r0, r0, #2113536	; 0x204000
    fa40:	e2800004 	add	r0, r0, #4
    fa44:	ebffe2b1 	bl	8510 <PUT32>
    fa48:	e5940000 	ldr	r0, [r4]
    fa4c:	e2800981 	add	r0, r0, #2113536	; 0x204000
    fa50:	ebffe2b0 	bl	8518 <GET32>
    fa54:	e3100801 	tst	r0, #65536	; 0x10000
    fa58:	0afffffa 	beq	fa48 <spi_init+0x1830>
    fa5c:	e5940000 	ldr	r0, [r4]
    fa60:	e3a01000 	mov	r1, #0
    fa64:	e2800981 	add	r0, r0, #2113536	; 0x204000
    fa68:	ebffe2a8 	bl	8510 <PUT32>
    fa6c:	e3a01001 	mov	r1, #1
    fa70:	e3a00019 	mov	r0, #25
    fa74:	ebffe3ee 	bl	8a34 <gpio_output>
    fa78:	e5940000 	ldr	r0, [r4]
    fa7c:	e3a010b0 	mov	r1, #176	; 0xb0
    fa80:	e2800981 	add	r0, r0, #2113536	; 0x204000
    fa84:	ebffe2a1 	bl	8510 <PUT32>
    fa88:	e5940000 	ldr	r0, [r4]
    fa8c:	e2800981 	add	r0, r0, #2113536	; 0x204000
    fa90:	ebffe2a0 	bl	8518 <GET32>
    fa94:	e3100701 	tst	r0, #262144	; 0x40000
    fa98:	0afffffa 	beq	fa88 <spi_init+0x1870>
    fa9c:	e5940000 	ldr	r0, [r4]
    faa0:	e59d1014 	ldr	r1, [sp, #20]
    faa4:	e2800981 	add	r0, r0, #2113536	; 0x204000
    faa8:	e2800004 	add	r0, r0, #4
    faac:	ebffe297 	bl	8510 <PUT32>
    fab0:	e5940000 	ldr	r0, [r4]
    fab4:	e2800981 	add	r0, r0, #2113536	; 0x204000
    fab8:	ebffe296 	bl	8518 <GET32>
    fabc:	e3100801 	tst	r0, #65536	; 0x10000
    fac0:	0afffffa 	beq	fab0 <spi_init+0x1898>
    fac4:	e5940000 	ldr	r0, [r4]
    fac8:	e3a01000 	mov	r1, #0
    facc:	e2800981 	add	r0, r0, #2113536	; 0x204000
    fad0:	ebffe28e 	bl	8510 <PUT32>
    fad4:	e3a01001 	mov	r1, #1
    fad8:	e3a00019 	mov	r0, #25
    fadc:	ebffe3d4 	bl	8a34 <gpio_output>
    fae0:	e5940000 	ldr	r0, [r4]
    fae4:	e3a010b0 	mov	r1, #176	; 0xb0
    fae8:	e2800981 	add	r0, r0, #2113536	; 0x204000
    faec:	e1a07426 	lsr	r7, r6, #8
    faf0:	e6ef6076 	uxtb	r6, r6
    faf4:	ebffe285 	bl	8510 <PUT32>
    faf8:	e5940000 	ldr	r0, [r4]
    fafc:	e2800981 	add	r0, r0, #2113536	; 0x204000
    fb00:	ebffe284 	bl	8518 <GET32>
    fb04:	e3100701 	tst	r0, #262144	; 0x40000
    fb08:	0afffffa 	beq	faf8 <spi_init+0x18e0>
    fb0c:	e5940000 	ldr	r0, [r4]
    fb10:	e1a01007 	mov	r1, r7
    fb14:	e2800981 	add	r0, r0, #2113536	; 0x204000
    fb18:	e2800004 	add	r0, r0, #4
    fb1c:	ebffe27b 	bl	8510 <PUT32>
    fb20:	e5940000 	ldr	r0, [r4]
    fb24:	e2800981 	add	r0, r0, #2113536	; 0x204000
    fb28:	ebffe27a 	bl	8518 <GET32>
    fb2c:	e3100801 	tst	r0, #65536	; 0x10000
    fb30:	0afffffa 	beq	fb20 <spi_init+0x1908>
    fb34:	e5940000 	ldr	r0, [r4]
    fb38:	e3a01000 	mov	r1, #0
    fb3c:	e2800981 	add	r0, r0, #2113536	; 0x204000
    fb40:	ebffe272 	bl	8510 <PUT32>
    fb44:	e3a01001 	mov	r1, #1
    fb48:	e3a00019 	mov	r0, #25
    fb4c:	ebffe3b8 	bl	8a34 <gpio_output>
    fb50:	e5940000 	ldr	r0, [r4]
    fb54:	e3a010b0 	mov	r1, #176	; 0xb0
    fb58:	e2800981 	add	r0, r0, #2113536	; 0x204000
    fb5c:	ebffe26b 	bl	8510 <PUT32>
    fb60:	e5940000 	ldr	r0, [r4]
    fb64:	e2800981 	add	r0, r0, #2113536	; 0x204000
    fb68:	ebffe26a 	bl	8518 <GET32>
    fb6c:	e3100701 	tst	r0, #262144	; 0x40000
    fb70:	0afffffa 	beq	fb60 <spi_init+0x1948>
    fb74:	e5940000 	ldr	r0, [r4]
    fb78:	e1a01006 	mov	r1, r6
    fb7c:	e2800981 	add	r0, r0, #2113536	; 0x204000
    fb80:	e2800004 	add	r0, r0, #4
    fb84:	ebffe261 	bl	8510 <PUT32>
    fb88:	e5940000 	ldr	r0, [r4]
    fb8c:	e2800981 	add	r0, r0, #2113536	; 0x204000
    fb90:	ebffe260 	bl	8518 <GET32>
    fb94:	e3100801 	tst	r0, #65536	; 0x10000
    fb98:	0afffffa 	beq	fb88 <spi_init+0x1970>
    fb9c:	e5940000 	ldr	r0, [r4]
    fba0:	e3a01000 	mov	r1, #0
    fba4:	e2800981 	add	r0, r0, #2113536	; 0x204000
    fba8:	ebffe258 	bl	8510 <PUT32>
    fbac:	e3a01000 	mov	r1, #0
    fbb0:	e3a00019 	mov	r0, #25
    fbb4:	ebffe39e 	bl	8a34 <gpio_output>
    fbb8:	e5940000 	ldr	r0, [r4]
    fbbc:	e3a010b0 	mov	r1, #176	; 0xb0
    fbc0:	e2800981 	add	r0, r0, #2113536	; 0x204000
    fbc4:	ebffe251 	bl	8510 <PUT32>
    fbc8:	e5940000 	ldr	r0, [r4]
    fbcc:	e2800981 	add	r0, r0, #2113536	; 0x204000
    fbd0:	ebffe250 	bl	8518 <GET32>
    fbd4:	e3100701 	tst	r0, #262144	; 0x40000
    fbd8:	0afffffa 	beq	fbc8 <spi_init+0x19b0>
    fbdc:	e5940000 	ldr	r0, [r4]
    fbe0:	e3a0102c 	mov	r1, #44	; 0x2c
    fbe4:	e2800981 	add	r0, r0, #2113536	; 0x204000
    fbe8:	e2800004 	add	r0, r0, #4
    fbec:	ebffe247 	bl	8510 <PUT32>
    fbf0:	e5940000 	ldr	r0, [r4]
    fbf4:	e2800981 	add	r0, r0, #2113536	; 0x204000
    fbf8:	ebffe246 	bl	8518 <GET32>
    fbfc:	e3100801 	tst	r0, #65536	; 0x10000
    fc00:	0afffffa 	beq	fbf0 <spi_init+0x19d8>
    fc04:	e5940000 	ldr	r0, [r4]
    fc08:	e3a01000 	mov	r1, #0
    fc0c:	e2800981 	add	r0, r0, #2113536	; 0x204000
    fc10:	ebffe23e 	bl	8510 <PUT32>
    fc14:	e5db3000 	ldrb	r3, [fp]
    fc18:	e3530000 	cmp	r3, #0
    fc1c:	0a000048 	beq	fd44 <spi_init+0x1b2c>
    fc20:	e3a06000 	mov	r6, #0
    fc24:	e6af3075 	sxtb	r3, r5
    fc28:	e3530000 	cmp	r3, #0
    fc2c:	e3a01001 	mov	r1, #1
    fc30:	e3a00019 	mov	r0, #25
    fc34:	b3a080ff 	movlt	r8, #255	; 0xff
    fc38:	a3a08000 	movge	r8, #0
    fc3c:	b3a070e0 	movlt	r7, #224	; 0xe0
    fc40:	a3a0701f 	movge	r7, #31
    fc44:	ebffe37a 	bl	8a34 <gpio_output>
    fc48:	e5940000 	ldr	r0, [r4]
    fc4c:	e3a010b0 	mov	r1, #176	; 0xb0
    fc50:	e2800981 	add	r0, r0, #2113536	; 0x204000
    fc54:	ebffe22d 	bl	8510 <PUT32>
    fc58:	e5940000 	ldr	r0, [r4]
    fc5c:	e2800981 	add	r0, r0, #2113536	; 0x204000
    fc60:	ebffe22c 	bl	8518 <GET32>
    fc64:	e3100701 	tst	r0, #262144	; 0x40000
    fc68:	0afffffa 	beq	fc58 <spi_init+0x1a40>
    fc6c:	e5940000 	ldr	r0, [r4]
    fc70:	e1a01008 	mov	r1, r8
    fc74:	e2800981 	add	r0, r0, #2113536	; 0x204000
    fc78:	e2800004 	add	r0, r0, #4
    fc7c:	ebffe223 	bl	8510 <PUT32>
    fc80:	e5940000 	ldr	r0, [r4]
    fc84:	e2800981 	add	r0, r0, #2113536	; 0x204000
    fc88:	ebffe222 	bl	8518 <GET32>
    fc8c:	e3100801 	tst	r0, #65536	; 0x10000
    fc90:	0afffffa 	beq	fc80 <spi_init+0x1a68>
    fc94:	e5940000 	ldr	r0, [r4]
    fc98:	e3a01000 	mov	r1, #0
    fc9c:	e2800981 	add	r0, r0, #2113536	; 0x204000
    fca0:	ebffe21a 	bl	8510 <PUT32>
    fca4:	e3a01001 	mov	r1, #1
    fca8:	e3a00019 	mov	r0, #25
    fcac:	ebffe360 	bl	8a34 <gpio_output>
    fcb0:	e5940000 	ldr	r0, [r4]
    fcb4:	e3a010b0 	mov	r1, #176	; 0xb0
    fcb8:	e2800981 	add	r0, r0, #2113536	; 0x204000
    fcbc:	ebffe213 	bl	8510 <PUT32>
    fcc0:	e5940000 	ldr	r0, [r4]
    fcc4:	e2800981 	add	r0, r0, #2113536	; 0x204000
    fcc8:	ebffe212 	bl	8518 <GET32>
    fccc:	e3100701 	tst	r0, #262144	; 0x40000
    fcd0:	0afffffa 	beq	fcc0 <spi_init+0x1aa8>
    fcd4:	e5940000 	ldr	r0, [r4]
    fcd8:	e1a01007 	mov	r1, r7
    fcdc:	e2800981 	add	r0, r0, #2113536	; 0x204000
    fce0:	e2800004 	add	r0, r0, #4
    fce4:	ebffe209 	bl	8510 <PUT32>
    fce8:	e5940000 	ldr	r0, [r4]
    fcec:	e2800981 	add	r0, r0, #2113536	; 0x204000
    fcf0:	ebffe208 	bl	8518 <GET32>
    fcf4:	e3100801 	tst	r0, #65536	; 0x10000
    fcf8:	0afffffa 	beq	fce8 <spi_init+0x1ad0>
    fcfc:	e5940000 	ldr	r0, [r4]
    fd00:	e3a01000 	mov	r1, #0
    fd04:	e2800981 	add	r0, r0, #2113536	; 0x204000
    fd08:	ebffe200 	bl	8510 <PUT32>
    fd0c:	e3160007 	tst	r6, #7
    fd10:	03a03001 	moveq	r3, #1
    fd14:	13a03000 	movne	r3, #0
    fd18:	e3560000 	cmp	r6, #0
    fd1c:	03a03000 	moveq	r3, #0
    fd20:	e3530000 	cmp	r3, #0
    fd24:	e5db3000 	ldrb	r3, [fp]
    fd28:	e1a05085 	lsl	r5, r5, #1
    fd2c:	e2866001 	add	r6, r6, #1
    fd30:	e6ef5075 	uxtb	r5, r5
    fd34:	15d95000 	ldrbne	r5, [r9]
    fd38:	12899001 	addne	r9, r9, #1
    fd3c:	e1560003 	cmp	r6, r3
    fd40:	baffffb7 	blt	fc24 <spi_init+0x1a0c>
    fd44:	e59d2004 	ldr	r2, [sp, #4]
    fd48:	e2422001 	sub	r2, r2, #1
    fd4c:	e3720001 	cmn	r2, #1
    fd50:	e58d2004 	str	r2, [sp, #4]
    fd54:	0a000161 	beq	102e0 <spi_init+0x20c8>
    fd58:	e1a02009 	mov	r2, r9
    fd5c:	e5db3001 	ldrb	r3, [fp, #1]
    fd60:	e59d0004 	ldr	r0, [sp, #4]
    fd64:	eafffe7d 	b	f760 <spi_init+0x1548>
    fd68:	e3a01000 	mov	r1, #0
    fd6c:	e3a00019 	mov	r0, #25
    fd70:	ebffe32f 	bl	8a34 <gpio_output>
    fd74:	e5940000 	ldr	r0, [r4]
    fd78:	e3a010b0 	mov	r1, #176	; 0xb0
    fd7c:	e2800981 	add	r0, r0, #2113536	; 0x204000
    fd80:	ebffe1e2 	bl	8510 <PUT32>
    fd84:	e5940000 	ldr	r0, [r4]
    fd88:	e2800981 	add	r0, r0, #2113536	; 0x204000
    fd8c:	ebffe1e1 	bl	8518 <GET32>
    fd90:	e3100701 	tst	r0, #262144	; 0x40000
    fd94:	0afffffa 	beq	fd84 <spi_init+0x1b6c>
    fd98:	e5940000 	ldr	r0, [r4]
    fd9c:	e3a0102a 	mov	r1, #42	; 0x2a
    fda0:	e2800981 	add	r0, r0, #2113536	; 0x204000
    fda4:	e2800004 	add	r0, r0, #4
    fda8:	ebffe1d8 	bl	8510 <PUT32>
    fdac:	e5940000 	ldr	r0, [r4]
    fdb0:	e2800981 	add	r0, r0, #2113536	; 0x204000
    fdb4:	ebffe1d7 	bl	8518 <GET32>
    fdb8:	e3100801 	tst	r0, #65536	; 0x10000
    fdbc:	0afffffa 	beq	fdac <spi_init+0x1b94>
    fdc0:	e5940000 	ldr	r0, [r4]
    fdc4:	e3a01000 	mov	r1, #0
    fdc8:	e2800981 	add	r0, r0, #2113536	; 0x204000
    fdcc:	ebffe1cf 	bl	8510 <PUT32>
    fdd0:	e3a01001 	mov	r1, #1
    fdd4:	e3a00019 	mov	r0, #25
    fdd8:	ebffe315 	bl	8a34 <gpio_output>
    fddc:	e5940000 	ldr	r0, [r4]
    fde0:	e3a010b0 	mov	r1, #176	; 0xb0
    fde4:	e2800981 	add	r0, r0, #2113536	; 0x204000
    fde8:	ebffe1c8 	bl	8510 <PUT32>
    fdec:	e5940000 	ldr	r0, [r4]
    fdf0:	e2800981 	add	r0, r0, #2113536	; 0x204000
    fdf4:	ebffe1c7 	bl	8518 <GET32>
    fdf8:	e3100701 	tst	r0, #262144	; 0x40000
    fdfc:	0afffffa 	beq	fdec <spi_init+0x1bd4>
    fe00:	e5940000 	ldr	r0, [r4]
    fe04:	e3a01000 	mov	r1, #0
    fe08:	e2800981 	add	r0, r0, #2113536	; 0x204000
    fe0c:	e2800004 	add	r0, r0, #4
    fe10:	ebffe1be 	bl	8510 <PUT32>
    fe14:	e5940000 	ldr	r0, [r4]
    fe18:	e2800981 	add	r0, r0, #2113536	; 0x204000
    fe1c:	ebffe1bd 	bl	8518 <GET32>
    fe20:	e3100801 	tst	r0, #65536	; 0x10000
    fe24:	0afffffa 	beq	fe14 <spi_init+0x1bfc>
    fe28:	e5940000 	ldr	r0, [r4]
    fe2c:	e3a01000 	mov	r1, #0
    fe30:	e2800981 	add	r0, r0, #2113536	; 0x204000
    fe34:	ebffe1b5 	bl	8510 <PUT32>
    fe38:	e3a01001 	mov	r1, #1
    fe3c:	e3a00019 	mov	r0, #25
    fe40:	ebffe2fb 	bl	8a34 <gpio_output>
    fe44:	e5940000 	ldr	r0, [r4]
    fe48:	e3a010b0 	mov	r1, #176	; 0xb0
    fe4c:	e2800981 	add	r0, r0, #2113536	; 0x204000
    fe50:	ebffe1ae 	bl	8510 <PUT32>
    fe54:	e5940000 	ldr	r0, [r4]
    fe58:	e2800981 	add	r0, r0, #2113536	; 0x204000
    fe5c:	ebffe1ad 	bl	8518 <GET32>
    fe60:	e3100701 	tst	r0, #262144	; 0x40000
    fe64:	0afffffa 	beq	fe54 <spi_init+0x1c3c>
    fe68:	e5940000 	ldr	r0, [r4]
    fe6c:	e1a01005 	mov	r1, r5
    fe70:	e2800981 	add	r0, r0, #2113536	; 0x204000
    fe74:	e2800004 	add	r0, r0, #4
    fe78:	ebffe1a4 	bl	8510 <PUT32>
    fe7c:	e5940000 	ldr	r0, [r4]
    fe80:	e2800981 	add	r0, r0, #2113536	; 0x204000
    fe84:	ebffe1a3 	bl	8518 <GET32>
    fe88:	e3100801 	tst	r0, #65536	; 0x10000
    fe8c:	0afffffa 	beq	fe7c <spi_init+0x1c64>
    fe90:	e5940000 	ldr	r0, [r4]
    fe94:	e3a01000 	mov	r1, #0
    fe98:	e2800981 	add	r0, r0, #2113536	; 0x204000
    fe9c:	ebffe19b 	bl	8510 <PUT32>
    fea0:	e3a01001 	mov	r1, #1
    fea4:	e3a00019 	mov	r0, #25
    fea8:	ebffe2e1 	bl	8a34 <gpio_output>
    feac:	e5940000 	ldr	r0, [r4]
    feb0:	e3a010b0 	mov	r1, #176	; 0xb0
    feb4:	e2800981 	add	r0, r0, #2113536	; 0x204000
    feb8:	ebffe194 	bl	8510 <PUT32>
    febc:	e5940000 	ldr	r0, [r4]
    fec0:	e2800981 	add	r0, r0, #2113536	; 0x204000
    fec4:	ebffe193 	bl	8518 <GET32>
    fec8:	e3100701 	tst	r0, #262144	; 0x40000
    fecc:	0afffffa 	beq	febc <spi_init+0x1ca4>
    fed0:	e5940000 	ldr	r0, [r4]
    fed4:	e3a01000 	mov	r1, #0
    fed8:	e2800981 	add	r0, r0, #2113536	; 0x204000
    fedc:	e2800004 	add	r0, r0, #4
    fee0:	ebffe18a 	bl	8510 <PUT32>
    fee4:	e5940000 	ldr	r0, [r4]
    fee8:	e2800981 	add	r0, r0, #2113536	; 0x204000
    feec:	ebffe189 	bl	8518 <GET32>
    fef0:	e3100801 	tst	r0, #65536	; 0x10000
    fef4:	0afffffa 	beq	fee4 <spi_init+0x1ccc>
    fef8:	e5940000 	ldr	r0, [r4]
    fefc:	e3a01000 	mov	r1, #0
    ff00:	e2800981 	add	r0, r0, #2113536	; 0x204000
    ff04:	ebffe181 	bl	8510 <PUT32>
    ff08:	e3a01001 	mov	r1, #1
    ff0c:	e3a00019 	mov	r0, #25
    ff10:	ebffe2c7 	bl	8a34 <gpio_output>
    ff14:	e5940000 	ldr	r0, [r4]
    ff18:	e3a010b0 	mov	r1, #176	; 0xb0
    ff1c:	e2800981 	add	r0, r0, #2113536	; 0x204000
    ff20:	ebffe17a 	bl	8510 <PUT32>
    ff24:	e5940000 	ldr	r0, [r4]
    ff28:	e2800981 	add	r0, r0, #2113536	; 0x204000
    ff2c:	ebffe179 	bl	8518 <GET32>
    ff30:	e3100701 	tst	r0, #262144	; 0x40000
    ff34:	0afffffa 	beq	ff24 <spi_init+0x1d0c>
    ff38:	e5940000 	ldr	r0, [r4]
    ff3c:	e1a01005 	mov	r1, r5
    ff40:	e2800981 	add	r0, r0, #2113536	; 0x204000
    ff44:	e2800004 	add	r0, r0, #4
    ff48:	ebffe170 	bl	8510 <PUT32>
    ff4c:	e5940000 	ldr	r0, [r4]
    ff50:	e2800981 	add	r0, r0, #2113536	; 0x204000
    ff54:	ebffe16f 	bl	8518 <GET32>
    ff58:	e3100801 	tst	r0, #65536	; 0x10000
    ff5c:	0afffffa 	beq	ff4c <spi_init+0x1d34>
    ff60:	e5940000 	ldr	r0, [r4]
    ff64:	e3a01000 	mov	r1, #0
    ff68:	e2800981 	add	r0, r0, #2113536	; 0x204000
    ff6c:	ebffe167 	bl	8510 <PUT32>
    ff70:	e3a01000 	mov	r1, #0
    ff74:	e3a00019 	mov	r0, #25
    ff78:	e1da60b8 	ldrh	r6, [sl, #8]
    ff7c:	ebffe2ac 	bl	8a34 <gpio_output>
    ff80:	e5940000 	ldr	r0, [r4]
    ff84:	e2467d05 	sub	r7, r6, #320	; 0x140
    ff88:	e3a010b0 	mov	r1, #176	; 0xb0
    ff8c:	e2800981 	add	r0, r0, #2113536	; 0x204000
    ff90:	e6ff7077 	uxth	r7, r7
    ff94:	ebffe15d 	bl	8510 <PUT32>
    ff98:	e5940000 	ldr	r0, [r4]
    ff9c:	e2800981 	add	r0, r0, #2113536	; 0x204000
    ffa0:	ebffe15c 	bl	8518 <GET32>
    ffa4:	e3100701 	tst	r0, #262144	; 0x40000
    ffa8:	0afffffa 	beq	ff98 <spi_init+0x1d80>
    ffac:	e5940000 	ldr	r0, [r4]
    ffb0:	e3a0102b 	mov	r1, #43	; 0x2b
    ffb4:	e2800981 	add	r0, r0, #2113536	; 0x204000
    ffb8:	e2800004 	add	r0, r0, #4
    ffbc:	ebffe153 	bl	8510 <PUT32>
    ffc0:	e5940000 	ldr	r0, [r4]
    ffc4:	e2800981 	add	r0, r0, #2113536	; 0x204000
    ffc8:	ebffe152 	bl	8518 <GET32>
    ffcc:	e3100801 	tst	r0, #65536	; 0x10000
    ffd0:	0afffffa 	beq	ffc0 <spi_init+0x1da8>
    ffd4:	e5940000 	ldr	r0, [r4]
    ffd8:	e3a01000 	mov	r1, #0
    ffdc:	e2800981 	add	r0, r0, #2113536	; 0x204000
    ffe0:	ebffe14a 	bl	8510 <PUT32>
    ffe4:	e3a01001 	mov	r1, #1
    ffe8:	e3a00019 	mov	r0, #25
    ffec:	ebffe290 	bl	8a34 <gpio_output>
    fff0:	e5940000 	ldr	r0, [r4]
    fff4:	e3a010b0 	mov	r1, #176	; 0xb0
    fff8:	e2800981 	add	r0, r0, #2113536	; 0x204000
    fffc:	e1a08427 	lsr	r8, r7, #8
   10000:	e6ef7077 	uxtb	r7, r7
   10004:	ebffe141 	bl	8510 <PUT32>
   10008:	e5940000 	ldr	r0, [r4]
   1000c:	e2800981 	add	r0, r0, #2113536	; 0x204000
   10010:	ebffe140 	bl	8518 <GET32>
   10014:	e3100701 	tst	r0, #262144	; 0x40000
   10018:	0afffffa 	beq	10008 <spi_init+0x1df0>
   1001c:	e5940000 	ldr	r0, [r4]
   10020:	e1a01008 	mov	r1, r8
   10024:	e2800981 	add	r0, r0, #2113536	; 0x204000
   10028:	e2800004 	add	r0, r0, #4
   1002c:	ebffe137 	bl	8510 <PUT32>
   10030:	e5940000 	ldr	r0, [r4]
   10034:	e2800981 	add	r0, r0, #2113536	; 0x204000
   10038:	ebffe136 	bl	8518 <GET32>
   1003c:	e3100801 	tst	r0, #65536	; 0x10000
   10040:	0afffffa 	beq	10030 <spi_init+0x1e18>
   10044:	e5940000 	ldr	r0, [r4]
   10048:	e3a01000 	mov	r1, #0
   1004c:	e2800981 	add	r0, r0, #2113536	; 0x204000
   10050:	ebffe12e 	bl	8510 <PUT32>
   10054:	e3a01001 	mov	r1, #1
   10058:	e3a00019 	mov	r0, #25
   1005c:	ebffe274 	bl	8a34 <gpio_output>
   10060:	e5940000 	ldr	r0, [r4]
   10064:	e3a010b0 	mov	r1, #176	; 0xb0
   10068:	e2800981 	add	r0, r0, #2113536	; 0x204000
   1006c:	ebffe127 	bl	8510 <PUT32>
   10070:	e5940000 	ldr	r0, [r4]
   10074:	e2800981 	add	r0, r0, #2113536	; 0x204000
   10078:	ebffe126 	bl	8518 <GET32>
   1007c:	e3100701 	tst	r0, #262144	; 0x40000
   10080:	0afffffa 	beq	10070 <spi_init+0x1e58>
   10084:	e5940000 	ldr	r0, [r4]
   10088:	e1a01007 	mov	r1, r7
   1008c:	e2800981 	add	r0, r0, #2113536	; 0x204000
   10090:	e2800004 	add	r0, r0, #4
   10094:	ebffe11d 	bl	8510 <PUT32>
   10098:	e5940000 	ldr	r0, [r4]
   1009c:	e2800981 	add	r0, r0, #2113536	; 0x204000
   100a0:	ebffe11c 	bl	8518 <GET32>
   100a4:	e3100801 	tst	r0, #65536	; 0x10000
   100a8:	0afffffa 	beq	10098 <spi_init+0x1e80>
   100ac:	e5940000 	ldr	r0, [r4]
   100b0:	e3a01000 	mov	r1, #0
   100b4:	e2800981 	add	r0, r0, #2113536	; 0x204000
   100b8:	ebffe114 	bl	8510 <PUT32>
   100bc:	e3a01001 	mov	r1, #1
   100c0:	e3a00019 	mov	r0, #25
   100c4:	ebffe25a 	bl	8a34 <gpio_output>
   100c8:	e5940000 	ldr	r0, [r4]
   100cc:	e3a010b0 	mov	r1, #176	; 0xb0
   100d0:	e2800981 	add	r0, r0, #2113536	; 0x204000
   100d4:	e1a07426 	lsr	r7, r6, #8
   100d8:	e6ef6076 	uxtb	r6, r6
   100dc:	ebffe10b 	bl	8510 <PUT32>
   100e0:	e5940000 	ldr	r0, [r4]
   100e4:	e2800981 	add	r0, r0, #2113536	; 0x204000
   100e8:	ebffe10a 	bl	8518 <GET32>
   100ec:	e3100701 	tst	r0, #262144	; 0x40000
   100f0:	0afffffa 	beq	100e0 <spi_init+0x1ec8>
   100f4:	e5940000 	ldr	r0, [r4]
   100f8:	e1a01007 	mov	r1, r7
   100fc:	e2800981 	add	r0, r0, #2113536	; 0x204000
   10100:	e2800004 	add	r0, r0, #4
   10104:	ebffe101 	bl	8510 <PUT32>
   10108:	e5940000 	ldr	r0, [r4]
   1010c:	e2800981 	add	r0, r0, #2113536	; 0x204000
   10110:	ebffe100 	bl	8518 <GET32>
   10114:	e3100801 	tst	r0, #65536	; 0x10000
   10118:	0afffffa 	beq	10108 <spi_init+0x1ef0>
   1011c:	e5940000 	ldr	r0, [r4]
   10120:	e3a01000 	mov	r1, #0
   10124:	e2800981 	add	r0, r0, #2113536	; 0x204000
   10128:	ebffe0f8 	bl	8510 <PUT32>
   1012c:	e3a01001 	mov	r1, #1
   10130:	e3a00019 	mov	r0, #25
   10134:	ebffe23e 	bl	8a34 <gpio_output>
   10138:	e5940000 	ldr	r0, [r4]
   1013c:	e3a010b0 	mov	r1, #176	; 0xb0
   10140:	e2800981 	add	r0, r0, #2113536	; 0x204000
   10144:	ebffe0f1 	bl	8510 <PUT32>
   10148:	e5940000 	ldr	r0, [r4]
   1014c:	e2800981 	add	r0, r0, #2113536	; 0x204000
   10150:	ebffe0f0 	bl	8518 <GET32>
   10154:	e3100701 	tst	r0, #262144	; 0x40000
   10158:	0afffffa 	beq	10148 <spi_init+0x1f30>
   1015c:	e5940000 	ldr	r0, [r4]
   10160:	e1a01006 	mov	r1, r6
   10164:	e2800981 	add	r0, r0, #2113536	; 0x204000
   10168:	e2800004 	add	r0, r0, #4
   1016c:	ebffe0e7 	bl	8510 <PUT32>
   10170:	e5940000 	ldr	r0, [r4]
   10174:	e2800981 	add	r0, r0, #2113536	; 0x204000
   10178:	ebffe0e6 	bl	8518 <GET32>
   1017c:	e3100801 	tst	r0, #65536	; 0x10000
   10180:	0afffffa 	beq	10170 <spi_init+0x1f58>
   10184:	e5940000 	ldr	r0, [r4]
   10188:	e3a01000 	mov	r1, #0
   1018c:	e2800981 	add	r0, r0, #2113536	; 0x204000
   10190:	ebffe0de 	bl	8510 <PUT32>
   10194:	e3a01000 	mov	r1, #0
   10198:	e3a00019 	mov	r0, #25
   1019c:	ebffe224 	bl	8a34 <gpio_output>
   101a0:	e5940000 	ldr	r0, [r4]
   101a4:	e3a010b0 	mov	r1, #176	; 0xb0
   101a8:	e2800981 	add	r0, r0, #2113536	; 0x204000
   101ac:	ebffe0d7 	bl	8510 <PUT32>
   101b0:	e5940000 	ldr	r0, [r4]
   101b4:	e2800981 	add	r0, r0, #2113536	; 0x204000
   101b8:	ebffe0d6 	bl	8518 <GET32>
   101bc:	e3100701 	tst	r0, #262144	; 0x40000
   101c0:	0afffffa 	beq	101b0 <spi_init+0x1f98>
   101c4:	e5940000 	ldr	r0, [r4]
   101c8:	e3a0102c 	mov	r1, #44	; 0x2c
   101cc:	e2800981 	add	r0, r0, #2113536	; 0x204000
   101d0:	e2800004 	add	r0, r0, #4
   101d4:	ebffe0cd 	bl	8510 <PUT32>
   101d8:	e5940000 	ldr	r0, [r4]
   101dc:	e2800981 	add	r0, r0, #2113536	; 0x204000
   101e0:	ebffe0cc 	bl	8518 <GET32>
   101e4:	e3100801 	tst	r0, #65536	; 0x10000
   101e8:	0afffffa 	beq	101d8 <spi_init+0x1fc0>
   101ec:	e5940000 	ldr	r0, [r4]
   101f0:	e3a01000 	mov	r1, #0
   101f4:	e2800981 	add	r0, r0, #2113536	; 0x204000
   101f8:	ebffe0c4 	bl	8510 <PUT32>
   101fc:	e3a06d05 	mov	r6, #320	; 0x140
   10200:	e3a01001 	mov	r1, #1
   10204:	e3a00019 	mov	r0, #25
   10208:	ebffe209 	bl	8a34 <gpio_output>
   1020c:	e5940000 	ldr	r0, [r4]
   10210:	e3a010b0 	mov	r1, #176	; 0xb0
   10214:	e2800981 	add	r0, r0, #2113536	; 0x204000
   10218:	ebffe0bc 	bl	8510 <PUT32>
   1021c:	e5940000 	ldr	r0, [r4]
   10220:	e2800981 	add	r0, r0, #2113536	; 0x204000
   10224:	ebffe0bb 	bl	8518 <GET32>
   10228:	e3100701 	tst	r0, #262144	; 0x40000
   1022c:	0afffffa 	beq	1021c <spi_init+0x2004>
   10230:	e5940000 	ldr	r0, [r4]
   10234:	e3a01000 	mov	r1, #0
   10238:	e2800981 	add	r0, r0, #2113536	; 0x204000
   1023c:	e2800004 	add	r0, r0, #4
   10240:	ebffe0b2 	bl	8510 <PUT32>
   10244:	e5940000 	ldr	r0, [r4]
   10248:	e2800981 	add	r0, r0, #2113536	; 0x204000
   1024c:	ebffe0b1 	bl	8518 <GET32>
   10250:	e3100801 	tst	r0, #65536	; 0x10000
   10254:	0afffffa 	beq	10244 <spi_init+0x202c>
   10258:	e5940000 	ldr	r0, [r4]
   1025c:	e3a01000 	mov	r1, #0
   10260:	e2800981 	add	r0, r0, #2113536	; 0x204000
   10264:	ebffe0a9 	bl	8510 <PUT32>
   10268:	e3a01001 	mov	r1, #1
   1026c:	e3a00019 	mov	r0, #25
   10270:	ebffe1ef 	bl	8a34 <gpio_output>
   10274:	e5940000 	ldr	r0, [r4]
   10278:	e3a010b0 	mov	r1, #176	; 0xb0
   1027c:	e2800981 	add	r0, r0, #2113536	; 0x204000
   10280:	ebffe0a2 	bl	8510 <PUT32>
   10284:	e5940000 	ldr	r0, [r4]
   10288:	e2800981 	add	r0, r0, #2113536	; 0x204000
   1028c:	ebffe0a1 	bl	8518 <GET32>
   10290:	e3100701 	tst	r0, #262144	; 0x40000
   10294:	0afffffa 	beq	10284 <spi_init+0x206c>
   10298:	e5940000 	ldr	r0, [r4]
   1029c:	e3a0101f 	mov	r1, #31
   102a0:	e2800981 	add	r0, r0, #2113536	; 0x204000
   102a4:	e2800004 	add	r0, r0, #4
   102a8:	ebffe098 	bl	8510 <PUT32>
   102ac:	e5940000 	ldr	r0, [r4]
   102b0:	e2800981 	add	r0, r0, #2113536	; 0x204000
   102b4:	ebffe097 	bl	8518 <GET32>
   102b8:	e3100801 	tst	r0, #65536	; 0x10000
   102bc:	0afffffa 	beq	102ac <spi_init+0x2094>
   102c0:	e5940000 	ldr	r0, [r4]
   102c4:	e3a01000 	mov	r1, #0
   102c8:	e2800981 	add	r0, r0, #2113536	; 0x204000
   102cc:	ebffe08f 	bl	8510 <PUT32>
   102d0:	e2566001 	subs	r6, r6, #1
   102d4:	1affffc9 	bne	10200 <spi_init+0x1fe8>
   102d8:	eafffb9e 	b	f158 <spi_init+0xf40>
   102dc:	e5db3000 	ldrb	r3, [fp]
   102e0:	e59d200c 	ldr	r2, [sp, #12]
   102e4:	e5f21001 	ldrb	r1, [r2, #1]!
   102e8:	e58d200c 	str	r2, [sp, #12]
   102ec:	e59d2008 	ldr	r2, [sp, #8]
   102f0:	e3510000 	cmp	r1, #0
   102f4:	e0823003 	add	r3, r2, r3
   102f8:	e6ff3073 	uxth	r3, r3
   102fc:	e58d3008 	str	r3, [sp, #8]
   10300:	1afffd01 	bne	f70c <spi_init+0x14f4>
   10304:	e28dd01c 	add	sp, sp, #28
   10308:	e8bd8ff0 	pop	{r4, r5, r6, r7, r8, r9, sl, fp, pc}
   1030c:	e3a01032 	mov	r1, #50	; 0x32
   10310:	e1a00001 	mov	r0, r1
   10314:	ebffee6d 	bl	bcd0 <DisplayBitmap.part.2>
   10318:	eafffcf2 	b	f6e8 <spi_init+0x14d0>

0001031c <ClearArea16>:
   1031c:	e59fc060 	ldr	ip, [pc, #96]	; 10384 <ClearArea16+0x68>
   10320:	e92d4070 	push	{r4, r5, r6, lr}
   10324:	e59c6010 	ldr	r6, [ip, #16]
   10328:	e59d5010 	ldr	r5, [sp, #16]
   1032c:	e02e1692 	mla	lr, r2, r6, r1
   10330:	e59cc000 	ldr	ip, [ip]
   10334:	e0555002 	subs	r5, r5, r2
   10338:	e08cc08e 	add	ip, ip, lr, lsl #1
   1033c:	08bd8070 	popeq	{r4, r5, r6, pc}
   10340:	e0533001 	subs	r3, r3, r1
   10344:	e1a06086 	lsl	r6, r6, #1
   10348:	08bd8070 	popeq	{r4, r5, r6, pc}
   1034c:	e3a0e000 	mov	lr, #0
   10350:	e24cc002 	sub	ip, ip, #2
   10354:	e1a04083 	lsl	r4, r3, #1
   10358:	e1a0300c 	mov	r3, ip
   1035c:	e08c1004 	add	r1, ip, r4
   10360:	e1d022b0 	ldrh	r2, [r0, #32]
   10364:	e1e320b2 	strh	r2, [r3, #2]!
   10368:	e1530001 	cmp	r3, r1
   1036c:	1afffffb 	bne	10360 <ClearArea16+0x44>
   10370:	e28ee001 	add	lr, lr, #1
   10374:	e15e0005 	cmp	lr, r5
   10378:	e08cc006 	add	ip, ip, r6
   1037c:	1afffff5 	bne	10358 <ClearArea16+0x3c>
   10380:	e8bd8070 	pop	{r4, r5, r6, pc}
   10384:	0001d9f0 	.word	0x0001d9f0

00010388 <VertLine16>:
   10388:	e92d4010 	push	{r4, lr}
   1038c:	e59f4064 	ldr	r4, [pc, #100]	; 103f8 <VertLine16+0x70>
   10390:	e590c004 	ldr	ip, [r0, #4]
   10394:	e594e010 	ldr	lr, [r4, #16]
   10398:	e5903000 	ldr	r3, [r0]
   1039c:	e1a0e08e 	lsl	lr, lr, #1
   103a0:	e00c0e9c 	mul	ip, ip, lr
   103a4:	e5944000 	ldr	r4, [r4]
   103a8:	e08c3083 	add	r3, ip, r3, lsl #1
   103ac:	e3510000 	cmp	r1, #0
   103b0:	e0833004 	add	r3, r3, r4
   103b4:	08bd8010 	popeq	{r4, pc}
   103b8:	e3520001 	cmp	r2, #1
   103bc:	e26e4000 	rsb	r4, lr, #0
   103c0:	e3a02000 	mov	r2, #0
   103c4:	0a000005 	beq	103e0 <VertLine16+0x58>
   103c8:	e2822001 	add	r2, r2, #1
   103cc:	e1d0c1bc 	ldrh	ip, [r0, #28]
   103d0:	e1510002 	cmp	r1, r2
   103d4:	e083c0b4 	strh	ip, [r3], r4
   103d8:	1afffffa 	bne	103c8 <VertLine16+0x40>
   103dc:	e8bd8010 	pop	{r4, pc}
   103e0:	e2822001 	add	r2, r2, #1
   103e4:	e1d0c1bc 	ldrh	ip, [r0, #28]
   103e8:	e1510002 	cmp	r1, r2
   103ec:	e083c0be 	strh	ip, [r3], lr
   103f0:	1afffffa 	bne	103e0 <VertLine16+0x58>
   103f4:	e8bd8010 	pop	{r4, pc}
   103f8:	0001d9f0 	.word	0x0001d9f0

000103fc <HorzLine16>:
   103fc:	e92d4010 	push	{r4, lr}
   10400:	e59fe044 	ldr	lr, [pc, #68]	; 1044c <HorzLine16+0x50>
   10404:	e590c000 	ldr	ip, [r0]
   10408:	e59e3010 	ldr	r3, [lr, #16]
   1040c:	e5904004 	ldr	r4, [r0, #4]
   10410:	e1a0c08c 	lsl	ip, ip, #1
   10414:	e1a03083 	lsl	r3, r3, #1
   10418:	e023c394 	mla	r3, r4, r3, ip
   1041c:	e59ec000 	ldr	ip, [lr]
   10420:	e3510000 	cmp	r1, #0
   10424:	e083300c 	add	r3, r3, ip
   10428:	08bd8010 	popeq	{r4, pc}
   1042c:	e3a0c000 	mov	ip, #0
   10430:	e1a02082 	lsl	r2, r2, #1
   10434:	e28cc001 	add	ip, ip, #1
   10438:	e1d0e1bc 	ldrh	lr, [r0, #28]
   1043c:	e151000c 	cmp	r1, ip
   10440:	e083e0b2 	strh	lr, [r3], r2
   10444:	1afffffa 	bne	10434 <HorzLine16+0x38>
   10448:	e8bd8010 	pop	{r4, pc}
   1044c:	0001d9f0 	.word	0x0001d9f0

00010450 <DiagLine16>:
   10450:	e1510002 	cmp	r1, r2
   10454:	21a0c001 	movcs	ip, r1
   10458:	31a0c002 	movcc	ip, r2
   1045c:	e92d41f0 	push	{r4, r5, r6, r7, r8, lr}
   10460:	e59f4074 	ldr	r4, [pc, #116]	; 104dc <DiagLine16+0x8c>
   10464:	e590e004 	ldr	lr, [r0, #4]
   10468:	e5948010 	ldr	r8, [r4, #16]
   1046c:	e5905000 	ldr	r5, [r0]
   10470:	e1a08088 	lsl	r8, r8, #1
   10474:	e00e089e 	mul	lr, lr, r8
   10478:	e5944000 	ldr	r4, [r4]
   1047c:	e08ee085 	add	lr, lr, r5, lsl #1
   10480:	e35c0000 	cmp	ip, #0
   10484:	e08ee004 	add	lr, lr, r4
   10488:	08bd81f0 	popeq	{r4, r5, r6, r7, r8, pc}
   1048c:	e3a06000 	mov	r6, #0
   10490:	e1a05006 	mov	r5, r6
   10494:	e1a04006 	mov	r4, r6
   10498:	e59d7018 	ldr	r7, [sp, #24]
   1049c:	e1a03083 	lsl	r3, r3, #1
   104a0:	e0080798 	mul	r8, r8, r7
   104a4:	e0844001 	add	r4, r4, r1
   104a8:	e1d071bc 	ldrh	r7, [r0, #28]
   104ac:	e15c0004 	cmp	ip, r4
   104b0:	e0855002 	add	r5, r5, r2
   104b4:	e1ce70b0 	strh	r7, [lr]
   104b8:	e2866001 	add	r6, r6, #1
   104bc:	908ee003 	addls	lr, lr, r3
   104c0:	9044400c 	subls	r4, r4, ip
   104c4:	e15c0005 	cmp	ip, r5
   104c8:	9045500c 	subls	r5, r5, ip
   104cc:	908ee008 	addls	lr, lr, r8
   104d0:	e15c0006 	cmp	ip, r6
   104d4:	1afffff2 	bne	104a4 <DiagLine16+0x54>
   104d8:	e8bd81f0 	pop	{r4, r5, r6, r7, r8, pc}
   104dc:	0001d9f0 	.word	0x0001d9f0

000104e0 <WriteChar16>:
   104e0:	e59f2078 	ldr	r2, [pc, #120]	; 10560 <WriteChar16+0x80>
   104e4:	e92d4070 	push	{r4, r5, r6, lr}
   104e8:	e5924010 	ldr	r4, [r2, #16]
   104ec:	e5903004 	ldr	r3, [r0, #4]
   104f0:	e1a04084 	lsl	r4, r4, #1
   104f4:	e0030493 	mul	r3, r3, r4
   104f8:	e59f5064 	ldr	r5, [pc, #100]	; 10564 <WriteChar16+0x84>
   104fc:	e590c000 	ldr	ip, [r0]
   10500:	e592e000 	ldr	lr, [r2]
   10504:	e1a01201 	lsl	r1, r1, #4
   10508:	e2856010 	add	r6, r5, #16
   1050c:	e083308c 	add	r3, r3, ip, lsl #1
   10510:	e083e00e 	add	lr, r3, lr
   10514:	e0866001 	add	r6, r6, r1
   10518:	e0815005 	add	r5, r1, r5
   1051c:	e3a02000 	mov	r2, #0
   10520:	e4951004 	ldr	r1, [r5], #4
   10524:	e3510000 	cmp	r1, #0
   10528:	e2023007 	and	r3, r2, #7
   1052c:	a1d0c1be 	ldrhge	ip, [r0, #30]
   10530:	b1d0c1bc 	ldrhlt	ip, [r0, #28]
   10534:	e2822001 	add	r2, r2, #1
   10538:	e3530007 	cmp	r3, #7
   1053c:	e1a03083 	lsl	r3, r3, #1
   10540:	e18ec0b3 	strh	ip, [lr, r3]
   10544:	008ee004 	addeq	lr, lr, r4
   10548:	e3520020 	cmp	r2, #32
   1054c:	e1a01081 	lsl	r1, r1, #1
   10550:	1afffff3 	bne	10524 <WriteChar16+0x44>
   10554:	e1550006 	cmp	r5, r6
   10558:	1affffef 	bne	1051c <WriteChar16+0x3c>
   1055c:	e8bd8070 	pop	{r4, r5, r6, pc}
   10560:	0001d9f0 	.word	0x0001d9f0
   10564:	0001a844 	.word	0x0001a844

00010568 <TransparentWriteChar16>:
   10568:	e59f2074 	ldr	r2, [pc, #116]	; 105e4 <TransparentWriteChar16+0x7c>
   1056c:	e92d40f0 	push	{r4, r5, r6, r7, lr}
   10570:	e5925010 	ldr	r5, [r2, #16]
   10574:	e5903004 	ldr	r3, [r0, #4]
   10578:	e1a05085 	lsl	r5, r5, #1
   1057c:	e0030593 	mul	r3, r3, r5
   10580:	e59f6060 	ldr	r6, [pc, #96]	; 105e8 <TransparentWriteChar16+0x80>
   10584:	e590e000 	ldr	lr, [r0]
   10588:	e592c000 	ldr	ip, [r2]
   1058c:	e1a01201 	lsl	r1, r1, #4
   10590:	e2867010 	add	r7, r6, #16
   10594:	e083308e 	add	r3, r3, lr, lsl #1
   10598:	e083c00c 	add	ip, r3, ip
   1059c:	e0877001 	add	r7, r7, r1
   105a0:	e0816006 	add	r6, r1, r6
   105a4:	e3a03000 	mov	r3, #0
   105a8:	e4962004 	ldr	r2, [r6], #4
   105ac:	e3520000 	cmp	r2, #0
   105b0:	e2031007 	and	r1, r3, #7
   105b4:	b1d041bc 	ldrhlt	r4, [r0, #28]
   105b8:	b1a0e081 	lsllt	lr, r1, #1
   105bc:	b18c40be 	strhlt	r4, [ip, lr]
   105c0:	e2833001 	add	r3, r3, #1
   105c4:	e3510007 	cmp	r1, #7
   105c8:	008cc005 	addeq	ip, ip, r5
   105cc:	e3530020 	cmp	r3, #32
   105d0:	e1a02082 	lsl	r2, r2, #1
   105d4:	1afffff4 	bne	105ac <TransparentWriteChar16+0x44>
   105d8:	e1570006 	cmp	r7, r6
   105dc:	1afffff0 	bne	105a4 <TransparentWriteChar16+0x3c>
   105e0:	e8bd80f0 	pop	{r4, r5, r6, r7, pc}
   105e4:	0001d9f0 	.word	0x0001d9f0
   105e8:	0001a844 	.word	0x0001a844

000105ec <PutImage16>:
   105ec:	e59fc084 	ldr	ip, [pc, #132]	; 10678 <PutImage16+0x8c>
   105f0:	e92d47f0 	push	{r4, r5, r6, r7, r8, r9, sl, lr}
   105f4:	e59c7010 	ldr	r7, [ip, #16]
   105f8:	e5905004 	ldr	r5, [r0, #4]
   105fc:	e1a07087 	lsl	r7, r7, #1
   10600:	e590e000 	ldr	lr, [r0]
   10604:	e0000795 	mul	r0, r5, r7
   10608:	e59c5000 	ldr	r5, [ip]
   1060c:	e080008e 	add	r0, r0, lr, lsl #1
   10610:	e3520000 	cmp	r2, #0
   10614:	e0805005 	add	r5, r0, r5
   10618:	e5dd9024 	ldrb	r9, [sp, #36]	; 0x24
   1061c:	08bd87f0 	popeq	{r4, r5, r6, r7, r8, r9, sl, pc}
   10620:	e3510000 	cmp	r1, #0
   10624:	e267a000 	rsb	sl, r7, #0
   10628:	08bd87f0 	popeq	{r4, r5, r6, r7, r8, r9, sl, pc}
   1062c:	e3a06000 	mov	r6, #0
   10630:	e1a08081 	lsl	r8, r1, #1
   10634:	e59d1020 	ldr	r1, [sp, #32]
   10638:	e2414002 	sub	r4, r1, #2
   1063c:	e1a01004 	mov	r1, r4
   10640:	e2450002 	sub	r0, r5, #2
   10644:	e088e004 	add	lr, r8, r4
   10648:	e1f1c0b2 	ldrh	ip, [r1, #2]!
   1064c:	e151000e 	cmp	r1, lr
   10650:	e1e0c0b2 	strh	ip, [r0, #2]!
   10654:	1afffffb 	bne	10648 <PutImage16+0x5c>
   10658:	e3590000 	cmp	r9, #0
   1065c:	e2866001 	add	r6, r6, #1
   10660:	1085500a 	addne	r5, r5, sl
   10664:	00855007 	addeq	r5, r5, r7
   10668:	e1520006 	cmp	r2, r6
   1066c:	e0844003 	add	r4, r4, r3
   10670:	1afffff1 	bne	1063c <PutImage16+0x50>
   10674:	e8bd87f0 	pop	{r4, r5, r6, r7, r8, r9, sl, pc}
   10678:	0001d9f0 	.word	0x0001d9f0

0001067c <ClearArea24>:
   1067c:	e59fc070 	ldr	ip, [pc, #112]	; 106f4 <ClearArea24+0x78>
   10680:	e92d4ff8 	push	{r3, r4, r5, r6, r7, r8, r9, sl, fp, lr}
   10684:	e59c8010 	ldr	r8, [ip, #16]
   10688:	e59d9028 	ldr	r9, [sp, #40]	; 0x28
   1068c:	e0271892 	mla	r7, r2, r8, r1
   10690:	e59cc000 	ldr	ip, [ip]
   10694:	e0877087 	add	r7, r7, r7, lsl #1
   10698:	e0599002 	subs	r9, r9, r2
   1069c:	e087700c 	add	r7, r7, ip
   106a0:	08bd8ff8 	popeq	{r3, r4, r5, r6, r7, r8, r9, sl, fp, pc}
   106a4:	e053a001 	subs	sl, r3, r1
   106a8:	e0888088 	add	r8, r8, r8, lsl #1
   106ac:	08bd8ff8 	popeq	{r3, r4, r5, r6, r7, r8, r9, sl, fp, pc}
   106b0:	e3a0b000 	mov	fp, #0
   106b4:	e08aa08a 	add	sl, sl, sl, lsl #1
   106b8:	e2806018 	add	r6, r0, #24
   106bc:	e1a04007 	mov	r4, r7
   106c0:	e08a5007 	add	r5, sl, r7
   106c4:	e3a02003 	mov	r2, #3
   106c8:	e1a00004 	mov	r0, r4
   106cc:	e1a01006 	mov	r1, r6
   106d0:	e0844002 	add	r4, r4, r2
   106d4:	eb000575 	bl	11cb0 <memcpy>
   106d8:	e1550004 	cmp	r5, r4
   106dc:	1afffff8 	bne	106c4 <ClearArea24+0x48>
   106e0:	e28bb001 	add	fp, fp, #1
   106e4:	e15b0009 	cmp	fp, r9
   106e8:	e0877008 	add	r7, r7, r8
   106ec:	1afffff2 	bne	106bc <ClearArea24+0x40>
   106f0:	e8bd8ff8 	pop	{r3, r4, r5, r6, r7, r8, r9, sl, fp, pc}
   106f4:	0001d9f0 	.word	0x0001d9f0

000106f8 <VertLine24>:
   106f8:	e92d41f0 	push	{r4, r5, r6, r7, r8, lr}
   106fc:	e59fe088 	ldr	lr, [pc, #136]	; 1078c <VertLine24+0x94>
   10700:	e590c000 	ldr	ip, [r0]
   10704:	e59e5010 	ldr	r5, [lr, #16]
   10708:	e5903004 	ldr	r3, [r0, #4]
   1070c:	e08cc08c 	add	ip, ip, ip, lsl #1
   10710:	e0855085 	add	r5, r5, r5, lsl #1
   10714:	e02cc593 	mla	ip, r3, r5, ip
   10718:	e59e3000 	ldr	r3, [lr]
   1071c:	e2516000 	subs	r6, r1, #0
   10720:	e08c3003 	add	r3, ip, r3
   10724:	08bd81f0 	popeq	{r4, r5, r6, r7, r8, pc}
   10728:	e3520001 	cmp	r2, #1
   1072c:	e2657000 	rsb	r7, r5, #0
   10730:	0a00000a 	beq	10760 <VertLine24+0x68>
   10734:	e3a05000 	mov	r5, #0
   10738:	e2804010 	add	r4, r0, #16
   1073c:	e1a00003 	mov	r0, r3
   10740:	e3a02003 	mov	r2, #3
   10744:	e1a01004 	mov	r1, r4
   10748:	eb000558 	bl	11cb0 <memcpy>
   1074c:	e2855001 	add	r5, r5, #1
   10750:	e1560005 	cmp	r6, r5
   10754:	e0803007 	add	r3, r0, r7
   10758:	1afffff7 	bne	1073c <VertLine24+0x44>
   1075c:	e8bd81f0 	pop	{r4, r5, r6, r7, r8, pc}
   10760:	e3a07000 	mov	r7, #0
   10764:	e2804010 	add	r4, r0, #16
   10768:	e1a00003 	mov	r0, r3
   1076c:	e3a02003 	mov	r2, #3
   10770:	e1a01004 	mov	r1, r4
   10774:	eb00054d 	bl	11cb0 <memcpy>
   10778:	e2877001 	add	r7, r7, #1
   1077c:	e1560007 	cmp	r6, r7
   10780:	e0803005 	add	r3, r0, r5
   10784:	1afffff7 	bne	10768 <VertLine24+0x70>
   10788:	e8bd81f0 	pop	{r4, r5, r6, r7, r8, pc}
   1078c:	0001d9f0 	.word	0x0001d9f0

00010790 <HorzLine24>:
   10790:	e92d41f0 	push	{r4, r5, r6, r7, r8, lr}
   10794:	e59fe054 	ldr	lr, [pc, #84]	; 107f0 <HorzLine24+0x60>
   10798:	e5903000 	ldr	r3, [r0]
   1079c:	e59ec010 	ldr	ip, [lr, #16]
   107a0:	e5904004 	ldr	r4, [r0, #4]
   107a4:	e08cc08c 	add	ip, ip, ip, lsl #1
   107a8:	e0833083 	add	r3, r3, r3, lsl #1
   107ac:	e0233c94 	mla	r3, r4, ip, r3
   107b0:	e59ec000 	ldr	ip, [lr]
   107b4:	e2517000 	subs	r7, r1, #0
   107b8:	e083300c 	add	r3, r3, ip
   107bc:	08bd81f0 	popeq	{r4, r5, r6, r7, r8, pc}
   107c0:	e3a04000 	mov	r4, #0
   107c4:	e0826082 	add	r6, r2, r2, lsl #1
   107c8:	e2805010 	add	r5, r0, #16
   107cc:	e1a00003 	mov	r0, r3
   107d0:	e3a02003 	mov	r2, #3
   107d4:	e1a01005 	mov	r1, r5
   107d8:	eb000534 	bl	11cb0 <memcpy>
   107dc:	e2844001 	add	r4, r4, #1
   107e0:	e1570004 	cmp	r7, r4
   107e4:	e0803006 	add	r3, r0, r6
   107e8:	1afffff7 	bne	107cc <HorzLine24+0x3c>
   107ec:	e8bd81f0 	pop	{r4, r5, r6, r7, r8, pc}
   107f0:	0001d9f0 	.word	0x0001d9f0

000107f4 <DiagLine24>:
   107f4:	e1510002 	cmp	r1, r2
   107f8:	e92d4ff0 	push	{r4, r5, r6, r7, r8, r9, sl, fp, lr}
   107fc:	21a04001 	movcs	r4, r1
   10800:	31a04002 	movcc	r4, r2
   10804:	e59f50ac 	ldr	r5, [pc, #172]	; 108b8 <DiagLine24+0xc4>
   10808:	e590e000 	ldr	lr, [r0]
   1080c:	e595c010 	ldr	ip, [r5, #16]
   10810:	e5907004 	ldr	r7, [r0, #4]
   10814:	e08ee08e 	add	lr, lr, lr, lsl #1
   10818:	e08cc08c 	add	ip, ip, ip, lsl #1
   1081c:	e02eec97 	mla	lr, r7, ip, lr
   10820:	e5957000 	ldr	r7, [r5]
   10824:	e3540000 	cmp	r4, #0
   10828:	e24dd00c 	sub	sp, sp, #12
   1082c:	e08e7007 	add	r7, lr, r7
   10830:	0a00001e 	beq	108b0 <DiagLine24+0xbc>
   10834:	e0833083 	add	r3, r3, r3, lsl #1
   10838:	e2808010 	add	r8, r0, #16
   1083c:	e3a0b000 	mov	fp, #0
   10840:	e58d3000 	str	r3, [sp]
   10844:	e1a03008 	mov	r3, r8
   10848:	e1a0600b 	mov	r6, fp
   1084c:	e1a0500b 	mov	r5, fp
   10850:	e1a0800b 	mov	r8, fp
   10854:	e1a09001 	mov	r9, r1
   10858:	e1a0b003 	mov	fp, r3
   1085c:	e1a0a002 	mov	sl, r2
   10860:	e59d2030 	ldr	r2, [sp, #48]	; 0x30
   10864:	e002029c 	mul	r2, ip, r2
   10868:	e58d2004 	str	r2, [sp, #4]
   1086c:	e1a00007 	mov	r0, r7
   10870:	e3a02003 	mov	r2, #3
   10874:	e1a0100b 	mov	r1, fp
   10878:	eb00050c 	bl	11cb0 <memcpy>
   1087c:	e0855009 	add	r5, r5, r9
   10880:	e1540005 	cmp	r4, r5
   10884:	959d3000 	ldrls	r3, [sp]
   10888:	e086600a 	add	r6, r6, sl
   1088c:	90877003 	addls	r7, r7, r3
   10890:	90455004 	subls	r5, r5, r4
   10894:	e1540006 	cmp	r4, r6
   10898:	959d3004 	ldrls	r3, [sp, #4]
   1089c:	e2888001 	add	r8, r8, #1
   108a0:	90466004 	subls	r6, r6, r4
   108a4:	90877003 	addls	r7, r7, r3
   108a8:	e1540008 	cmp	r4, r8
   108ac:	1affffee 	bne	1086c <DiagLine24+0x78>
   108b0:	e28dd00c 	add	sp, sp, #12
   108b4:	e8bd8ff0 	pop	{r4, r5, r6, r7, r8, r9, sl, fp, pc}
   108b8:	0001d9f0 	.word	0x0001d9f0

000108bc <WriteChar24>:
   108bc:	e59f2094 	ldr	r2, [pc, #148]	; 10958 <WriteChar24+0x9c>
   108c0:	e92d47f0 	push	{r4, r5, r6, r7, r8, r9, sl, lr}
   108c4:	e5903000 	ldr	r3, [r0]
   108c8:	e5928010 	ldr	r8, [r2, #16]
   108cc:	e5904004 	ldr	r4, [r0, #4]
   108d0:	e0833083 	add	r3, r3, r3, lsl #1
   108d4:	e0888088 	add	r8, r8, r8, lsl #1
   108d8:	e0233894 	mla	r3, r4, r8, r3
   108dc:	e59f9078 	ldr	r9, [pc, #120]	; 1095c <WriteChar24+0xa0>
   108e0:	e5924000 	ldr	r4, [r2]
   108e4:	e1a01201 	lsl	r1, r1, #4
   108e8:	e289a010 	add	sl, r9, #16
   108ec:	e0834004 	add	r4, r3, r4
   108f0:	e08aa001 	add	sl, sl, r1
   108f4:	e0819009 	add	r9, r1, r9
   108f8:	e3a03000 	mov	r3, #0
   108fc:	e4991004 	ldr	r1, [r9], #4
   10900:	e3510000 	cmp	r1, #0
   10904:	e5d07014 	ldrb	r7, [r0, #20]
   10908:	e2032007 	and	r2, r3, #7
   1090c:	b5d07010 	ldrblt	r7, [r0, #16]
   10910:	e5d06015 	ldrb	r6, [r0, #21]
   10914:	e5d05016 	ldrb	r5, [r0, #22]
   10918:	b5d06011 	ldrblt	r6, [r0, #17]
   1091c:	b5d05012 	ldrblt	r5, [r0, #18]
   10920:	e082e082 	add	lr, r2, r2, lsl #1
   10924:	e3520007 	cmp	r2, #7
   10928:	e2833001 	add	r3, r3, #1
   1092c:	e084c00e 	add	ip, r4, lr
   10930:	e7c4700e 	strb	r7, [r4, lr]
   10934:	00844008 	addeq	r4, r4, r8
   10938:	e3530020 	cmp	r3, #32
   1093c:	e1a01081 	lsl	r1, r1, #1
   10940:	e5cc6001 	strb	r6, [ip, #1]
   10944:	e5cc5002 	strb	r5, [ip, #2]
   10948:	1affffec 	bne	10900 <WriteChar24+0x44>
   1094c:	e159000a 	cmp	r9, sl
   10950:	1affffe8 	bne	108f8 <WriteChar24+0x3c>
   10954:	e8bd87f0 	pop	{r4, r5, r6, r7, r8, r9, sl, pc}
   10958:	0001d9f0 	.word	0x0001d9f0
   1095c:	0001a844 	.word	0x0001a844

00010960 <TransparentWriteChar24>:
   10960:	e59fc084 	ldr	ip, [pc, #132]	; 109ec <TransparentWriteChar24+0x8c>
   10964:	e92d4ff8 	push	{r3, r4, r5, r6, r7, r8, r9, sl, fp, lr}
   10968:	e5903000 	ldr	r3, [r0]
   1096c:	e59c9010 	ldr	r9, [ip, #16]
   10970:	e5907004 	ldr	r7, [r0, #4]
   10974:	e0833083 	add	r3, r3, r3, lsl #1
   10978:	e0899089 	add	r9, r9, r9, lsl #1
   1097c:	e0233997 	mla	r3, r7, r9, r3
   10980:	e59f2068 	ldr	r2, [pc, #104]	; 109f0 <TransparentWriteChar24+0x90>
   10984:	e59c7000 	ldr	r7, [ip]
   10988:	e1a01201 	lsl	r1, r1, #4
   1098c:	e282b010 	add	fp, r2, #16
   10990:	e0837007 	add	r7, r3, r7
   10994:	e2808010 	add	r8, r0, #16
   10998:	e08bb001 	add	fp, fp, r1
   1099c:	e081a002 	add	sl, r1, r2
   109a0:	e3a04000 	mov	r4, #0
   109a4:	e49a5004 	ldr	r5, [sl], #4
   109a8:	e3550000 	cmp	r5, #0
   109ac:	e2046007 	and	r6, r4, #7
   109b0:	e2844001 	add	r4, r4, #1
   109b4:	aa000004 	bge	109cc <TransparentWriteChar24+0x6c>
   109b8:	e0860086 	add	r0, r6, r6, lsl #1
   109bc:	e0870000 	add	r0, r7, r0
   109c0:	e3a02003 	mov	r2, #3
   109c4:	e1a01008 	mov	r1, r8
   109c8:	eb0004b8 	bl	11cb0 <memcpy>
   109cc:	e3560007 	cmp	r6, #7
   109d0:	00877009 	addeq	r7, r7, r9
   109d4:	e3540020 	cmp	r4, #32
   109d8:	e1a05085 	lsl	r5, r5, #1
   109dc:	1afffff1 	bne	109a8 <TransparentWriteChar24+0x48>
   109e0:	e15b000a 	cmp	fp, sl
   109e4:	1affffed 	bne	109a0 <TransparentWriteChar24+0x40>
   109e8:	e8bd8ff8 	pop	{r3, r4, r5, r6, r7, r8, r9, sl, fp, pc}
   109ec:	0001d9f0 	.word	0x0001d9f0
   109f0:	0001a844 	.word	0x0001a844

000109f4 <PutImage24>:
   109f4:	e92d4ff0 	push	{r4, r5, r6, r7, r8, r9, sl, fp, lr}
   109f8:	e59fe098 	ldr	lr, [pc, #152]	; 10a98 <PutImage24+0xa4>
   109fc:	e590c000 	ldr	ip, [r0]
   10a00:	e59e8010 	ldr	r8, [lr, #16]
   10a04:	e5904004 	ldr	r4, [r0, #4]
   10a08:	e08cc08c 	add	ip, ip, ip, lsl #1
   10a0c:	e0880088 	add	r0, r8, r8, lsl #1
   10a10:	e02cc094 	mla	ip, r4, r0, ip
   10a14:	e59e4000 	ldr	r4, [lr]
   10a18:	e24dd00c 	sub	sp, sp, #12
   10a1c:	e2529000 	subs	r9, r2, #0
   10a20:	e58d0000 	str	r0, [sp]
   10a24:	e08c4004 	add	r4, ip, r4
   10a28:	e5ddb034 	ldrb	fp, [sp, #52]	; 0x34
   10a2c:	0a000017 	beq	10a90 <PutImage24+0x9c>
   10a30:	e2602000 	rsb	r2, r0, #0
   10a34:	e3510000 	cmp	r1, #0
   10a38:	e58d2004 	str	r2, [sp, #4]
   10a3c:	0a000013 	beq	10a90 <PutImage24+0x9c>
   10a40:	e1a0a003 	mov	sl, r3
   10a44:	e3a07000 	mov	r7, #0
   10a48:	e59d5030 	ldr	r5, [sp, #48]	; 0x30
   10a4c:	e0816081 	add	r6, r1, r1, lsl #1
   10a50:	e3a08000 	mov	r8, #0
   10a54:	e3a02003 	mov	r2, #3
   10a58:	e0851008 	add	r1, r5, r8
   10a5c:	e0840008 	add	r0, r4, r8
   10a60:	e0888002 	add	r8, r8, r2
   10a64:	eb000491 	bl	11cb0 <memcpy>
   10a68:	e1560008 	cmp	r6, r8
   10a6c:	1afffff8 	bne	10a54 <PutImage24+0x60>
   10a70:	e35b0000 	cmp	fp, #0
   10a74:	159d3004 	ldrne	r3, [sp, #4]
   10a78:	059d3000 	ldreq	r3, [sp]
   10a7c:	e2877001 	add	r7, r7, #1
   10a80:	e1590007 	cmp	r9, r7
   10a84:	e0844003 	add	r4, r4, r3
   10a88:	e085500a 	add	r5, r5, sl
   10a8c:	1affffef 	bne	10a50 <PutImage24+0x5c>
   10a90:	e28dd00c 	add	sp, sp, #12
   10a94:	e8bd8ff0 	pop	{r4, r5, r6, r7, r8, r9, sl, fp, pc}
   10a98:	0001d9f0 	.word	0x0001d9f0

00010a9c <ClearArea32>:
   10a9c:	e59fc05c 	ldr	ip, [pc, #92]	; 10b00 <ClearArea32+0x64>
   10aa0:	e92d4030 	push	{r4, r5, lr}
   10aa4:	e59c4010 	ldr	r4, [ip, #16]
   10aa8:	e59d500c 	ldr	r5, [sp, #12]
   10aac:	e59cc000 	ldr	ip, [ip]
   10ab0:	e2844001 	add	r4, r4, #1
   10ab4:	e1a04104 	lsl	r4, r4, #2
   10ab8:	e0555002 	subs	r5, r5, r2
   10abc:	e02cc294 	mla	ip, r4, r2, ip
   10ac0:	08bd8030 	popeq	{r4, r5, pc}
   10ac4:	e0531001 	subs	r1, r3, r1
   10ac8:	e2444004 	sub	r4, r4, #4
   10acc:	08bd8030 	popeq	{r4, r5, pc}
   10ad0:	e3a0e000 	mov	lr, #0
   10ad4:	e3a03000 	mov	r3, #0
   10ad8:	e5902018 	ldr	r2, [r0, #24]
   10adc:	e78c2103 	str	r2, [ip, r3, lsl #2]
   10ae0:	e2833001 	add	r3, r3, #1
   10ae4:	e1530001 	cmp	r3, r1
   10ae8:	1afffffa 	bne	10ad8 <ClearArea32+0x3c>
   10aec:	e28ee001 	add	lr, lr, #1
   10af0:	e15e0005 	cmp	lr, r5
   10af4:	e08cc004 	add	ip, ip, r4
   10af8:	1afffff5 	bne	10ad4 <ClearArea32+0x38>
   10afc:	e8bd8030 	pop	{r4, r5, pc}
   10b00:	0001d9f0 	.word	0x0001d9f0

00010b04 <VertLine32>:
   10b04:	e92d4010 	push	{r4, lr}
   10b08:	e59f4064 	ldr	r4, [pc, #100]	; 10b74 <VertLine32+0x70>
   10b0c:	e590c004 	ldr	ip, [r0, #4]
   10b10:	e594e010 	ldr	lr, [r4, #16]
   10b14:	e5903000 	ldr	r3, [r0]
   10b18:	e1a0e10e 	lsl	lr, lr, #2
   10b1c:	e00c0e9c 	mul	ip, ip, lr
   10b20:	e5944000 	ldr	r4, [r4]
   10b24:	e08c3103 	add	r3, ip, r3, lsl #2
   10b28:	e3510000 	cmp	r1, #0
   10b2c:	e0833004 	add	r3, r3, r4
   10b30:	08bd8010 	popeq	{r4, pc}
   10b34:	e3520001 	cmp	r2, #1
   10b38:	e26e4000 	rsb	r4, lr, #0
   10b3c:	e3a02000 	mov	r2, #0
   10b40:	0a000005 	beq	10b5c <VertLine32+0x58>
   10b44:	e2822001 	add	r2, r2, #1
   10b48:	e590c010 	ldr	ip, [r0, #16]
   10b4c:	e1510002 	cmp	r1, r2
   10b50:	e683c004 	str	ip, [r3], r4
   10b54:	1afffffa 	bne	10b44 <VertLine32+0x40>
   10b58:	e8bd8010 	pop	{r4, pc}
   10b5c:	e2822001 	add	r2, r2, #1
   10b60:	e590c010 	ldr	ip, [r0, #16]
   10b64:	e1510002 	cmp	r1, r2
   10b68:	e683c00e 	str	ip, [r3], lr
   10b6c:	1afffffa 	bne	10b5c <VertLine32+0x58>
   10b70:	e8bd8010 	pop	{r4, pc}
   10b74:	0001d9f0 	.word	0x0001d9f0

00010b78 <HorzLine32>:
   10b78:	e92d4010 	push	{r4, lr}
   10b7c:	e59fe044 	ldr	lr, [pc, #68]	; 10bc8 <HorzLine32+0x50>
   10b80:	e590c000 	ldr	ip, [r0]
   10b84:	e59e3010 	ldr	r3, [lr, #16]
   10b88:	e5904004 	ldr	r4, [r0, #4]
   10b8c:	e1a0c10c 	lsl	ip, ip, #2
   10b90:	e1a03103 	lsl	r3, r3, #2
   10b94:	e023c394 	mla	r3, r4, r3, ip
   10b98:	e59ec000 	ldr	ip, [lr]
   10b9c:	e3510000 	cmp	r1, #0
   10ba0:	e083300c 	add	r3, r3, ip
   10ba4:	08bd8010 	popeq	{r4, pc}
   10ba8:	e3a0c000 	mov	ip, #0
   10bac:	e1a02102 	lsl	r2, r2, #2
   10bb0:	e28cc001 	add	ip, ip, #1
   10bb4:	e590e010 	ldr	lr, [r0, #16]
   10bb8:	e151000c 	cmp	r1, ip
   10bbc:	e683e002 	str	lr, [r3], r2
   10bc0:	1afffffa 	bne	10bb0 <HorzLine32+0x38>
   10bc4:	e8bd8010 	pop	{r4, pc}
   10bc8:	0001d9f0 	.word	0x0001d9f0

00010bcc <DiagLine32>:
   10bcc:	e1510002 	cmp	r1, r2
   10bd0:	21a0c001 	movcs	ip, r1
   10bd4:	31a0c002 	movcc	ip, r2
   10bd8:	e92d41f0 	push	{r4, r5, r6, r7, r8, lr}
   10bdc:	e59f4074 	ldr	r4, [pc, #116]	; 10c58 <DiagLine32+0x8c>
   10be0:	e590e004 	ldr	lr, [r0, #4]
   10be4:	e5948010 	ldr	r8, [r4, #16]
   10be8:	e5905000 	ldr	r5, [r0]
   10bec:	e1a08108 	lsl	r8, r8, #2
   10bf0:	e00e089e 	mul	lr, lr, r8
   10bf4:	e5944000 	ldr	r4, [r4]
   10bf8:	e08ee105 	add	lr, lr, r5, lsl #2
   10bfc:	e35c0000 	cmp	ip, #0
   10c00:	e08ee004 	add	lr, lr, r4
   10c04:	08bd81f0 	popeq	{r4, r5, r6, r7, r8, pc}
   10c08:	e3a06000 	mov	r6, #0
   10c0c:	e1a05006 	mov	r5, r6
   10c10:	e1a04006 	mov	r4, r6
   10c14:	e59d7018 	ldr	r7, [sp, #24]
   10c18:	e1a03103 	lsl	r3, r3, #2
   10c1c:	e0080798 	mul	r8, r8, r7
   10c20:	e0844001 	add	r4, r4, r1
   10c24:	e5907010 	ldr	r7, [r0, #16]
   10c28:	e15c0004 	cmp	ip, r4
   10c2c:	e0855002 	add	r5, r5, r2
   10c30:	e58e7000 	str	r7, [lr]
   10c34:	e2866001 	add	r6, r6, #1
   10c38:	908ee003 	addls	lr, lr, r3
   10c3c:	9044400c 	subls	r4, r4, ip
   10c40:	e15c0005 	cmp	ip, r5
   10c44:	9045500c 	subls	r5, r5, ip
   10c48:	908ee008 	addls	lr, lr, r8
   10c4c:	e15c0006 	cmp	ip, r6
   10c50:	1afffff2 	bne	10c20 <DiagLine32+0x54>
   10c54:	e8bd81f0 	pop	{r4, r5, r6, r7, r8, pc}
   10c58:	0001d9f0 	.word	0x0001d9f0

00010c5c <WriteChar32>:
   10c5c:	e59f2080 	ldr	r2, [pc, #128]	; 10ce4 <WriteChar32+0x88>
   10c60:	e92d4070 	push	{r4, r5, r6, lr}
   10c64:	e5924010 	ldr	r4, [r2, #16]
   10c68:	e5903004 	ldr	r3, [r0, #4]
   10c6c:	e1a04104 	lsl	r4, r4, #2
   10c70:	e0030493 	mul	r3, r3, r4
   10c74:	e59f506c 	ldr	r5, [pc, #108]	; 10ce8 <WriteChar32+0x8c>
   10c78:	e590c000 	ldr	ip, [r0]
   10c7c:	e592e000 	ldr	lr, [r2]
   10c80:	e1a01201 	lsl	r1, r1, #4
   10c84:	e2856010 	add	r6, r5, #16
   10c88:	e083310c 	add	r3, r3, ip, lsl #2
   10c8c:	e24dd008 	sub	sp, sp, #8
   10c90:	e083e00e 	add	lr, r3, lr
   10c94:	e0866001 	add	r6, r6, r1
   10c98:	e0815005 	add	r5, r1, r5
   10c9c:	e3a03000 	mov	r3, #0
   10ca0:	e4952004 	ldr	r2, [r5], #4
   10ca4:	e3520000 	cmp	r2, #0
   10ca8:	e2031007 	and	r1, r3, #7
   10cac:	a590c014 	ldrge	ip, [r0, #20]
   10cb0:	b590c010 	ldrlt	ip, [r0, #16]
   10cb4:	e2833001 	add	r3, r3, #1
   10cb8:	e3510007 	cmp	r1, #7
   10cbc:	e78ec101 	str	ip, [lr, r1, lsl #2]
   10cc0:	008ee004 	addeq	lr, lr, r4
   10cc4:	e3530020 	cmp	r3, #32
   10cc8:	e58dc004 	str	ip, [sp, #4]
   10ccc:	e1a02082 	lsl	r2, r2, #1
   10cd0:	1afffff3 	bne	10ca4 <WriteChar32+0x48>
   10cd4:	e1560005 	cmp	r6, r5
   10cd8:	1affffef 	bne	10c9c <WriteChar32+0x40>
   10cdc:	e28dd008 	add	sp, sp, #8
   10ce0:	e8bd8070 	pop	{r4, r5, r6, pc}
   10ce4:	0001d9f0 	.word	0x0001d9f0
   10ce8:	0001a844 	.word	0x0001a844

00010cec <TransparentWriteChar32>:
   10cec:	e59f2070 	ldr	r2, [pc, #112]	; 10d64 <TransparentWriteChar32+0x78>
   10cf0:	e92d4070 	push	{r4, r5, r6, lr}
   10cf4:	e5924010 	ldr	r4, [r2, #16]
   10cf8:	e5903004 	ldr	r3, [r0, #4]
   10cfc:	e1a04104 	lsl	r4, r4, #2
   10d00:	e0030493 	mul	r3, r3, r4
   10d04:	e59f505c 	ldr	r5, [pc, #92]	; 10d68 <TransparentWriteChar32+0x7c>
   10d08:	e590e000 	ldr	lr, [r0]
   10d0c:	e592c000 	ldr	ip, [r2]
   10d10:	e1a01201 	lsl	r1, r1, #4
   10d14:	e2856010 	add	r6, r5, #16
   10d18:	e083310e 	add	r3, r3, lr, lsl #2
   10d1c:	e083c00c 	add	ip, r3, ip
   10d20:	e0866001 	add	r6, r6, r1
   10d24:	e0815005 	add	r5, r1, r5
   10d28:	e3a03000 	mov	r3, #0
   10d2c:	e4952004 	ldr	r2, [r5], #4
   10d30:	e3520000 	cmp	r2, #0
   10d34:	b590e010 	ldrlt	lr, [r0, #16]
   10d38:	e2031007 	and	r1, r3, #7
   10d3c:	b78ce101 	strlt	lr, [ip, r1, lsl #2]
   10d40:	e2833001 	add	r3, r3, #1
   10d44:	e3510007 	cmp	r1, #7
   10d48:	008cc004 	addeq	ip, ip, r4
   10d4c:	e3530020 	cmp	r3, #32
   10d50:	e1a02082 	lsl	r2, r2, #1
   10d54:	1afffff5 	bne	10d30 <TransparentWriteChar32+0x44>
   10d58:	e1550006 	cmp	r5, r6
   10d5c:	1afffff1 	bne	10d28 <TransparentWriteChar32+0x3c>
   10d60:	e8bd8070 	pop	{r4, r5, r6, pc}
   10d64:	0001d9f0 	.word	0x0001d9f0
   10d68:	0001a844 	.word	0x0001a844

00010d6c <PutImage32>:
   10d6c:	e59fc078 	ldr	ip, [pc, #120]	; 10dec <PutImage32+0x80>
   10d70:	e92d41f0 	push	{r4, r5, r6, r7, r8, lr}
   10d74:	e59c6010 	ldr	r6, [ip, #16]
   10d78:	e590e004 	ldr	lr, [r0, #4]
   10d7c:	e1a06106 	lsl	r6, r6, #2
   10d80:	e5904000 	ldr	r4, [r0]
   10d84:	e000069e 	mul	r0, lr, r6
   10d88:	e59ce000 	ldr	lr, [ip]
   10d8c:	e0800104 	add	r0, r0, r4, lsl #2
   10d90:	e3520000 	cmp	r2, #0
   10d94:	e080e00e 	add	lr, r0, lr
   10d98:	e5dd701c 	ldrb	r7, [sp, #28]
   10d9c:	08bd81f0 	popeq	{r4, r5, r6, r7, r8, pc}
   10da0:	e3510000 	cmp	r1, #0
   10da4:	e2668000 	rsb	r8, r6, #0
   10da8:	08bd81f0 	popeq	{r4, r5, r6, r7, r8, pc}
   10dac:	e3a05000 	mov	r5, #0
   10db0:	e59d4018 	ldr	r4, [sp, #24]
   10db4:	e3a00000 	mov	r0, #0
   10db8:	e794c100 	ldr	ip, [r4, r0, lsl #2]
   10dbc:	e78ec100 	str	ip, [lr, r0, lsl #2]
   10dc0:	e2800001 	add	r0, r0, #1
   10dc4:	e1510000 	cmp	r1, r0
   10dc8:	1afffffa 	bne	10db8 <PutImage32+0x4c>
   10dcc:	e3570000 	cmp	r7, #0
   10dd0:	e2855001 	add	r5, r5, #1
   10dd4:	108ee008 	addne	lr, lr, r8
   10dd8:	008ee006 	addeq	lr, lr, r6
   10ddc:	e1520005 	cmp	r2, r5
   10de0:	e0844003 	add	r4, r4, r3
   10de4:	1afffff2 	bne	10db4 <PutImage32+0x48>
   10de8:	e8bd81f0 	pop	{r4, r5, r6, r7, r8, pc}
   10dec:	0001d9f0 	.word	0x0001d9f0

00010df0 <SetBkMode>:
   10df0:	e3500000 	cmp	r0, #0
   10df4:	e2412001 	sub	r2, r1, #1
   10df8:	e59f3030 	ldr	r3, [pc, #48]	; 10e30 <SetBkMode+0x40>
   10dfc:	11a03000 	movne	r3, r0
   10e00:	e3520001 	cmp	r2, #1
   10e04:	9a000001 	bls	10e10 <SetBkMode+0x20>
   10e08:	e3a00000 	mov	r0, #0
   10e0c:	e12fff1e 	bx	lr
   10e10:	e3a00001 	mov	r0, #1
   10e14:	e5d32022 	ldrb	r2, [r3, #34]	; 0x22
   10e18:	e3c22001 	bic	r2, r2, #1
   10e1c:	e1510000 	cmp	r1, r0
   10e20:	11a01002 	movne	r1, r2
   10e24:	03821001 	orreq	r1, r2, #1
   10e28:	e5c31022 	strb	r1, [r3, #34]	; 0x22
   10e2c:	e12fff1e 	bx	lr
   10e30:	0001da20 	.word	0x0001da20

00010e34 <SetDCPenColor>:
   10e34:	e3500000 	cmp	r0, #0
   10e38:	e59f3050 	ldr	r3, [pc, #80]	; 10e90 <SetDCPenColor+0x5c>
   10e3c:	11a03000 	movne	r3, r0
   10e40:	e52de004 	push	{lr}		; (str lr, [sp, #-4]!)
   10e44:	e5d3001d 	ldrb	r0, [r3, #29]
   10e48:	e1a02821 	lsr	r2, r1, #16
   10e4c:	e3c000f8 	bic	r0, r0, #248	; 0xf8
   10e50:	e20220f8 	and	r2, r2, #248	; 0xf8
   10e54:	e1822000 	orr	r2, r2, r0
   10e58:	e5c3201d 	strb	r2, [r3, #29]
   10e5c:	e1d301bc 	ldrh	r0, [r3, #28]
   10e60:	e1a022a1 	lsr	r2, r1, #5
   10e64:	e3c00e7e 	bic	r0, r0, #2016	; 0x7e0
   10e68:	e2022e7e 	and	r2, r2, #2016	; 0x7e0
   10e6c:	e1822000 	orr	r2, r2, r0
   10e70:	e202c0e0 	and	ip, r2, #224	; 0xe0
   10e74:	e6efe071 	uxtb	lr, r1
   10e78:	e18cc1ae 	orr	ip, ip, lr, lsr #3
   10e7c:	e5930010 	ldr	r0, [r3, #16]
   10e80:	e1c321bc 	strh	r2, [r3, #28]
   10e84:	e5831010 	str	r1, [r3, #16]
   10e88:	e5c3c01c 	strb	ip, [r3, #28]
   10e8c:	e49df004 	pop	{pc}		; (ldr pc, [sp], #4)
   10e90:	0001da20 	.word	0x0001da20

00010e94 <SetDCBrushColor>:
   10e94:	e3500000 	cmp	r0, #0
   10e98:	e59f3050 	ldr	r3, [pc, #80]	; 10ef0 <SetDCBrushColor+0x5c>
   10e9c:	11a03000 	movne	r3, r0
   10ea0:	e52de004 	push	{lr}		; (str lr, [sp, #-4]!)
   10ea4:	e5d30021 	ldrb	r0, [r3, #33]	; 0x21
   10ea8:	e1a02821 	lsr	r2, r1, #16
   10eac:	e3c000f8 	bic	r0, r0, #248	; 0xf8
   10eb0:	e20220f8 	and	r2, r2, #248	; 0xf8
   10eb4:	e1822000 	orr	r2, r2, r0
   10eb8:	e5c32021 	strb	r2, [r3, #33]	; 0x21
   10ebc:	e1d302b0 	ldrh	r0, [r3, #32]
   10ec0:	e1a022a1 	lsr	r2, r1, #5
   10ec4:	e3c00e7e 	bic	r0, r0, #2016	; 0x7e0
   10ec8:	e2022e7e 	and	r2, r2, #2016	; 0x7e0
   10ecc:	e1822000 	orr	r2, r2, r0
   10ed0:	e202c0e0 	and	ip, r2, #224	; 0xe0
   10ed4:	e6efe071 	uxtb	lr, r1
   10ed8:	e18cc1ae 	orr	ip, ip, lr, lsr #3
   10edc:	e5930018 	ldr	r0, [r3, #24]
   10ee0:	e1c322b0 	strh	r2, [r3, #32]
   10ee4:	e5831018 	str	r1, [r3, #24]
   10ee8:	e5c3c020 	strb	ip, [r3, #32]
   10eec:	e49df004 	pop	{pc}		; (ldr pc, [sp], #4)
   10ef0:	0001da20 	.word	0x0001da20

00010ef4 <SetBkColor>:
   10ef4:	e3500000 	cmp	r0, #0
   10ef8:	e59f3050 	ldr	r3, [pc, #80]	; 10f50 <SetBkColor+0x5c>
   10efc:	11a03000 	movne	r3, r0
   10f00:	e52de004 	push	{lr}		; (str lr, [sp, #-4]!)
   10f04:	e5d3001f 	ldrb	r0, [r3, #31]
   10f08:	e1a02821 	lsr	r2, r1, #16
   10f0c:	e3c000f8 	bic	r0, r0, #248	; 0xf8
   10f10:	e20220f8 	and	r2, r2, #248	; 0xf8
   10f14:	e1822000 	orr	r2, r2, r0
   10f18:	e5c3201f 	strb	r2, [r3, #31]
   10f1c:	e1d301be 	ldrh	r0, [r3, #30]
   10f20:	e1a022a1 	lsr	r2, r1, #5
   10f24:	e3c00e7e 	bic	r0, r0, #2016	; 0x7e0
   10f28:	e2022e7e 	and	r2, r2, #2016	; 0x7e0
   10f2c:	e1822000 	orr	r2, r2, r0
   10f30:	e202c0e0 	and	ip, r2, #224	; 0xe0
   10f34:	e6efe071 	uxtb	lr, r1
   10f38:	e18cc1ae 	orr	ip, ip, lr, lsr #3
   10f3c:	e5930014 	ldr	r0, [r3, #20]
   10f40:	e1c321be 	strh	r2, [r3, #30]
   10f44:	e5831014 	str	r1, [r3, #20]
   10f48:	e5c3c01e 	strb	ip, [r3, #30]
   10f4c:	e49df004 	pop	{pc}		; (ldr pc, [sp], #4)
   10f50:	0001da20 	.word	0x0001da20

00010f54 <MoveToEx>:
   10f54:	e59fc050 	ldr	ip, [pc, #80]	; 10fac <MoveToEx+0x58>
   10f58:	e92d4070 	push	{r4, r5, r6, lr}
   10f5c:	e51ce030 	ldr	lr, [ip, #-48]	; 0xffffffd0
   10f60:	e3500000 	cmp	r0, #0
   10f64:	11a04000 	movne	r4, r0
   10f68:	01a0400c 	moveq	r4, ip
   10f6c:	e35e0000 	cmp	lr, #0
   10f70:	0a00000b 	beq	10fa4 <MoveToEx+0x50>
   10f74:	e3530000 	cmp	r3, #0
   10f78:	e1a00003 	mov	r0, r3
   10f7c:	e1a05002 	mov	r5, r2
   10f80:	e1a06001 	mov	r6, r1
   10f84:	0a000002 	beq	10f94 <MoveToEx+0x40>
   10f88:	e3a02008 	mov	r2, #8
   10f8c:	e1a01004 	mov	r1, r4
   10f90:	eb000346 	bl	11cb0 <memcpy>
   10f94:	e5846000 	str	r6, [r4]
   10f98:	e5845004 	str	r5, [r4, #4]
   10f9c:	e3a00001 	mov	r0, #1
   10fa0:	e8bd8070 	pop	{r4, r5, r6, pc}
   10fa4:	e1a0000e 	mov	r0, lr
   10fa8:	e8bd8070 	pop	{r4, r5, r6, pc}
   10fac:	0001da20 	.word	0x0001da20

00010fb0 <LineTo>:
   10fb0:	e92d40f0 	push	{r4, r5, r6, r7, lr}
   10fb4:	e59f40c0 	ldr	r4, [pc, #192]	; 1107c <LineTo+0xcc>
   10fb8:	e3500000 	cmp	r0, #0
   10fbc:	e1a0e004 	mov	lr, r4
   10fc0:	e53e3030 	ldr	r3, [lr, #-48]!	; 0xffffffd0
   10fc4:	11a04000 	movne	r4, r0
   10fc8:	e3530000 	cmp	r3, #0
   10fcc:	e24dd00c 	sub	sp, sp, #12
   10fd0:	01a00003 	moveq	r0, r3
   10fd4:	0a000017 	beq	11038 <LineTo+0x88>
   10fd8:	e5940000 	ldr	r0, [r4]
   10fdc:	e1a05002 	mov	r5, r2
   10fe0:	e1500001 	cmp	r0, r1
   10fe4:	c040c001 	subgt	ip, r0, r1
   10fe8:	d041c000 	suble	ip, r1, r0
   10fec:	e5940004 	ldr	r0, [r4, #4]
   10ff0:	c3e03000 	mvngt	r3, #0
   10ff4:	d3a03001 	movle	r3, #1
   10ff8:	e1500002 	cmp	r0, r2
   10ffc:	c0400002 	subgt	r0, r0, r2
   11000:	c3e07000 	mvngt	r7, #0
   11004:	d3a07001 	movle	r7, #1
   11008:	d0420000 	suble	r0, r2, r0
   1100c:	e35c0000 	cmp	ip, #0
   11010:	e1a06001 	mov	r6, r1
   11014:	1a000009 	bne	11040 <LineTo+0x90>
   11018:	e1a01000 	mov	r1, r0
   1101c:	e59e3018 	ldr	r3, [lr, #24]
   11020:	e1a02007 	mov	r2, r7
   11024:	e1a00004 	mov	r0, r4
   11028:	e12fff33 	blx	r3
   1102c:	e3a00001 	mov	r0, #1
   11030:	e5846000 	str	r6, [r4]
   11034:	e5845004 	str	r5, [r4, #4]
   11038:	e28dd00c 	add	sp, sp, #12
   1103c:	e8bd80f0 	pop	{r4, r5, r6, r7, pc}
   11040:	e3500000 	cmp	r0, #0
   11044:	1a000005 	bne	11060 <LineTo+0xb0>
   11048:	e59e701c 	ldr	r7, [lr, #28]
   1104c:	e1a02003 	mov	r2, r3
   11050:	e1a0100c 	mov	r1, ip
   11054:	e1a00004 	mov	r0, r4
   11058:	e12fff37 	blx	r7
   1105c:	eafffff2 	b	1102c <LineTo+0x7c>
   11060:	e58d7000 	str	r7, [sp]
   11064:	e1a02000 	mov	r2, r0
   11068:	e59e7020 	ldr	r7, [lr, #32]
   1106c:	e1a0100c 	mov	r1, ip
   11070:	e1a00004 	mov	r0, r4
   11074:	e12fff37 	blx	r7
   11078:	eaffffeb 	b	1102c <LineTo+0x7c>
   1107c:	0001da20 	.word	0x0001da20

00011080 <Rectangle>:
   11080:	e92d4ff0 	push	{r4, r5, r6, r7, r8, r9, sl, fp, lr}
   11084:	e24dd014 	sub	sp, sp, #20
   11088:	e59f819c 	ldr	r8, [pc, #412]	; 1122c <Rectangle+0x1ac>
   1108c:	e59d7038 	ldr	r7, [sp, #56]	; 0x38
   11090:	e3500000 	cmp	r0, #0
   11094:	11a0e000 	movne	lr, r0
   11098:	01a0e008 	moveq	lr, r8
   1109c:	e1530001 	cmp	r3, r1
   110a0:	c1570002 	cmpgt	r7, r2
   110a4:	c3a0c001 	movgt	ip, #1
   110a8:	d3a0c000 	movle	ip, #0
   110ac:	da00000e 	ble	110ec <Rectangle+0x6c>
   110b0:	e1a09008 	mov	r9, r8
   110b4:	e539c030 	ldr	ip, [r9, #-48]!	; 0xffffffd0
   110b8:	e35c0000 	cmp	ip, #0
   110bc:	0a00000a 	beq	110ec <Rectangle+0x6c>
   110c0:	e59eb010 	ldr	fp, [lr, #16]
   110c4:	e59ec018 	ldr	ip, [lr, #24]
   110c8:	e15b000c 	cmp	fp, ip
   110cc:	1a000009 	bne	110f8 <Rectangle+0x78>
   110d0:	e58d7000 	str	r7, [sp]
   110d4:	e1a0000e 	mov	r0, lr
   110d8:	e5994014 	ldr	r4, [r9, #20]
   110dc:	e12fff34 	blx	r4
   110e0:	e3a00001 	mov	r0, #1
   110e4:	e28dd014 	add	sp, sp, #20
   110e8:	e8bd8ff0 	pop	{r4, r5, r6, r7, r8, r9, sl, fp, pc}
   110ec:	e1a0000c 	mov	r0, ip
   110f0:	e28dd014 	add	sp, sp, #20
   110f4:	e8bd8ff0 	pop	{r4, r5, r6, r7, r8, r9, sl, fp, pc}
   110f8:	e1a05001 	mov	r5, r1
   110fc:	e1a06002 	mov	r6, r2
   11100:	e043b001 	sub	fp, r3, r1
   11104:	e1a04003 	mov	r4, r3
   11108:	e59e3000 	ldr	r3, [lr]
   1110c:	e35b0002 	cmp	fp, #2
   11110:	e58d300c 	str	r3, [sp, #12]
   11114:	e59e3004 	ldr	r3, [lr, #4]
   11118:	e1a0a000 	mov	sl, r0
   1111c:	e1a0800e 	mov	r8, lr
   11120:	e58d3008 	str	r3, [sp, #8]
   11124:	e88e0060 	stm	lr, {r5, r6}
   11128:	da000025 	ble	111c4 <Rectangle+0x144>
   1112c:	e047b002 	sub	fp, r7, r2
   11130:	e35b0002 	cmp	fp, #2
   11134:	e2444001 	sub	r4, r4, #1
   11138:	da00002e 	ble	111f8 <Rectangle+0x178>
   1113c:	e2477001 	sub	r7, r7, #1
   11140:	e58d7000 	str	r7, [sp]
   11144:	e1a0000e 	mov	r0, lr
   11148:	e1a03004 	mov	r3, r4
   1114c:	e2822001 	add	r2, r2, #1
   11150:	e2811001 	add	r1, r1, #1
   11154:	e599b014 	ldr	fp, [r9, #20]
   11158:	e12fff3b 	blx	fp
   1115c:	e1a02006 	mov	r2, r6
   11160:	e1a01004 	mov	r1, r4
   11164:	e1a0000a 	mov	r0, sl
   11168:	ebffff90 	bl	10fb0 <LineTo>
   1116c:	e1a02007 	mov	r2, r7
   11170:	e1a01004 	mov	r1, r4
   11174:	e1a0000a 	mov	r0, sl
   11178:	ebffff8c 	bl	10fb0 <LineTo>
   1117c:	e1a02007 	mov	r2, r7
   11180:	e1a01005 	mov	r1, r5
   11184:	e1a0000a 	mov	r0, sl
   11188:	ebffff88 	bl	10fb0 <LineTo>
   1118c:	e1a02006 	mov	r2, r6
   11190:	e1a01005 	mov	r1, r5
   11194:	e1a0000a 	mov	r0, sl
   11198:	ebffff84 	bl	10fb0 <LineTo>
   1119c:	e5993000 	ldr	r3, [r9]
   111a0:	e3530000 	cmp	r3, #0
   111a4:	03a00001 	moveq	r0, #1
   111a8:	0affffd0 	beq	110f0 <Rectangle+0x70>
   111ac:	e59d300c 	ldr	r3, [sp, #12]
   111b0:	e3a00001 	mov	r0, #1
   111b4:	e5883000 	str	r3, [r8]
   111b8:	e59d3008 	ldr	r3, [sp, #8]
   111bc:	e5883004 	str	r3, [r8, #4]
   111c0:	eaffffca 	b	110f0 <Rectangle+0x70>
   111c4:	e2477001 	sub	r7, r7, #1
   111c8:	e1a02007 	mov	r2, r7
   111cc:	ebffff77 	bl	10fb0 <LineTo>
   111d0:	e35b0002 	cmp	fp, #2
   111d4:	1afffff0 	bne	1119c <Rectangle+0x11c>
   111d8:	e5993000 	ldr	r3, [r9]
   111dc:	e1a02006 	mov	r2, r6
   111e0:	e3530000 	cmp	r3, #0
   111e4:	18880090 	stmne	r8, {r4, r7}
   111e8:	e1a01004 	mov	r1, r4
   111ec:	e1a0000a 	mov	r0, sl
   111f0:	ebffff6e 	bl	10fb0 <LineTo>
   111f4:	eaffffe8 	b	1119c <Rectangle+0x11c>
   111f8:	e1a01004 	mov	r1, r4
   111fc:	ebffff6b 	bl	10fb0 <LineTo>
   11200:	e35b0002 	cmp	fp, #2
   11204:	1affffe4 	bne	1119c <Rectangle+0x11c>
   11208:	e5993000 	ldr	r3, [r9]
   1120c:	e2472001 	sub	r2, r7, #1
   11210:	e3530000 	cmp	r3, #0
   11214:	15885000 	strne	r5, [r8]
   11218:	15882004 	strne	r2, [r8, #4]
   1121c:	e1a01004 	mov	r1, r4
   11220:	e1a0000a 	mov	r0, sl
   11224:	ebffff61 	bl	10fb0 <LineTo>
   11228:	eaffffdb 	b	1119c <Rectangle+0x11c>
   1122c:	0001da20 	.word	0x0001da20

00011230 <TextOut>:
   11230:	e92d41f0 	push	{r4, r5, r6, r7, r8, lr}
   11234:	e59d8018 	ldr	r8, [sp, #24]
   11238:	e59f5070 	ldr	r5, [pc, #112]	; 112b0 <TextOut+0x80>
   1123c:	e3500000 	cmp	r0, #0
   11240:	11a04000 	movne	r4, r0
   11244:	01a04005 	moveq	r4, r5
   11248:	e3530000 	cmp	r3, #0
   1124c:	13580000 	cmpne	r8, #0
   11250:	c3a00001 	movgt	r0, #1
   11254:	d3a00000 	movle	r0, #0
   11258:	d8bd81f0 	pople	{r4, r5, r6, r7, r8, pc}
   1125c:	e5350030 	ldr	r0, [r5, #-48]!	; 0xffffffd0
   11260:	e3500000 	cmp	r0, #0
   11264:	08bd81f0 	popeq	{r4, r5, r6, r7, r8, pc}
   11268:	e3a07000 	mov	r7, #0
   1126c:	e8840006 	stm	r4, {r1, r2}
   11270:	e2436001 	sub	r6, r3, #1
   11274:	e5d43022 	ldrb	r3, [r4, #34]	; 0x22
   11278:	e5f61001 	ldrb	r1, [r6, #1]!
   1127c:	e3130001 	tst	r3, #1
   11280:	15953028 	ldrne	r3, [r5, #40]	; 0x28
   11284:	05953024 	ldreq	r3, [r5, #36]	; 0x24
   11288:	e1a00004 	mov	r0, r4
   1128c:	e12fff33 	blx	r3
   11290:	e5943000 	ldr	r3, [r4]
   11294:	e2877001 	add	r7, r7, #1
   11298:	e2833008 	add	r3, r3, #8
   1129c:	e1580007 	cmp	r8, r7
   112a0:	e5843000 	str	r3, [r4]
   112a4:	cafffff2 	bgt	11274 <TextOut+0x44>
   112a8:	e3a00001 	mov	r0, #1
   112ac:	e8bd81f0 	pop	{r4, r5, r6, r7, r8, pc}
   112b0:	0001da20 	.word	0x0001da20

000112b4 <PiConsole_Init>:
   112b4:	e3510000 	cmp	r1, #0
   112b8:	13500000 	cmpne	r0, #0
   112bc:	e92d43f0 	push	{r4, r5, r6, r7, r8, r9, lr}
   112c0:	e24dd0bc 	sub	sp, sp, #188	; 0xbc
   112c4:	e1a04002 	mov	r4, r2
   112c8:	e1a08003 	mov	r8, r3
   112cc:	e1a05000 	mov	r5, r0
   112d0:	e1a06001 	mov	r6, r1
   112d4:	128d905c 	addne	r9, sp, #92	; 0x5c
   112d8:	0a000068 	beq	11480 <PiConsole_Init+0x1cc>
   112dc:	e3540000 	cmp	r4, #0
   112e0:	1a000008 	bne	11308 <PiConsole_Init+0x54>
   112e4:	e3a03004 	mov	r3, #4
   112e8:	e59f226c 	ldr	r2, [pc, #620]	; 1155c <PiConsole_Init+0x2a8>
   112ec:	e88d0018 	stm	sp, {r3, r4}
   112f0:	e1a01003 	mov	r1, r3
   112f4:	e1a00009 	mov	r0, r9
   112f8:	ebffdec2 	bl	8e08 <mailbox_tag_message>
   112fc:	e3500000 	cmp	r0, #0
   11300:	0a000022 	beq	11390 <PiConsole_Init+0xdc>
   11304:	e59d4068 	ldr	r4, [sp, #104]	; 0x68
   11308:	e3a02004 	mov	r2, #4
   1130c:	e3a03008 	mov	r3, #8
   11310:	e3a07000 	mov	r7, #0
   11314:	e3a0e010 	mov	lr, #16
   11318:	e59f1240 	ldr	r1, [pc, #576]	; 11560 <PiConsole_Init+0x2ac>
   1131c:	e59fc240 	ldr	ip, [pc, #576]	; 11564 <PiConsole_Init+0x2b0>
   11320:	e58d100c 	str	r1, [sp, #12]
   11324:	e59f123c 	ldr	r1, [pc, #572]	; 11568 <PiConsole_Init+0x2b4>
   11328:	e58dc020 	str	ip, [sp, #32]
   1132c:	e59fc238 	ldr	ip, [pc, #568]	; 1156c <PiConsole_Init+0x2b8>
   11330:	e1a00009 	mov	r0, r9
   11334:	e58d2028 	str	r2, [sp, #40]	; 0x28
   11338:	e58d2024 	str	r2, [sp, #36]	; 0x24
   1133c:	e58d2048 	str	r2, [sp, #72]	; 0x48
   11340:	e58d2038 	str	r2, [sp, #56]	; 0x38
   11344:	e58d1044 	str	r1, [sp, #68]	; 0x44
   11348:	e58d601c 	str	r6, [sp, #28]
   1134c:	e58d5018 	str	r5, [sp, #24]
   11350:	e98d0060 	stmib	sp, {r5, r6}
   11354:	e58d3014 	str	r3, [sp, #20]
   11358:	e58d3010 	str	r3, [sp, #16]
   1135c:	e58d3000 	str	r3, [sp]
   11360:	e59f2208 	ldr	r2, [pc, #520]	; 11570 <PiConsole_Init+0x2bc>
   11364:	e3a01017 	mov	r1, #23
   11368:	e58d402c 	str	r4, [sp, #44]	; 0x2c
   1136c:	e58d3034 	str	r3, [sp, #52]	; 0x34
   11370:	e58d7050 	str	r7, [sp, #80]	; 0x50
   11374:	e58d704c 	str	r7, [sp, #76]	; 0x4c
   11378:	e58d7040 	str	r7, [sp, #64]	; 0x40
   1137c:	e58de03c 	str	lr, [sp, #60]	; 0x3c
   11380:	e58dc030 	str	ip, [sp, #48]	; 0x30
   11384:	ebffde9f 	bl	8e08 <mailbox_tag_message>
   11388:	e2509000 	subs	r9, r0, #0
   1138c:	1a000003 	bne	113a0 <PiConsole_Init+0xec>
   11390:	e3a09000 	mov	r9, #0
   11394:	e1a00009 	mov	r0, r9
   11398:	e28dd0bc 	add	sp, sp, #188	; 0xbc
   1139c:	e8bd83f0 	pop	{r4, r5, r6, r7, r8, r9, pc}
   113a0:	e59d00a0 	ldr	r0, [sp, #160]	; 0xa0
   113a4:	ebffdc30 	bl	846c <GPUaddrToARMaddr>
   113a8:	e3e0c000 	mvn	ip, #0
   113ac:	e3a01e7e 	mov	r1, #2016	; 0x7e0
   113b0:	e59f31bc 	ldr	r3, [pc, #444]	; 11574 <PiConsole_Init+0x2c0>
   113b4:	e59f21bc 	ldr	r2, [pc, #444]	; 11578 <PiConsole_Init+0x2c4>
   113b8:	e8830061 	stm	r3, {r0, r5, r6}
   113bc:	e5832048 	str	r2, [r3, #72]	; 0x48
   113c0:	e59f01b4 	ldr	r0, [pc, #436]	; 1157c <PiConsole_Init+0x2c8>
   113c4:	e59d20b4 	ldr	r2, [sp, #180]	; 0xb4
   113c8:	e3540018 	cmp	r4, #24
   113cc:	e583400c 	str	r4, [r3, #12]
   113d0:	e5837044 	str	r7, [r3, #68]	; 0x44
   113d4:	e583c040 	str	ip, [r3, #64]	; 0x40
   113d8:	e583004c 	str	r0, [r3, #76]	; 0x4c
   113dc:	e1c315b0 	strh	r1, [r3, #80]	; 0x50
   113e0:	e5832010 	str	r2, [r3, #16]
   113e4:	0a000038 	beq	114cc <PiConsole_Init+0x218>
   113e8:	e3540020 	cmp	r4, #32
   113ec:	0a000049 	beq	11518 <PiConsole_Init+0x264>
   113f0:	e3540010 	cmp	r4, #16
   113f4:	1a00000f 	bne	11438 <PiConsole_Init+0x184>
   113f8:	e59f1180 	ldr	r1, [pc, #384]	; 11580 <PiConsole_Init+0x2cc>
   113fc:	e59f0180 	ldr	r0, [pc, #384]	; 11584 <PiConsole_Init+0x2d0>
   11400:	e5831014 	str	r1, [r3, #20]
   11404:	e59f117c 	ldr	r1, [pc, #380]	; 11588 <PiConsole_Init+0x2d4>
   11408:	e5830018 	str	r0, [r3, #24]
   1140c:	e583101c 	str	r1, [r3, #28]
   11410:	e59f0174 	ldr	r0, [pc, #372]	; 1158c <PiConsole_Init+0x2d8>
   11414:	e59f1174 	ldr	r1, [pc, #372]	; 11590 <PiConsole_Init+0x2dc>
   11418:	e5830020 	str	r0, [r3, #32]
   1141c:	e5831024 	str	r1, [r3, #36]	; 0x24
   11420:	e59f016c 	ldr	r0, [pc, #364]	; 11594 <PiConsole_Init+0x2e0>
   11424:	e59f116c 	ldr	r1, [pc, #364]	; 11598 <PiConsole_Init+0x2e4>
   11428:	e1a020a2 	lsr	r2, r2, #1
   1142c:	e5832010 	str	r2, [r3, #16]
   11430:	e5830028 	str	r0, [r3, #40]	; 0x28
   11434:	e583102c 	str	r1, [r3, #44]	; 0x2c
   11438:	e3a0c000 	mov	ip, #0
   1143c:	e3a00001 	mov	r0, #1
   11440:	e5931210 	ldr	r1, [r3, #528]	; 0x210
   11444:	e158000c 	cmp	r8, ip
   11448:	e0811000 	add	r1, r1, r0
   1144c:	e5831210 	str	r1, [r3, #528]	; 0x210
   11450:	e1c3c5b8 	strh	ip, [r3, #88]	; 0x58
   11454:	e1c305b6 	strh	r0, [r3, #86]	; 0x56
   11458:	0affffcd 	beq	11394 <PiConsole_Init+0xe0>
   1145c:	e58d2000 	str	r2, [sp]
   11460:	e1a03004 	mov	r3, r4
   11464:	e1a02006 	mov	r2, r6
   11468:	e1a01005 	mov	r1, r5
   1146c:	e59f0128 	ldr	r0, [pc, #296]	; 1159c <PiConsole_Init+0x2e8>
   11470:	e12fff38 	blx	r8
   11474:	e1a00009 	mov	r0, r9
   11478:	e28dd0bc 	add	sp, sp, #188	; 0xbc
   1147c:	e8bd83f0 	pop	{r4, r5, r6, r7, r8, r9, pc}
   11480:	e3a03000 	mov	r3, #0
   11484:	e28d905c 	add	r9, sp, #92	; 0x5c
   11488:	e58d3008 	str	r3, [sp, #8]
   1148c:	e58d3004 	str	r3, [sp, #4]
   11490:	e58d3000 	str	r3, [sp]
   11494:	e1a00009 	mov	r0, r9
   11498:	e3a03008 	mov	r3, #8
   1149c:	e59f20fc 	ldr	r2, [pc, #252]	; 115a0 <PiConsole_Init+0x2ec>
   114a0:	e3a01005 	mov	r1, #5
   114a4:	ebffde57 	bl	8e08 <mailbox_tag_message>
   114a8:	e3500000 	cmp	r0, #0
   114ac:	0affffb7 	beq	11390 <PiConsole_Init+0xdc>
   114b0:	e3550000 	cmp	r5, #0
   114b4:	1a000002 	bne	114c4 <PiConsole_Init+0x210>
   114b8:	e3560000 	cmp	r6, #0
   114bc:	e59d5068 	ldr	r5, [sp, #104]	; 0x68
   114c0:	1affff85 	bne	112dc <PiConsole_Init+0x28>
   114c4:	e59d606c 	ldr	r6, [sp, #108]	; 0x6c
   114c8:	eaffff83 	b	112dc <PiConsole_Init+0x28>
   114cc:	e59f00d0 	ldr	r0, [pc, #208]	; 115a4 <PiConsole_Init+0x2f0>
   114d0:	e59fc0d0 	ldr	ip, [pc, #208]	; 115a8 <PiConsole_Init+0x2f4>
   114d4:	e0810092 	umull	r0, r1, r2, r0
   114d8:	e59f00cc 	ldr	r0, [pc, #204]	; 115ac <PiConsole_Init+0x2f8>
   114dc:	e1a020a1 	lsr	r2, r1, #1
   114e0:	e59f10c8 	ldr	r1, [pc, #200]	; 115b0 <PiConsole_Init+0x2fc>
   114e4:	e5830018 	str	r0, [r3, #24]
   114e8:	e583101c 	str	r1, [r3, #28]
   114ec:	e59f00c0 	ldr	r0, [pc, #192]	; 115b4 <PiConsole_Init+0x300>
   114f0:	e59f10c0 	ldr	r1, [pc, #192]	; 115b8 <PiConsole_Init+0x304>
   114f4:	e5830020 	str	r0, [r3, #32]
   114f8:	e5831024 	str	r1, [r3, #36]	; 0x24
   114fc:	e59f00b8 	ldr	r0, [pc, #184]	; 115bc <PiConsole_Init+0x308>
   11500:	e59f10b8 	ldr	r1, [pc, #184]	; 115c0 <PiConsole_Init+0x30c>
   11504:	e5832010 	str	r2, [r3, #16]
   11508:	e583c014 	str	ip, [r3, #20]
   1150c:	e5830028 	str	r0, [r3, #40]	; 0x28
   11510:	e583102c 	str	r1, [r3, #44]	; 0x2c
   11514:	eaffffc7 	b	11438 <PiConsole_Init+0x184>
   11518:	e59f10a4 	ldr	r1, [pc, #164]	; 115c4 <PiConsole_Init+0x310>
   1151c:	e59f00a4 	ldr	r0, [pc, #164]	; 115c8 <PiConsole_Init+0x314>
   11520:	e5831014 	str	r1, [r3, #20]
   11524:	e59f10a0 	ldr	r1, [pc, #160]	; 115cc <PiConsole_Init+0x318>
   11528:	e5830018 	str	r0, [r3, #24]
   1152c:	e583101c 	str	r1, [r3, #28]
   11530:	e59f0098 	ldr	r0, [pc, #152]	; 115d0 <PiConsole_Init+0x31c>
   11534:	e59f1098 	ldr	r1, [pc, #152]	; 115d4 <PiConsole_Init+0x320>
   11538:	e5830020 	str	r0, [r3, #32]
   1153c:	e5831024 	str	r1, [r3, #36]	; 0x24
   11540:	e59f0090 	ldr	r0, [pc, #144]	; 115d8 <PiConsole_Init+0x324>
   11544:	e59f1090 	ldr	r1, [pc, #144]	; 115dc <PiConsole_Init+0x328>
   11548:	e1a02122 	lsr	r2, r2, #2
   1154c:	e5832010 	str	r2, [r3, #16]
   11550:	e5830028 	str	r0, [r3, #40]	; 0x28
   11554:	e583102c 	str	r1, [r3, #44]	; 0x2c
   11558:	eaffffb6 	b	11438 <PiConsole_Init+0x184>
   1155c:	00040005 	.word	0x00040005
   11560:	00048004 	.word	0x00048004
   11564:	00048005 	.word	0x00048005
   11568:	00040008 	.word	0x00040008
   1156c:	00040001 	.word	0x00040001
   11570:	00048003 	.word	0x00048003
   11574:	0001d9f0 	.word	0x0001d9f0
   11578:	ff00ff00 	.word	0xff00ff00
   1157c:	0000ffff 	.word	0x0000ffff
   11580:	0001031c 	.word	0x0001031c
   11584:	00010388 	.word	0x00010388
   11588:	000103fc 	.word	0x000103fc
   1158c:	00010450 	.word	0x00010450
   11590:	000104e0 	.word	0x000104e0
   11594:	00010568 	.word	0x00010568
   11598:	000105ec 	.word	0x000105ec
   1159c:	0001b848 	.word	0x0001b848
   115a0:	00040003 	.word	0x00040003
   115a4:	aaaaaaab 	.word	0xaaaaaaab
   115a8:	0001067c 	.word	0x0001067c
   115ac:	000106f8 	.word	0x000106f8
   115b0:	00010790 	.word	0x00010790
   115b4:	000107f4 	.word	0x000107f4
   115b8:	000108bc 	.word	0x000108bc
   115bc:	00010960 	.word	0x00010960
   115c0:	000109f4 	.word	0x000109f4
   115c4:	00010a9c 	.word	0x00010a9c
   115c8:	00010b04 	.word	0x00010b04
   115cc:	00010b78 	.word	0x00010b78
   115d0:	00010bcc 	.word	0x00010bcc
   115d4:	00010c5c 	.word	0x00010c5c
   115d8:	00010cec 	.word	0x00010cec
   115dc:	00010d6c 	.word	0x00010d6c

000115e0 <GetConsole_FrameBuffer>:
   115e0:	e59f3004 	ldr	r3, [pc, #4]	; 115ec <GetConsole_FrameBuffer+0xc>
   115e4:	e5930000 	ldr	r0, [r3]
   115e8:	e12fff1e 	bx	lr
   115ec:	0001d9f0 	.word	0x0001d9f0

000115f0 <GetConsole_Width>:
   115f0:	e59f3004 	ldr	r3, [pc, #4]	; 115fc <GetConsole_Width+0xc>
   115f4:	e5930004 	ldr	r0, [r3, #4]
   115f8:	e12fff1e 	bx	lr
   115fc:	0001d9f0 	.word	0x0001d9f0

00011600 <GetConsole_Height>:
   11600:	e59f3004 	ldr	r3, [pc, #4]	; 1160c <GetConsole_Height+0xc>
   11604:	e5930008 	ldr	r0, [r3, #8]
   11608:	e12fff1e 	bx	lr
   1160c:	0001d9f0 	.word	0x0001d9f0

00011610 <GetConsole_Depth>:
   11610:	e59f3004 	ldr	r3, [pc, #4]	; 1161c <GetConsole_Depth+0xc>
   11614:	e593000c 	ldr	r0, [r3, #12]
   11618:	e12fff1e 	bx	lr
   1161c:	0001d9f0 	.word	0x0001d9f0

00011620 <WhereXY>:
   11620:	e3500000 	cmp	r0, #0
   11624:	159f3018 	ldrne	r3, [pc, #24]	; 11644 <WhereXY+0x24>
   11628:	15933038 	ldrne	r3, [r3, #56]	; 0x38
   1162c:	15803000 	strne	r3, [r0]
   11630:	e3510000 	cmp	r1, #0
   11634:	159f3008 	ldrne	r3, [pc, #8]	; 11644 <WhereXY+0x24>
   11638:	1593303c 	ldrne	r3, [r3, #60]	; 0x3c
   1163c:	15813000 	strne	r3, [r1]
   11640:	e12fff1e 	bx	lr
   11644:	0001d9f0 	.word	0x0001d9f0

00011648 <GotoXY>:
   11648:	e59f3008 	ldr	r3, [pc, #8]	; 11658 <GotoXY+0x10>
   1164c:	e5830038 	str	r0, [r3, #56]	; 0x38
   11650:	e583103c 	str	r1, [r3, #60]	; 0x3c
   11654:	e12fff1e 	bx	lr
   11658:	0001d9f0 	.word	0x0001d9f0

0001165c <WriteText>:
   1165c:	e92d4070 	push	{r4, r5, r6, lr}
   11660:	e59f40c8 	ldr	r4, [pc, #200]	; 11730 <WriteText+0xd4>
   11664:	e5943000 	ldr	r3, [r4]
   11668:	e3530000 	cmp	r3, #0
   1166c:	13500000 	cmpne	r0, #0
   11670:	08bd8070 	popeq	{r4, r5, r6, pc}
   11674:	e5d03000 	ldrb	r3, [r0]
   11678:	e3530000 	cmp	r3, #0
   1167c:	08bd8070 	popeq	{r4, r5, r6, pc}
   11680:	e3a06000 	mov	r6, #0
   11684:	e2805001 	add	r5, r0, #1
   11688:	ea000018 	b	116f0 <WriteText+0x94>
   1168c:	e353000d 	cmp	r3, #13
   11690:	05846038 	streq	r6, [r4, #56]	; 0x38
   11694:	0a00000e 	beq	116d4 <WriteText+0x78>
   11698:	e3530009 	cmp	r3, #9
   1169c:	0a00001a 	beq	1170c <WriteText+0xb0>
   116a0:	e5942038 	ldr	r2, [r4, #56]	; 0x38
   116a4:	e594303c 	ldr	r3, [r4, #60]	; 0x3c
   116a8:	e1a02182 	lsl	r2, r2, #3
   116ac:	e1a03203 	lsl	r3, r3, #4
   116b0:	e5843034 	str	r3, [r4, #52]	; 0x34
   116b4:	e5842030 	str	r2, [r4, #48]	; 0x30
   116b8:	e5943024 	ldr	r3, [r4, #36]	; 0x24
   116bc:	e5551001 	ldrb	r1, [r5, #-1]
   116c0:	e59f006c 	ldr	r0, [pc, #108]	; 11734 <WriteText+0xd8>
   116c4:	e12fff33 	blx	r3
   116c8:	e5943038 	ldr	r3, [r4, #56]	; 0x38
   116cc:	e2833001 	add	r3, r3, #1
   116d0:	e5843038 	str	r3, [r4, #56]	; 0x38
   116d4:	e5943000 	ldr	r3, [r4]
   116d8:	e3530000 	cmp	r3, #0
   116dc:	13550000 	cmpne	r5, #0
   116e0:	08bd8070 	popeq	{r4, r5, r6, pc}
   116e4:	e4d53001 	ldrb	r3, [r5], #1
   116e8:	e3530000 	cmp	r3, #0
   116ec:	08bd8070 	popeq	{r4, r5, r6, pc}
   116f0:	e353000a 	cmp	r3, #10
   116f4:	1affffe4 	bne	1168c <WriteText+0x30>
   116f8:	e594303c 	ldr	r3, [r4, #60]	; 0x3c
   116fc:	e5846038 	str	r6, [r4, #56]	; 0x38
   11700:	e2833001 	add	r3, r3, #1
   11704:	e584303c 	str	r3, [r4, #60]	; 0x3c
   11708:	eafffff1 	b	116d4 <WriteText+0x78>
   1170c:	e5943038 	ldr	r3, [r4, #56]	; 0x38
   11710:	e2833008 	add	r3, r3, #8
   11714:	e2731000 	rsbs	r1, r3, #0
   11718:	e2011007 	and	r1, r1, #7
   1171c:	e2032007 	and	r2, r3, #7
   11720:	52612000 	rsbpl	r2, r1, #0
   11724:	e0433002 	sub	r3, r3, r2
   11728:	e5843038 	str	r3, [r4, #56]	; 0x38
   1172c:	eaffffe8 	b	116d4 <WriteText+0x78>
   11730:	0001d9f0 	.word	0x0001d9f0
   11734:	0001da20 	.word	0x0001da20

00011738 <SelectObject>:
   11738:	e92d4ff0 	push	{r4, r5, r6, r7, r8, r9, sl, fp, lr}
   1173c:	e2514000 	subs	r4, r1, #0
   11740:	e24dda01 	sub	sp, sp, #4096	; 0x1000
   11744:	e24dd014 	sub	sp, sp, #20
   11748:	0a00003b 	beq	1183c <SelectObject+0x104>
   1174c:	e5943000 	ldr	r3, [r4]
   11750:	e59f6450 	ldr	r6, [pc, #1104]	; 11ba8 <SelectObject+0x470>
   11754:	e3500000 	cmp	r0, #0
   11758:	11a05000 	movne	r5, r0
   1175c:	01a05006 	moveq	r5, r6
   11760:	e3530000 	cmp	r3, #0
   11764:	13a04000 	movne	r4, #0
   11768:	1a000033 	bne	1183c <SelectObject+0x104>
   1176c:	e5d4c009 	ldrb	ip, [r4, #9]
   11770:	e5d42008 	ldrb	r2, [r4, #8]
   11774:	e5d4e019 	ldrb	lr, [r4, #25]
   11778:	e2466030 	sub	r6, r6, #48	; 0x30
   1177c:	e5d41018 	ldrb	r1, [r4, #24]
   11780:	e5d4000a 	ldrb	r0, [r4, #10]
   11784:	e182240c 	orr	r2, r2, ip, lsl #8
   11788:	e596c00c 	ldr	ip, [r6, #12]
   1178c:	e181140e 	orr	r1, r1, lr, lsl #8
   11790:	e1822800 	orr	r2, r2, r0, lsl #16
   11794:	e15c0001 	cmp	ip, r1
   11798:	e1d502ba 	ldrh	r0, [r5, #42]	; 0x2a
   1179c:	e1d512bc 	ldrh	r1, [r5, #44]	; 0x2c
   117a0:	e5d4e00b 	ldrb	lr, [r4, #11]
   117a4:	e1801801 	orr	r1, r0, r1, lsl #16
   117a8:	e1822c0e 	orr	r2, r2, lr, lsl #24
   117ac:	e58d1008 	str	r1, [sp, #8]
   117b0:	1a000025 	bne	1184c <SelectObject+0x114>
   117b4:	e5d4001a 	ldrb	r0, [r4, #26]
   117b8:	e5853000 	str	r3, [r5]
   117bc:	e5853004 	str	r3, [r5, #4]
   117c0:	e5d4800d 	ldrb	r8, [r4, #13]
   117c4:	e5d4c005 	ldrb	ip, [r4, #5]
   117c8:	e5d4300c 	ldrb	r3, [r4, #12]
   117cc:	e5d41004 	ldrb	r1, [r4, #4]
   117d0:	e5d4700e 	ldrb	r7, [r4, #14]
   117d4:	e2000001 	and	r0, r0, #1
   117d8:	e5d4e00f 	ldrb	lr, [r4, #15]
   117dc:	e1833408 	orr	r3, r3, r8, lsl #8
   117e0:	e181140c 	orr	r1, r1, ip, lsl #8
   117e4:	e5d48006 	ldrb	r8, [r4, #6]
   117e8:	e5d4c007 	ldrb	ip, [r4, #7]
   117ec:	e58d0004 	str	r0, [sp, #4]
   117f0:	e5d40014 	ldrb	r0, [r4, #20]
   117f4:	e1833807 	orr	r3, r3, r7, lsl #16
   117f8:	e5d47015 	ldrb	r7, [r4, #21]
   117fc:	e1811808 	orr	r1, r1, r8, lsl #16
   11800:	e1800407 	orr	r0, r0, r7, lsl #8
   11804:	e5d47016 	ldrb	r7, [r4, #22]
   11808:	e596602c 	ldr	r6, [r6, #44]	; 0x2c
   1180c:	e1800807 	orr	r0, r0, r7, lsl #16
   11810:	e5d47017 	ldrb	r7, [r4, #23]
   11814:	e1833c0e 	orr	r3, r3, lr, lsl #24
   11818:	e1800c07 	orr	r0, r0, r7, lsl #24
   1181c:	e58d0000 	str	r0, [sp]
   11820:	e1811c0c 	orr	r1, r1, ip, lsl #24
   11824:	e1a00005 	mov	r0, r5
   11828:	e12fff36 	blx	r6
   1182c:	e1a03824 	lsr	r3, r4, #16
   11830:	e1c542ba 	strh	r4, [r5, #42]	; 0x2a
   11834:	e59d4008 	ldr	r4, [sp, #8]
   11838:	e1c532bc 	strh	r3, [r5, #44]	; 0x2c
   1183c:	e1a00004 	mov	r0, r4
   11840:	e28dda01 	add	sp, sp, #4096	; 0x1000
   11844:	e28dd014 	add	sp, sp, #20
   11848:	e8bd8ff0 	pop	{r4, r5, r6, r7, r8, r9, sl, fp, pc}
   1184c:	e5d4101a 	ldrb	r1, [r4, #26]
   11850:	e5d47014 	ldrb	r7, [r4, #20]
   11854:	e3110001 	tst	r1, #1
   11858:	e5d4e015 	ldrb	lr, [r4, #21]
   1185c:	e5d40016 	ldrb	r0, [r4, #22]
   11860:	e5d41017 	ldrb	r1, [r4, #23]
   11864:	e5853000 	str	r3, [r5]
   11868:	11a03002 	movne	r3, r2
   1186c:	e187740e 	orr	r7, r7, lr, lsl #8
   11870:	e1877800 	orr	r7, r7, r0, lsl #16
   11874:	e3520000 	cmp	r2, #0
   11878:	e1877c01 	orr	r7, r7, r1, lsl #24
   1187c:	e5853004 	str	r3, [r5, #4]
   11880:	0affffe9 	beq	1182c <SelectObject+0xf4>
   11884:	e3a08000 	mov	r8, #0
   11888:	e5d4200d 	ldrb	r2, [r4, #13]
   1188c:	e5d4300c 	ldrb	r3, [r4, #12]
   11890:	e5d4100e 	ldrb	r1, [r4, #14]
   11894:	e1833402 	orr	r3, r3, r2, lsl #8
   11898:	e5d4200f 	ldrb	r2, [r4, #15]
   1189c:	e1833801 	orr	r3, r3, r1, lsl #16
   118a0:	e1833c02 	orr	r3, r3, r2, lsl #24
   118a4:	e28db010 	add	fp, sp, #16
   118a8:	e1a0a008 	mov	sl, r8
   118ac:	ea00000b 	b	118e0 <SelectObject+0x1a8>
   118b0:	e2422001 	sub	r2, r2, #1
   118b4:	e5852004 	str	r2, [r5, #4]
   118b8:	e5d41009 	ldrb	r1, [r4, #9]
   118bc:	e5d42008 	ldrb	r2, [r4, #8]
   118c0:	e5d4000a 	ldrb	r0, [r4, #10]
   118c4:	e1822401 	orr	r2, r2, r1, lsl #8
   118c8:	e5d4100b 	ldrb	r1, [r4, #11]
   118cc:	e1822800 	orr	r2, r2, r0, lsl #16
   118d0:	e1822c01 	orr	r2, r2, r1, lsl #24
   118d4:	e15a0002 	cmp	sl, r2
   118d8:	2affffd3 	bcs	1182c <SelectObject+0xf4>
   118dc:	e596c00c 	ldr	ip, [r6, #12]
   118e0:	e5d42005 	ldrb	r2, [r4, #5]
   118e4:	e5d41004 	ldrb	r1, [r4, #4]
   118e8:	e5d40006 	ldrb	r0, [r4, #6]
   118ec:	e1811402 	orr	r1, r1, r2, lsl #8
   118f0:	e5d42007 	ldrb	r2, [r4, #7]
   118f4:	e1811800 	orr	r1, r1, r0, lsl #16
   118f8:	e35c0018 	cmp	ip, #24
   118fc:	e1811c02 	orr	r1, r1, r2, lsl #24
   11900:	0a000059 	beq	11a6c <SelectObject+0x334>
   11904:	e35c0020 	cmp	ip, #32
   11908:	0a000040 	beq	11a10 <SelectObject+0x2d8>
   1190c:	e35c0010 	cmp	ip, #16
   11910:	0a00001e 	beq	11990 <SelectObject+0x258>
   11914:	e3a02001 	mov	r2, #1
   11918:	e58db000 	str	fp, [sp]
   1191c:	e58d2004 	str	r2, [sp, #4]
   11920:	e1a00005 	mov	r0, r5
   11924:	e596802c 	ldr	r8, [r6, #44]	; 0x2c
   11928:	e12fff38 	blx	r8
   1192c:	e5d4200d 	ldrb	r2, [r4, #13]
   11930:	e5d4300c 	ldrb	r3, [r4, #12]
   11934:	e5d4000e 	ldrb	r0, [r4, #14]
   11938:	e1833402 	orr	r3, r3, r2, lsl #8
   1193c:	e5d4100f 	ldrb	r1, [r4, #15]
   11940:	e5d4201a 	ldrb	r2, [r4, #26]
   11944:	e1833800 	orr	r3, r3, r0, lsl #16
   11948:	e1833c01 	orr	r3, r3, r1, lsl #24
   1194c:	e3120001 	tst	r2, #1
   11950:	e0877003 	add	r7, r7, r3
   11954:	e5952004 	ldr	r2, [r5, #4]
   11958:	e28aa001 	add	sl, sl, #1
   1195c:	1affffd3 	bne	118b0 <SelectObject+0x178>
   11960:	e2822001 	add	r2, r2, #1
   11964:	e5852004 	str	r2, [r5, #4]
   11968:	e5d41009 	ldrb	r1, [r4, #9]
   1196c:	e5d42008 	ldrb	r2, [r4, #8]
   11970:	e5d4000a 	ldrb	r0, [r4, #10]
   11974:	e1822401 	orr	r2, r2, r1, lsl #8
   11978:	e5d4100b 	ldrb	r1, [r4, #11]
   1197c:	e1822800 	orr	r2, r2, r0, lsl #16
   11980:	e1822c01 	orr	r2, r2, r1, lsl #24
   11984:	e152000a 	cmp	r2, sl
   11988:	8affffd3 	bhi	118dc <SelectObject+0x1a4>
   1198c:	eaffffa6 	b	1182c <SelectObject+0xf4>
   11990:	e3510000 	cmp	r1, #0
   11994:	0affffde 	beq	11914 <SelectObject+0x1dc>
   11998:	e5d42018 	ldrb	r2, [r4, #24]
   1199c:	e5d40019 	ldrb	r0, [r4, #25]
   119a0:	e1a09007 	mov	r9, r7
   119a4:	e1822400 	orr	r2, r2, r0, lsl #8
   119a8:	e3520018 	cmp	r2, #24
   119ac:	e1a0800b 	mov	r8, fp
   119b0:	0a000041 	beq	11abc <SelectObject+0x384>
   119b4:	e087e101 	add	lr, r7, r1, lsl #2
   119b8:	e58d300c 	str	r3, [sp, #12]
   119bc:	e5d82000 	ldrb	r2, [r8]
   119c0:	e5d93002 	ldrb	r3, [r9, #2]
   119c4:	e5d90001 	ldrb	r0, [r9, #1]
   119c8:	e4d9c004 	ldrb	ip, [r9], #4
   119cc:	e3c2201f 	bic	r2, r2, #31
   119d0:	e18221ac 	orr	r2, r2, ip, lsr #3
   119d4:	e5c82000 	strb	r2, [r8]
   119d8:	e1d820b0 	ldrh	r2, [r8]
   119dc:	e1a00120 	lsr	r0, r0, #2
   119e0:	e3c22e7e 	bic	r2, r2, #2016	; 0x7e0
   119e4:	e1820280 	orr	r0, r2, r0, lsl #5
   119e8:	e20330f8 	and	r3, r3, #248	; 0xf8
   119ec:	e1a02a80 	lsl	r2, r0, #21
   119f0:	e1833ea2 	orr	r3, r3, r2, lsr #29
   119f4:	e159000e 	cmp	r9, lr
   119f8:	e1c800b0 	strh	r0, [r8]
   119fc:	e5c83001 	strb	r3, [r8, #1]
   11a00:	e2888002 	add	r8, r8, #2
   11a04:	1affffec 	bne	119bc <SelectObject+0x284>
   11a08:	e59d300c 	ldr	r3, [sp, #12]
   11a0c:	eaffffc0 	b	11914 <SelectObject+0x1dc>
   11a10:	e3510000 	cmp	r1, #0
   11a14:	0affffbe 	beq	11914 <SelectObject+0x1dc>
   11a18:	e5d42018 	ldrb	r2, [r4, #24]
   11a1c:	e5d40019 	ldrb	r0, [r4, #25]
   11a20:	e1822400 	orr	r2, r2, r0, lsl #8
   11a24:	e3520010 	cmp	r2, #16
   11a28:	0a00004b 	beq	11b5c <SelectObject+0x424>
   11a2c:	e1a00007 	mov	r0, r7
   11a30:	e1a0200b 	mov	r2, fp
   11a34:	e0819081 	add	r9, r1, r1, lsl #1
   11a38:	e0899007 	add	r9, r9, r7
   11a3c:	e5d0c001 	ldrb	ip, [r0, #1]
   11a40:	e5d08002 	ldrb	r8, [r0, #2]
   11a44:	e4d0e003 	ldrb	lr, [r0], #3
   11a48:	e5c2c001 	strb	ip, [r2, #1]
   11a4c:	e3e0c000 	mvn	ip, #0
   11a50:	e1590000 	cmp	r9, r0
   11a54:	e5c28002 	strb	r8, [r2, #2]
   11a58:	e5c2e000 	strb	lr, [r2]
   11a5c:	e5c2c003 	strb	ip, [r2, #3]
   11a60:	e2822004 	add	r2, r2, #4
   11a64:	1afffff4 	bne	11a3c <SelectObject+0x304>
   11a68:	eaffffa9 	b	11914 <SelectObject+0x1dc>
   11a6c:	e3510000 	cmp	r1, #0
   11a70:	0affffa7 	beq	11914 <SelectObject+0x1dc>
   11a74:	e5d42018 	ldrb	r2, [r4, #24]
   11a78:	e5d40019 	ldrb	r0, [r4, #25]
   11a7c:	e1822400 	orr	r2, r2, r0, lsl #8
   11a80:	e3520010 	cmp	r2, #16
   11a84:	0a000023 	beq	11b18 <SelectObject+0x3e0>
   11a88:	e1a00007 	mov	r0, r7
   11a8c:	e1a0200b 	mov	r2, fp
   11a90:	e0879101 	add	r9, r7, r1, lsl #2
   11a94:	e5d08002 	ldrb	r8, [r0, #2]
   11a98:	e5d0c001 	ldrb	ip, [r0, #1]
   11a9c:	e4d0e004 	ldrb	lr, [r0], #4
   11aa0:	e2822003 	add	r2, r2, #3
   11aa4:	e1590000 	cmp	r9, r0
   11aa8:	e5428001 	strb	r8, [r2, #-1]
   11aac:	e542e003 	strb	lr, [r2, #-3]
   11ab0:	e542c002 	strb	ip, [r2, #-2]
   11ab4:	1afffff6 	bne	11a94 <SelectObject+0x35c>
   11ab8:	eaffff95 	b	11914 <SelectObject+0x1dc>
   11abc:	e0812081 	add	r2, r1, r1, lsl #1
   11ac0:	e082e007 	add	lr, r2, r7
   11ac4:	e58d300c 	str	r3, [sp, #12]
   11ac8:	e5d82000 	ldrb	r2, [r8]
   11acc:	e5d93002 	ldrb	r3, [r9, #2]
   11ad0:	e5d90001 	ldrb	r0, [r9, #1]
   11ad4:	e4d9c003 	ldrb	ip, [r9], #3
   11ad8:	e3c2201f 	bic	r2, r2, #31
   11adc:	e18221ac 	orr	r2, r2, ip, lsr #3
   11ae0:	e5c82000 	strb	r2, [r8]
   11ae4:	e1d820b0 	ldrh	r2, [r8]
   11ae8:	e1a00120 	lsr	r0, r0, #2
   11aec:	e3c22e7e 	bic	r2, r2, #2016	; 0x7e0
   11af0:	e1820280 	orr	r0, r2, r0, lsl #5
   11af4:	e20330f8 	and	r3, r3, #248	; 0xf8
   11af8:	e1a02a80 	lsl	r2, r0, #21
   11afc:	e1833ea2 	orr	r3, r3, r2, lsr #29
   11b00:	e159000e 	cmp	r9, lr
   11b04:	e1c800b0 	strh	r0, [r8]
   11b08:	e5c83001 	strb	r3, [r8, #1]
   11b0c:	e2888002 	add	r8, r8, #2
   11b10:	1affffec 	bne	11ac8 <SelectObject+0x390>
   11b14:	eaffffbb 	b	11a08 <SelectObject+0x2d0>
   11b18:	e1a0c007 	mov	ip, r7
   11b1c:	e1a0000b 	mov	r0, fp
   11b20:	e0879081 	add	r9, r7, r1, lsl #1
   11b24:	e1dc20b0 	ldrh	r2, [ip]
   11b28:	e5dc8001 	ldrb	r8, [ip, #1]
   11b2c:	e4dce002 	ldrb	lr, [ip], #2
   11b30:	e1a021a2 	lsr	r2, r2, #3
   11b34:	e20220fc 	and	r2, r2, #252	; 0xfc
   11b38:	e20880f8 	and	r8, r8, #248	; 0xf8
   11b3c:	e1a0e18e 	lsl	lr, lr, #3
   11b40:	e159000c 	cmp	r9, ip
   11b44:	e5c02001 	strb	r2, [r0, #1]
   11b48:	e5c08002 	strb	r8, [r0, #2]
   11b4c:	e5c0e000 	strb	lr, [r0]
   11b50:	e2800003 	add	r0, r0, #3
   11b54:	1afffff2 	bne	11b24 <SelectObject+0x3ec>
   11b58:	eaffff6d 	b	11914 <SelectObject+0x1dc>
   11b5c:	e1a0c007 	mov	ip, r7
   11b60:	e1a0200b 	mov	r2, fp
   11b64:	e0879081 	add	r9, r7, r1, lsl #1
   11b68:	e1dc00b0 	ldrh	r0, [ip]
   11b6c:	e5dc8001 	ldrb	r8, [ip, #1]
   11b70:	e1a001a0 	lsr	r0, r0, #3
   11b74:	e20000fc 	and	r0, r0, #252	; 0xfc
   11b78:	e4dce002 	ldrb	lr, [ip], #2
   11b7c:	e5c20001 	strb	r0, [r2, #1]
   11b80:	e3e00000 	mvn	r0, #0
   11b84:	e20880f8 	and	r8, r8, #248	; 0xf8
   11b88:	e1a0e18e 	lsl	lr, lr, #3
   11b8c:	e159000c 	cmp	r9, ip
   11b90:	e5c28002 	strb	r8, [r2, #2]
   11b94:	e5c2e000 	strb	lr, [r2]
   11b98:	e5c20003 	strb	r0, [r2, #3]
   11b9c:	e2822004 	add	r2, r2, #4
   11ba0:	1afffff0 	bne	11b68 <SelectObject+0x430>
   11ba4:	eaffff5a 	b	11914 <SelectObject+0x1dc>
   11ba8:	0001da20 	.word	0x0001da20

00011bac <CreateExternalDC>:
   11bac:	e3500009 	cmp	r0, #9
   11bb0:	ca00002f 	bgt	11c74 <CreateExternalDC+0xc8>
   11bb4:	e92d41f0 	push	{r4, r5, r6, r7, r8, lr}
   11bb8:	e59f30bc 	ldr	r3, [pc, #188]	; 11c7c <CreateExternalDC+0xd0>
   11bbc:	e1a04080 	lsl	r4, r0, #1
   11bc0:	e0842000 	add	r2, r4, r0
   11bc4:	e0832202 	add	r2, r3, r2, lsl #4
   11bc8:	e2825050 	add	r5, r2, #80	; 0x50
   11bcc:	e1d510b6 	ldrh	r1, [r5, #6]
   11bd0:	e1d560b8 	ldrh	r6, [r5, #8]
   11bd4:	e1a0e000 	mov	lr, r0
   11bd8:	e1916806 	orrs	r6, r1, r6, lsl #16
   11bdc:	1283c030 	addne	ip, r3, #48	; 0x30
   11be0:	0a000002 	beq	11bf0 <CreateExternalDC+0x44>
   11be4:	e084000e 	add	r0, r4, lr
   11be8:	e08c0200 	add	r0, ip, r0, lsl #4
   11bec:	e8bd81f0 	pop	{r4, r5, r6, r7, r8, pc}
   11bf0:	e3a07001 	mov	r7, #1
   11bf4:	e2828030 	add	r8, r2, #48	; 0x30
   11bf8:	e283c030 	add	ip, r3, #48	; 0x30
   11bfc:	e89c0003 	ldm	ip, {r0, r1}
   11c00:	e8880003 	stm	r8, {r0, r1}
   11c04:	e2828038 	add	r8, r2, #56	; 0x38
   11c08:	e2831038 	add	r1, r3, #56	; 0x38
   11c0c:	e8910003 	ldm	r1, {r0, r1}
   11c10:	e8880003 	stm	r8, {r0, r1}
   11c14:	e5938040 	ldr	r8, [r3, #64]	; 0x40
   11c18:	e5930044 	ldr	r0, [r3, #68]	; 0x44
   11c1c:	e5931048 	ldr	r1, [r3, #72]	; 0x48
   11c20:	e5828040 	str	r8, [r2, #64]	; 0x40
   11c24:	e5820044 	str	r0, [r2, #68]	; 0x44
   11c28:	e5821048 	str	r1, [r2, #72]	; 0x48
   11c2c:	e1d304be 	ldrh	r0, [r3, #78]	; 0x4e
   11c30:	e1d315b0 	ldrh	r1, [r3, #80]	; 0x50
   11c34:	e1d384bc 	ldrh	r8, [r3, #76]	; 0x4c
   11c38:	e1c204be 	strh	r0, [r2, #78]	; 0x4e
   11c3c:	e1c215b0 	strh	r1, [r2, #80]	; 0x50
   11c40:	e1c284bc 	strh	r8, [r2, #76]	; 0x4c
   11c44:	e5d32052 	ldrb	r2, [r3, #82]	; 0x52
   11c48:	e5d50002 	ldrb	r0, [r5, #2]
   11c4c:	e5931210 	ldr	r1, [r3, #528]	; 0x210
   11c50:	e0022007 	and	r2, r2, r7
   11c54:	e3c00001 	bic	r0, r0, #1
   11c58:	e1822000 	orr	r2, r2, r0
   11c5c:	e0811007 	add	r1, r1, r7
   11c60:	e1c560b8 	strh	r6, [r5, #8]
   11c64:	e5c52002 	strb	r2, [r5, #2]
   11c68:	e5831210 	str	r1, [r3, #528]	; 0x210
   11c6c:	e1c570b6 	strh	r7, [r5, #6]
   11c70:	eaffffdb 	b	11be4 <CreateExternalDC+0x38>
   11c74:	e3a00000 	mov	r0, #0
   11c78:	e12fff1e 	bx	lr
   11c7c:	0001d9f0 	.word	0x0001d9f0

00011c80 <GetScreenWidth>:
   11c80:	e59f3004 	ldr	r3, [pc, #4]	; 11c8c <GetScreenWidth+0xc>
   11c84:	e5930004 	ldr	r0, [r3, #4]
   11c88:	e12fff1e 	bx	lr
   11c8c:	0001d9f0 	.word	0x0001d9f0

00011c90 <GetScreenHeight>:
   11c90:	e59f3004 	ldr	r3, [pc, #4]	; 11c9c <GetScreenHeight+0xc>
   11c94:	e5930008 	ldr	r0, [r3, #8]
   11c98:	e12fff1e 	bx	lr
   11c9c:	0001d9f0 	.word	0x0001d9f0

00011ca0 <GetScreenDepth>:
   11ca0:	e59f3004 	ldr	r3, [pc, #4]	; 11cac <GetScreenDepth+0xc>
   11ca4:	e593000c 	ldr	r0, [r3, #12]
   11ca8:	e12fff1e 	bx	lr
   11cac:	0001d9f0 	.word	0x0001d9f0

00011cb0 <memcpy>:
   11cb0:	e352000f 	cmp	r2, #15
   11cb4:	9a00000a 	bls	11ce4 <memcpy+0x34>
   11cb8:	e1803001 	orr	r3, r0, r1
   11cbc:	e3130003 	tst	r3, #3
   11cc0:	11a03000 	movne	r3, r0
   11cc4:	0a00000a 	beq	11cf4 <memcpy+0x44>
   11cc8:	e2433001 	sub	r3, r3, #1
   11ccc:	e0812002 	add	r2, r1, r2
   11cd0:	e4d1c001 	ldrb	ip, [r1], #1
   11cd4:	e1510002 	cmp	r1, r2
   11cd8:	e5e3c001 	strb	ip, [r3, #1]!
   11cdc:	1afffffb 	bne	11cd0 <memcpy+0x20>
   11ce0:	e12fff1e 	bx	lr
   11ce4:	e3520000 	cmp	r2, #0
   11ce8:	e1a03000 	mov	r3, r0
   11cec:	1afffff5 	bne	11cc8 <memcpy+0x18>
   11cf0:	e12fff1e 	bx	lr
   11cf4:	e2423010 	sub	r3, r2, #16
   11cf8:	e92d4070 	push	{r4, r5, r6, lr}
   11cfc:	e1a03223 	lsr	r3, r3, #4
   11d00:	e2816020 	add	r6, r1, #32
   11d04:	e0866203 	add	r6, r6, r3, lsl #4
   11d08:	e281c010 	add	ip, r1, #16
   11d0c:	e280e010 	add	lr, r0, #16
   11d10:	e51c5010 	ldr	r5, [ip, #-16]
   11d14:	e51c400c 	ldr	r4, [ip, #-12]
   11d18:	e50e5010 	str	r5, [lr, #-16]
   11d1c:	e50e400c 	str	r4, [lr, #-12]
   11d20:	e51c5008 	ldr	r5, [ip, #-8]
   11d24:	e51c4004 	ldr	r4, [ip, #-4]
   11d28:	e28cc010 	add	ip, ip, #16
   11d2c:	e15c0006 	cmp	ip, r6
   11d30:	e50e5008 	str	r5, [lr, #-8]
   11d34:	e50e4004 	str	r4, [lr, #-4]
   11d38:	e28ee010 	add	lr, lr, #16
   11d3c:	1afffff3 	bne	11d10 <memcpy+0x60>
   11d40:	e202e00f 	and	lr, r2, #15
   11d44:	e2833001 	add	r3, r3, #1
   11d48:	e1a03203 	lsl	r3, r3, #4
   11d4c:	e35e0003 	cmp	lr, #3
   11d50:	e0811003 	add	r1, r1, r3
   11d54:	91a0200e 	movls	r2, lr
   11d58:	e0803003 	add	r3, r0, r3
   11d5c:	9a00000d 	bls	11d98 <memcpy+0xe8>
   11d60:	e1a05001 	mov	r5, r1
   11d64:	e1a0c00e 	mov	ip, lr
   11d68:	e2434004 	sub	r4, r3, #4
   11d6c:	e24cc004 	sub	ip, ip, #4
   11d70:	e4956004 	ldr	r6, [r5], #4
   11d74:	e35c0003 	cmp	ip, #3
   11d78:	e5a46004 	str	r6, [r4, #4]!
   11d7c:	8afffffa 	bhi	11d6c <memcpy+0xbc>
   11d80:	e24ec004 	sub	ip, lr, #4
   11d84:	e3ccc003 	bic	ip, ip, #3
   11d88:	e28cc004 	add	ip, ip, #4
   11d8c:	e083300c 	add	r3, r3, ip
   11d90:	e081100c 	add	r1, r1, ip
   11d94:	e2022003 	and	r2, r2, #3
   11d98:	e3520000 	cmp	r2, #0
   11d9c:	12433001 	subne	r3, r3, #1
   11da0:	10812002 	addne	r2, r1, r2
   11da4:	0a000003 	beq	11db8 <memcpy+0x108>
   11da8:	e4d1c001 	ldrb	ip, [r1], #1
   11dac:	e1510002 	cmp	r1, r2
   11db0:	e5e3c001 	strb	ip, [r3, #1]!
   11db4:	1afffffb 	bne	11da8 <memcpy+0xf8>
   11db8:	e8bd4070 	pop	{r4, r5, r6, lr}
   11dbc:	e12fff1e 	bx	lr

00011dc0 <memset>:
   11dc0:	e3100003 	tst	r0, #3
   11dc4:	0a000040 	beq	11ecc <memset+0x10c>
   11dc8:	e3520000 	cmp	r2, #0
   11dcc:	e2422001 	sub	r2, r2, #1
   11dd0:	012fff1e 	bxeq	lr
   11dd4:	e201c0ff 	and	ip, r1, #255	; 0xff
   11dd8:	e1a03000 	mov	r3, r0
   11ddc:	ea000002 	b	11dec <memset+0x2c>
   11de0:	e2422001 	sub	r2, r2, #1
   11de4:	e3720001 	cmn	r2, #1
   11de8:	012fff1e 	bxeq	lr
   11dec:	e4c3c001 	strb	ip, [r3], #1
   11df0:	e3130003 	tst	r3, #3
   11df4:	1afffff9 	bne	11de0 <memset+0x20>
   11df8:	e3520003 	cmp	r2, #3
   11dfc:	9a00002a 	bls	11eac <memset+0xec>
   11e00:	e92d4030 	push	{r4, r5, lr}
   11e04:	e201e0ff 	and	lr, r1, #255	; 0xff
   11e08:	e18ee40e 	orr	lr, lr, lr, lsl #8
   11e0c:	e352000f 	cmp	r2, #15
   11e10:	e18ee80e 	orr	lr, lr, lr, lsl #16
   11e14:	9a000010 	bls	11e5c <memset+0x9c>
   11e18:	e2425010 	sub	r5, r2, #16
   11e1c:	e1a05225 	lsr	r5, r5, #4
   11e20:	e2834020 	add	r4, r3, #32
   11e24:	e0844205 	add	r4, r4, r5, lsl #4
   11e28:	e283c010 	add	ip, r3, #16
   11e2c:	e50ce010 	str	lr, [ip, #-16]
   11e30:	e50ce00c 	str	lr, [ip, #-12]
   11e34:	e50ce008 	str	lr, [ip, #-8]
   11e38:	e50ce004 	str	lr, [ip, #-4]
   11e3c:	e28cc010 	add	ip, ip, #16
   11e40:	e15c0004 	cmp	ip, r4
   11e44:	1afffff8 	bne	11e2c <memset+0x6c>
   11e48:	e202200f 	and	r2, r2, #15
   11e4c:	e2855001 	add	r5, r5, #1
   11e50:	e3520003 	cmp	r2, #3
   11e54:	e0833205 	add	r3, r3, r5, lsl #4
   11e58:	9a00000a 	bls	11e88 <memset+0xc8>
   11e5c:	e1a04003 	mov	r4, r3
   11e60:	e1a0c002 	mov	ip, r2
   11e64:	e24cc004 	sub	ip, ip, #4
   11e68:	e35c0003 	cmp	ip, #3
   11e6c:	e484e004 	str	lr, [r4], #4
   11e70:	8afffffb 	bhi	11e64 <memset+0xa4>
   11e74:	e242c004 	sub	ip, r2, #4
   11e78:	e3ccc003 	bic	ip, ip, #3
   11e7c:	e28cc004 	add	ip, ip, #4
   11e80:	e083300c 	add	r3, r3, ip
   11e84:	e2022003 	and	r2, r2, #3
   11e88:	e3520000 	cmp	r2, #0
   11e8c:	120110ff 	andne	r1, r1, #255	; 0xff
   11e90:	10832002 	addne	r2, r3, r2
   11e94:	0a000002 	beq	11ea4 <memset+0xe4>
   11e98:	e4c31001 	strb	r1, [r3], #1
   11e9c:	e1520003 	cmp	r2, r3
   11ea0:	1afffffc 	bne	11e98 <memset+0xd8>
   11ea4:	e8bd4030 	pop	{r4, r5, lr}
   11ea8:	e12fff1e 	bx	lr
   11eac:	e3520000 	cmp	r2, #0
   11eb0:	012fff1e 	bxeq	lr
   11eb4:	e20110ff 	and	r1, r1, #255	; 0xff
   11eb8:	e0832002 	add	r2, r3, r2
   11ebc:	e4c31001 	strb	r1, [r3], #1
   11ec0:	e1520003 	cmp	r2, r3
   11ec4:	1afffffc 	bne	11ebc <memset+0xfc>
   11ec8:	e12fff1e 	bx	lr
   11ecc:	e1a03000 	mov	r3, r0
   11ed0:	eaffffc8 	b	11df8 <memset+0x38>

00011ed4 <strlen>:
   11ed4:	e3c01003 	bic	r1, r0, #3
   11ed8:	e2100003 	ands	r0, r0, #3
   11edc:	e2600000 	rsb	r0, r0, #0
   11ee0:	e4913004 	ldr	r3, [r1], #4
   11ee4:	e280c004 	add	ip, r0, #4
   11ee8:	e1a0c18c 	lsl	ip, ip, #3
   11eec:	e3e02000 	mvn	r2, #0
   11ef0:	11833c32 	orrne	r3, r3, r2, lsr ip
   11ef4:	e3a0c001 	mov	ip, #1
   11ef8:	e18cc40c 	orr	ip, ip, ip, lsl #8
   11efc:	e18cc80c 	orr	ip, ip, ip, lsl #16
   11f00:	e043200c 	sub	r2, r3, ip
   11f04:	e1c22003 	bic	r2, r2, r3
   11f08:	e012238c 	ands	r2, r2, ip, lsl #7
   11f0c:	04913004 	ldreq	r3, [r1], #4
   11f10:	02800004 	addeq	r0, r0, #4
   11f14:	0afffff9 	beq	11f00 <strlen+0x2c>
   11f18:	e31300ff 	tst	r3, #255	; 0xff
   11f1c:	12800001 	addne	r0, r0, #1
   11f20:	13130cff 	tstne	r3, #65280	; 0xff00
   11f24:	12800001 	addne	r0, r0, #1
   11f28:	131308ff 	tstne	r3, #16711680	; 0xff0000
   11f2c:	12800001 	addne	r0, r0, #1
   11f30:	e12fff1e 	bx	lr

00011f34 <__udivsi3>:
   11f34:	e2512001 	subs	r2, r1, #1
   11f38:	012fff1e 	bxeq	lr
   11f3c:	3a000036 	bcc	1201c <__udivsi3+0xe8>
   11f40:	e1500001 	cmp	r0, r1
   11f44:	9a000022 	bls	11fd4 <__udivsi3+0xa0>
   11f48:	e1110002 	tst	r1, r2
   11f4c:	0a000023 	beq	11fe0 <__udivsi3+0xac>
   11f50:	e311020e 	tst	r1, #-536870912	; 0xe0000000
   11f54:	01a01181 	lsleq	r1, r1, #3
   11f58:	03a03008 	moveq	r3, #8
   11f5c:	13a03001 	movne	r3, #1
   11f60:	e3510201 	cmp	r1, #268435456	; 0x10000000
   11f64:	31510000 	cmpcc	r1, r0
   11f68:	31a01201 	lslcc	r1, r1, #4
   11f6c:	31a03203 	lslcc	r3, r3, #4
   11f70:	3afffffa 	bcc	11f60 <__udivsi3+0x2c>
   11f74:	e3510102 	cmp	r1, #-2147483648	; 0x80000000
   11f78:	31510000 	cmpcc	r1, r0
   11f7c:	31a01081 	lslcc	r1, r1, #1
   11f80:	31a03083 	lslcc	r3, r3, #1
   11f84:	3afffffa 	bcc	11f74 <__udivsi3+0x40>
   11f88:	e3a02000 	mov	r2, #0
   11f8c:	e1500001 	cmp	r0, r1
   11f90:	20400001 	subcs	r0, r0, r1
   11f94:	21822003 	orrcs	r2, r2, r3
   11f98:	e15000a1 	cmp	r0, r1, lsr #1
   11f9c:	204000a1 	subcs	r0, r0, r1, lsr #1
   11fa0:	218220a3 	orrcs	r2, r2, r3, lsr #1
   11fa4:	e1500121 	cmp	r0, r1, lsr #2
   11fa8:	20400121 	subcs	r0, r0, r1, lsr #2
   11fac:	21822123 	orrcs	r2, r2, r3, lsr #2
   11fb0:	e15001a1 	cmp	r0, r1, lsr #3
   11fb4:	204001a1 	subcs	r0, r0, r1, lsr #3
   11fb8:	218221a3 	orrcs	r2, r2, r3, lsr #3
   11fbc:	e3500000 	cmp	r0, #0
   11fc0:	11b03223 	lsrsne	r3, r3, #4
   11fc4:	11a01221 	lsrne	r1, r1, #4
   11fc8:	1affffef 	bne	11f8c <__udivsi3+0x58>
   11fcc:	e1a00002 	mov	r0, r2
   11fd0:	e12fff1e 	bx	lr
   11fd4:	03a00001 	moveq	r0, #1
   11fd8:	13a00000 	movne	r0, #0
   11fdc:	e12fff1e 	bx	lr
   11fe0:	e3510801 	cmp	r1, #65536	; 0x10000
   11fe4:	21a01821 	lsrcs	r1, r1, #16
   11fe8:	23a02010 	movcs	r2, #16
   11fec:	33a02000 	movcc	r2, #0
   11ff0:	e3510c01 	cmp	r1, #256	; 0x100
   11ff4:	21a01421 	lsrcs	r1, r1, #8
   11ff8:	22822008 	addcs	r2, r2, #8
   11ffc:	e3510010 	cmp	r1, #16
   12000:	21a01221 	lsrcs	r1, r1, #4
   12004:	22822004 	addcs	r2, r2, #4
   12008:	e3510004 	cmp	r1, #4
   1200c:	82822003 	addhi	r2, r2, #3
   12010:	908220a1 	addls	r2, r2, r1, lsr #1
   12014:	e1a00230 	lsr	r0, r0, r2
   12018:	e12fff1e 	bx	lr
   1201c:	e3500000 	cmp	r0, #0
   12020:	13e00000 	mvnne	r0, #0
   12024:	ea000007 	b	12048 <__aeabi_idiv0>

00012028 <__aeabi_uidivmod>:
   12028:	e3510000 	cmp	r1, #0
   1202c:	0afffffa 	beq	1201c <__udivsi3+0xe8>
   12030:	e92d4003 	push	{r0, r1, lr}
   12034:	ebffffbe 	bl	11f34 <__udivsi3>
   12038:	e8bd4006 	pop	{r1, r2, lr}
   1203c:	e0030092 	mul	r3, r2, r0
   12040:	e0411003 	sub	r1, r1, r3
   12044:	e12fff1e 	bx	lr

00012048 <__aeabi_idiv0>:
   12048:	e12fff1e 	bx	lr
